
../apps/bin/init:     file format elf64-littleaarch64

SYMBOL TABLE:
0000000000000000 l    d  .text	0000000000000000 .text
000000000000ebb8 l    d  .rodata	0000000000000000 .rodata
0000000000000050 l    d  .data	0000000000000000 .data
00000000000002c8 l    d  .bss	0000000000000000 .bss
0000000000002ed4 g     F .text	0000000000000020 clock_gettime
000000000000ea00 g     F .text	0000000000000020 pgalloc
000000000000b258 g     F .text	0000000000000164 cmd_watch
0000000000000780 g     F .text	00000000000001b8 strcpy
0000000000002b78 g     F .text	0000000000000024 nxsem_get_value
0000000000002f08 g     F .text	0000000000000014 nx_pthread_exit
000000000000d9f4 g     F .text	0000000000000090 lib_isbasedigit
000000000000eb78 g     F .text	0000000000000018 unsetenv
000000000000c5b8 g     F .text	0000000000000214 mm_shrinkchunk
000000000000873c g     F .text	0000000000000168 cmd_rm
000000000000eb90 g     F .text	0000000000000024 waitpid
0000000000002de4 g     F .text	0000000000000034 lib_fflush
000000000000a368 g     F .text	0000000000000140 cmd_kill
0000000000005448 g     F .text	00000000000001c4 cmd_alias
000000000000e8ac g     F .text	0000000000000040 ioctl
0000000000008390 g     F .text	0000000000000128 cmd_mkdir
0000000000006db8 g     F .text	00000000000001a0 cmd_set
0000000000002f1c g     F .text	0000000000000024 nxsem_clockwait
000000000000c57c g     F .text	000000000000003c mm_malloc_size
000000000000e360 g     F .text	0000000000000038 clock_isleapyear
0000000000007ecc g     F .text	000000000000012c cmd_dmesg
000000000000242c g     F .text	0000000000000018 task_get_info
000000000000b894 g     F .text	0000000000000248 mm_delayfree
0000000000002508 g     F .text	000000000000002c nxmutex_is_locked
00000000000027ac g     F .text	0000000000000008 nxrmutex_get_holder
00000000000002c8 g       .dtors	0000000000000000 _edtors
000000000000e2f0 g     F .text	000000000000000c sigemptyset
0000000000005cb0 g     F .text	00000000000000cc nsh_command
0000000000002760 g     F .text	0000000000000010 nxmutex_restorelock
000000000000a618 g     F .text	0000000000000070 cmd_sleep
0000000000002e74 g     F .text	0000000000000024 pthread_exit
000000000000d04c g     F .text	000000000000008c snprintf
000000000000218c g     F .text	00000000000000a0 atexit_call_exitfuncs
0000000000002ef4 g     F .text	0000000000000014 gettid
0000000000003004 g     F .text	0000000000000058 nsh_consolemain
000000000000ca38 g     F .text	0000000000000010 iscntrl_l
000000000000be08 g     F .text	000000000000048c mm_realloc
000000000000cd8c g     F .text	0000000000000064 lib_put_tempbuffer
0000000000002fa0 g     F .text	0000000000000020 sched_getparam
00000000000029e8 g     F .text	0000000000000034 nxrmutex_restorelock
00000000000002c8 g       .dtors	0000000000000000 _sdtors
000000000000e2fc g     F .text	0000000000000030 add_file_action
000000000000da84 g     F .text	0000000000000034 lib_skipspace
0000000000002454 g     F .text	000000000000002c __errno
00000000000094c8 g     F .text	000000000000007c nsh_getdirpath
000000000000e860 g     F .text	0000000000000018 getenv
0000000000004c98 g     F .text	000000000000013c nsh_parse
0000000000004fa0 g     F .text	000000000000031c readline_common
0000000000008b28 g     F .text	00000000000001fc cmd_truncate
000000000000ebb4 g       .text	0000000000000000 _etext
00000000000002c8 g       .bss	0000000000000000 _sbss
000000000000cef0 g     F .text	000000000000000c posix_spawn_file_actions_init
0000000000007dc0 g     F .text	000000000000010c cmd_cat
000000000000e170 g     F .text	000000000000004c usleep
0000000000009590 g     F .text	0000000000000014 cmd_free
000000000000e898 g     F .text	0000000000000014 getpid
000000000000f00c g     O .rodata	0000000000000019 g_fmtinternalerror
000000000000a6f8 g     F .text	000000000000030c cmd_uptime
000000000000c53c g     F .text	000000000000002c mm_unlock
000000000000e284 g     F .text	000000000000006c truncate
0000000000002d34 g     F .text	00000000000000b0 lib_fflush_unlocked
0000000000001e5c g     F .text	000000000000005c __ultoa_invert
000000000000cbf0 g     F .text	0000000000000090 dirname
0000000000002340 g     F .text	0000000000000008 lib_noflush
000000000000f0ca g     O .rodata	000000000000001c g_fmtcmdnotfound
000000000000f175 g     O .rodata	000000000000001f g_nshgreeting
0000000000008924 g     F .text	000000000000000c cmd_source
0000000000002a1c g     F .text	0000000000000078 task_setcancelstate
0000000000007ff8 g     F .text	0000000000000138 cmd_cp
0000000000002500 g     F .text	0000000000000008 nxmutex_get_holder
0000000000000000 g     F .text	000000000000016c memcpy
000000000000c7d0 g     F .text	0000000000000258 mm_malloc
000000000000b730 g     F .text	000000000000003c mm_brkaddr
0000000000002a94 g     F .text	000000000000003c nxsem_init
000000000000f103 g     O .rodata	000000000000001b g_fmtarginvalid
0000000000005444 g     F .text	0000000000000004 nsh_aliasfree
000000000000ebb8 g       .rodata	0000000000000000 _srodata
000000000000e32c g     F .text	000000000000000c tcflush
000000000000ca84 g     F .text	0000000000000014 tolower
0000000000003700 g     F .text	00000000000000a8 nsh_newconsole
000000000000ca98 g     F .text	0000000000000004 tolower_l
000000000000b5a8 g     F .text	000000000000000c malloc
000000000000dda0 g     F .text	000000000000001c isatty
000000000000ea20 g     F .text	0000000000000030 posix_spawn
00000000000020a4 g     F .text	0000000000000030 quick_exit
000000000000e104 g     F .text	000000000000006c sleep
0000000000002e98 g     F .text	0000000000000028 _assert
000000000000eb28 g     F .text	0000000000000018 sysinfo
000000000000b3bc g     F .text	00000000000001dc cmd_wait
000000000000e338 g     F .text	000000000000000c tcdrain
0000000000002774 g     F .text	0000000000000008 nxrmutex_init
0000000000002f40 g     F .text	0000000000000018 nxsem_destroy
0000000000009970 g     F .text	0000000000000084 cmd_umount
000000000000d648 g     F .text	000000000000018c strtoul
0000000000000050  w    O .data	0000000000000008 __dso_handle
000000000000d2e8 g     F .text	000000000000009c itoa
00000000000033b0 g     F .text	00000000000000d4 readline_fd
0000000000002594 g     F .text	0000000000000030 nxmutex_trylock
000000000000a688 g     F .text	0000000000000070 cmd_usleep
000000000000e398 g     F .text	0000000000000060 clock_dayoftheweek
000000000000eacc g     F .text	0000000000000018 sched_getscheduler
000000000000e0cc g     F .text	0000000000000010 getoptargp
0000000000000050 g       .data	0000000000000000 _sdata
000000000000c2dc g     F .text	0000000000000044 umm_try_initialize
000000000000eab4 g     F .text	0000000000000018 rmdir
0000000000005f90 g     F .text	000000000000024c cmd_hexdump
000000000000cb44 g     F .text	0000000000000044 readdir
000000000000ecf0 g     O .rodata	0000000000000048 g_dtoa_scale_up
0000000000002534 g     F .text	0000000000000060 nxmutex_lock
0000000000002998 g     F .text	0000000000000050 nxrmutex_breaklock
000000000000c2b8 g     F .text	0000000000000024 umm_initialize
000000000000629c g     F .text	0000000000000638 cmd_dd
000000000000ca48 g     F .text	0000000000000014 isspace
0000000000002bfc g     F .text	000000000000003c fflush
00000000000024c4 g     F .text	0000000000000020 nxmutex_destroy
000000000000e82c g     F .text	0000000000000020 ftruncate
000000000000d56c g     F .text	0000000000000008 realpath
000000000000942c g     F .text	000000000000003c nsh_trimdir
000000000000e90c g     F .text	0000000000000024 lseek
000000000000f079 g     O .rodata	000000000000001b g_fmtdeepnesting
000000000000b130 g     F .text	0000000000000128 cmd_time
00000000000020d4 g     F .text	0000000000000008 _Exit
000000000000c320 g     F .text	0000000000000148 mm_addregion
00000000000068f0 g     F .text	000000000000000c nsh_getcwd
0000000000008f10 g     F .text	00000000000001ec nsh_catfile
0000000000006fb8 g     F .text	0000000000000270 nsh_fileapp
0000000000002e68 g     F .text	000000000000000c abort
000000000000ca80 g     F .text	0000000000000004 isxdigit_l
0000000000007d8c g     F .text	0000000000000034 cmd_dirname
000000000000ec28 g     O .rodata	0000000000000080 g_dtoa_round
0000000000002868 g     F .text	0000000000000070 nxrmutex_clocklock
000000000000de54 g     F .text	00000000000001a4 gmtime_r
0000000000002e20 g     F .text	0000000000000008 ftrylockfile
00000000000027b4 g     F .text	0000000000000004 nxrmutex_is_locked
000000000000ca60 g     F .text	0000000000000020 isxdigit
00000000000068fc g     F .text	0000000000000090 nsh_getfullpath
000000000000d574 g     F .text	00000000000000d4 strtol
000000000000c514 g     F .text	0000000000000028 mm_lock
000000000000f094 g     O .rodata	000000000000001d g_fmttoomanyargs
000000000000c7cc g     F .text	0000000000000004 mm_free_delaylist
00000000000001a4 g     F .text	00000000000000e0 strnlen
0000000000002314 g     F .text	000000000000002c lib_rawoutstream
000000000000cefc g     F .text	0000000000000078 posix_spawnattr_init
000000000000cc80 g     F .text	000000000000007c uname
000000000000c294 g     F .text	0000000000000024 mm_heapmember
0000000000000811 g       .bss	0000000000000000 _ebss
00000000000030e0 g     F .text	000000000000000c nsh_prompt
0000000000000810 g     O .bss	0000000000000001 .hidden __aarch64_have_lse_atomics
000000000000ea94 g     F .text	0000000000000020 rename
000000000000e99c g     F .text	0000000000000024 nx_vsyslog
0000000000000c54 g     F .text	0000000000000100 strrchr
000000000000cb88 g     F .text	0000000000000068 basename
0000000000008d24 g     F .text	00000000000000cc cmd_fdinfo
000000000000f03d g     O .rodata	0000000000000018 g_fmtcmdfailed
000000000000e84c g     F .text	0000000000000014 get_environ_ptr
0000000000000d60 g     F .text	0000000000000030 .hidden __aarch64_cas4_acq_rel
0000000000000811 g       *ABS*	0000000000000000 _etbss
0000000000002fe0 g     F .text	0000000000000024 write
000000000000e8ec g     F .text	0000000000000020 kill
000000000000dcac g     F .text	0000000000000044 strcat
0000000000002940 g     F .text	0000000000000058 nxrmutex_unlock
0000000000001e2c g     F .text	000000000000002c lib_vsprintf_internal
000000000000eb40 g     F .text	0000000000000020 umount2
000000000000ca5c g     F .text	0000000000000004 isspace_l
000000000000e1bc g     F .text	00000000000000c8 chdir
0000000000004dd4 g     F .text	000000000000003c cmd_break
0000000000000e24 g     F .text	0000000000000064 __start
000000000000e7c0 g     F .text	000000000000000c getoptvars
0000000000002480 g     F .text	0000000000000044 nxmutex_init
00000000000026ac g     F .text	0000000000000070 nxmutex_unlock
0000000000002ad0 g     F .text	0000000000000034 sem_init
0000000000000ef8 g     F .text	0000000000000068 dprintf
000000000000e930 g     F .text	0000000000000020 lstat
000000000000db78 g     F .text	000000000000007c strstr
0000000000003074 g     F .text	000000000000006c nsh_update_prompt
0000000000009544 g     F .text	000000000000004c nsh_getpid
000000000000c574 g     F .text	0000000000000008 mm_unlock_irq
000000000000ea70 g     F .text	0000000000000024 read
000000000000d930 g     F .text	0000000000000034 lib_memoutstream
000000000000262c g     F .text	0000000000000080 nxmutex_timedlock
000000000000a2a4 g     F .text	00000000000000c4 cmd_pidof
000000000000e0b0 g     F .text	000000000000000c get_current_dir_name
000000000000dc70 g     F .text	000000000000003c strlcpy
0000000000000a9c g     F .text	00000000000001b8 strncmp
000000000000c468 g     F .text	00000000000000a8 mm_initialize
0000000000009b68 g     F .text	00000000000000d4 ps_readprocfs
000000000000f055 g     O .rodata	0000000000000024 g_fmtcontext
000000000000eb60 g     F .text	0000000000000018 unlink
000000000000eae4 g     F .text	0000000000000024 setenv
0000000000002f58 g     F .text	0000000000000018 nxsem_post
0000000000004e10 g     F .text	0000000000000190 nsh_script
0000000000002e28 g     F .text	0000000000000008 funlockfile
000000000000b610 g     F .text	000000000000005c realloc
0000000000002254 g     F .text	0000000000000014 on_exit
000000000000271c g     F .text	0000000000000044 nxmutex_breaklock
000000000000a4a8 g     F .text	0000000000000170 cmd_pkill
0000000000002268 g     F .text	0000000000000014 __cxa_atexit
0000000000002f88 g     F .text	0000000000000018 nxsem_wait
0000000000000811 g       *ABS*	0000000000000000 _stbss
0000000000002f70 g     F .text	0000000000000018 nxsem_trywait
0000000000001eb8 g     F .text	00000000000001b4 __dtoa_engine
0000000000002240 g     F .text	0000000000000014 at_quick_exit
000000000000d0d8 g     F .text	00000000000000fc nx_vasprintf
0000000000000280 g     F .text	0000000000000110 memcmp
0000000000002e44 g     F .text	0000000000000024 lib_get_stream
0000000000006d64 g     F .text	0000000000000014 cmd_env
000000000000bb2c g     F .text	00000000000002dc mm_memalign
0000000000002b4c g     F .text	000000000000002c sem_setprotocol
000000000000b6a0 g     F .text	0000000000000090 sbrk
000000000000daf8 g     F .text	0000000000000040 strdup
0000000000007cfc g     F .text	0000000000000090 cmd_basename
000000000000badc g     F .text	0000000000000050 mm_free
000000000000b0b8 g     F .text	000000000000000c cmd_test
0000000000002e30 g     F .text	0000000000000014 lib_get_streams
00000000000053d8 g     F .text	0000000000000028 alias_init
00000000000084b8 g     F .text	00000000000001a0 cmd_mkrd
000000000000e344 g     F .text	000000000000001c clock_daysbeforemonth
0000000000000d90 g     F .text	000000000000002c .hidden __aarch64_ldset4_acq
000000000000e0bc g     F .text	0000000000000010 getopt
000000000000de50 g     F .text	0000000000000004 localtime
00000000000003c0 g     F .text	00000000000001dc memset
0000000000000e88 g     F .text	0000000000000070 main
000000000000e0f0 g     F .text	0000000000000014 getoptoptp
000000000000dbf4 g     F .text	000000000000007c strlcat
0000000000002770 g     F .text	0000000000000004 nxmutex_set_protocol
000000000000cdf0 g     F .text	00000000000000b0 posix_spawn_file_actions_addopen
0000000000009724 g     F .text	000000000000024c cmd_mount
000000000000ddbc g     F .text	000000000000000c tcgetattr
0000000000006d78 g     F .text	0000000000000040 cmd_pwd
000000000000de10 g     F .text	0000000000000034 time
000000000000ca9c g     F .text	0000000000000060 opendir
00000000000024e4 g     F .text	000000000000001c nxmutex_is_hold
0000000000009248 g     F .text	00000000000000fc nsh_writefile
000000000000dd24 g     F .text	0000000000000068 syslog
0000000000002c38 g     F .text	0000000000000078 lib_flushall_unlocked
00000000000028d8 g     F .text	0000000000000068 nxrmutex_timedlock
000000000000560c g     F .text	00000000000000e8 cmd_unalias
000000000000e970 g     F .text	000000000000002c mount
0000000000000680 g     F .text	00000000000000e4 strcmp
0000000000009468 g     F .text	0000000000000060 nsh_trimspaces
00000000000020dc g     F .text	00000000000000b0 atexit_register
000000000000dffc g     F .text	00000000000000b4 getcwd
0000000000001e58 g     F .text	0000000000000004 lib_vsprintf
00000000000025c4 g     F .text	0000000000000068 nxmutex_clocklock
000000000000db38 g     F .text	0000000000000040 nx_strdup
000000000000e878 g     F .text	0000000000000020 gethostname
000000000000b5b4 g     F .text	000000000000005c memalign
00000000000027b8 g     F .text	0000000000000058 nxrmutex_lock
000000000000cfe4 g     F .text	0000000000000068 asprintf
000000000000222c g     F .text	0000000000000014 atexit
000000000000dab8 g     F .text	0000000000000040 strcspn
0000000000005400 g     F .text	0000000000000044 nsh_aliasfind
000000000000b76c g     F .text	0000000000000128 mm_extend
0000000000002e18 g     F .text	0000000000000008 flockfile
000000000000dd8c g     F .text	0000000000000014 setlogmask
000000000000e7cc g     F .text	0000000000000020 boardctl
0000000000008658 g     F .text	00000000000000e4 cmd_mv
0000000000002fc0 g     F .text	0000000000000020 sched_setparam
000000000000305c g     F .text	0000000000000018 nsh_initialize
000000000000f0b1 g     O .rodata	0000000000000019 g_fmtnosuch
00000000000002c8 g       .ctors	0000000000000000 _sctors
000000000000f137 g     O .rodata	0000000000000027 g_fmtargrequired
00000000000090fc g     F .text	000000000000014c nsh_readfile
000000000000dff8 g     F .text	0000000000000004 localtime_r
0000000000002bc0 g     F .text	000000000000003c fflush_unlocked
000000000000277c g     F .text	000000000000001c nxrmutex_destroy
000000000000ccfc g     F .text	0000000000000090 lib_get_tempbuffer
000000000000eb08 g     F .text	0000000000000020 stat
000000000000d7d4 g     F .text	00000000000000cc lib_checkbase
0000000000006998 g     F .text	0000000000000124 cmd_cd
000000000000f11e g     O .rodata	0000000000000019 g_fmtnomatching
000000000000d9cc g     F .text	0000000000000028 lib_nulloutstream
000000000000aa04 g     F .text	0000000000000254 cmd_uname
000000000000698c g     F .text	000000000000000c nsh_freefullpath
0000000000005ef4 g     F .text	000000000000009c cmd_xd
0000000000008130 g     F .text	0000000000000260 cmd_ls
00000000000002c8 g       .data	0000000000000000 _edata
0000000000002798 g     F .text	0000000000000004 nxrmutex_is_hold
000000000000cea0 g     F .text	0000000000000050 posix_spawn_file_actions_destroy
000000000000b66c g     F .text	0000000000000034 zalloc
000000000000cf7c g     F .text	0000000000000068 nx_asprintf
000000000000279c g     F .text	0000000000000010 nxrmutex_is_recursive
00000000000096d0 g     F .text	0000000000000054 cmd_df
000000000000a154 g     F .text	0000000000000150 cmd_ps
0000000000008930 g     F .text	00000000000001f8 cmd_cmp
0000000000002b9c g     F .text	0000000000000024 sem_getvalue
0000000000002b04 g     F .text	0000000000000048 nxsem_set_protocol
000000000000c510 g     F .text	0000000000000004 mm_uninitialize
0000000000005d7c g     F .text	0000000000000178 nsh_dumpbuffer
000000000000206c g     F .text	0000000000000038 exit
000000000000b0c4 g     F .text	000000000000006c cmd_lbracket
0000000000006abc g     F .text	00000000000002a8 cmd_echo
00000000000030ec g     F .text	00000000000001c0 nsh_session
0000000000001db8 g     F .text	0000000000000074 lib_sprintf_internal
000000000000e0dc g     F .text	0000000000000014 getoptindp
00000000000002c8 g       .ctors	0000000000000000 _ectors
000000000000d2d0 g     F .text	0000000000000018 atoi
000000000000ca28 g     F .text	0000000000000010 iscntrl
000000000000f15e g     O .rodata	0000000000000017 g_fmtsyntax
0000000000000811 g       *ABS*	0000000000000000 _stdata
0000000000009344 g     F .text	00000000000000e8 nsh_foreach_direntry
000000000000f025 g     O .rodata	0000000000000018 g_fmtcmdoutofmemory
000000000000dcf0 g     F .text	0000000000000034 vsyslog
000000000000c568 g     F .text	000000000000000c mm_lock_irq
0000000000002cb0 g     F .text	0000000000000084 lib_flushall
0000000000002ec0 g     F .text	0000000000000014 _exit
000000000000de44 g     F .text	000000000000000c gmtime
0000000000002810 g     F .text	0000000000000058 nxrmutex_trylock
0000000000000000 g       .text	0000000000000000 _stext
0000000000000940 g     F .text	0000000000000140 strlen
000000000000eca8 g     O .rodata	0000000000000048 g_dtoa_scale_down
000000000000e9c0 g     F .text	0000000000000040 open
000000000000f0e6 g     O .rodata	000000000000001d g_fmtargrange
0000000000000f60 g     F .text	0000000000000064 vdprintf
0000000000002444 g     F .text	0000000000000010 __assert
000000000000059c g     F .text	00000000000000dc strchr
000000000000d384 g     F .text	00000000000001e8 lib_realpath
00000000000099f4 g     F .text	0000000000000174 cmd_printf
000000000000cafc g     F .text	0000000000000048 closedir
0000000000002400 g     F .text	000000000000002c lib_bufferedoutstream
000000000000d1d4 g     F .text	00000000000000fc vasprintf
000000000000ea50 g     F .text	0000000000000020 pthread_join
000000000000e7ec g     F .text	0000000000000028 clock_nanosleep
000000000000a0cc g     F .text	0000000000000088 cmd_exec
0000000000006f58 g     F .text	0000000000000060 cmd_unset
0000000000000811 g       *ABS*	0000000000000000 _etdata
000000000000ddc8 g     F .text	0000000000000048 tcsetattr
000000000000e950 g     F .text	0000000000000020 mkdir
000000000000029c g     O .data	0000000000000001 g_syslog_mask
000000000000e814 g     F .text	0000000000000018 close
000000000000efec g     O .rodata	0000000000000020 g_fmtsignalrecvd
00000000000095a4 g     F .text	000000000000012c cmd_memdump
000000000000cf74 g     F .text	0000000000000008 posix_spawnattr_destroy
00000000000088a4 g     F .text	0000000000000080 cmd_rmdir
000000000000e554 g     F .text	000000000000026c getopt_common
000000000000b598 g     F .text	0000000000000010 free
000000000002b5d6 g       .rodata	0000000000000000 _erodata
00000000000002a0 g     O .data	0000000000000028 g_getopt_vars



Disassembly of section .text:

0000000000000000 <memcpy>:
memcpy():
       0:	f9800020 	prfm	pldl1keep, [x1]
       4:	8b020024 	add	x4, x1, x2
       8:	8b020005 	add	x5, x0, x2
       c:	f100405f 	cmp	x2, #0x10
      10:	54000209 	b.ls	50 <memcpy+0x50>  // b.plast
      14:	f101805f 	cmp	x2, #0x60
      18:	54000648 	b.hi	e0 <memcpy+0xe0>  // b.pmore
      1c:	d1000449 	sub	x9, x2, #0x1
      20:	a9401c26 	ldp	x6, x7, [x1]
      24:	37300469 	tbnz	w9, #6, b0 <memcpy+0xb0>
      28:	a97f348c 	ldp	x12, x13, [x4, #-16]
      2c:	362800a9 	tbz	w9, #5, 40 <memcpy+0x40>
      30:	a9412428 	ldp	x8, x9, [x1, #16]
      34:	a97e2c8a 	ldp	x10, x11, [x4, #-32]
      38:	a9012408 	stp	x8, x9, [x0, #16]
      3c:	a93e2caa 	stp	x10, x11, [x5, #-32]
      40:	a9001c06 	stp	x6, x7, [x0]
      44:	a93f34ac 	stp	x12, x13, [x5, #-16]
      48:	d65f03c0 	ret
      4c:	d503201f 	nop
      50:	f100205f 	cmp	x2, #0x8
      54:	540000e3 	b.cc	70 <memcpy+0x70>  // b.lo, b.ul, b.last
      58:	f9400026 	ldr	x6, [x1]
      5c:	f85f8087 	ldur	x7, [x4, #-8]
      60:	f9000006 	str	x6, [x0]
      64:	f81f80a7 	stur	x7, [x5, #-8]
      68:	d65f03c0 	ret
      6c:	d503201f 	nop
      70:	361000c2 	tbz	w2, #2, 88 <memcpy+0x88>
      74:	b9400026 	ldr	w6, [x1]
      78:	b85fc087 	ldur	w7, [x4, #-4]
      7c:	b9000006 	str	w6, [x0]
      80:	b81fc0a7 	stur	w7, [x5, #-4]
      84:	d65f03c0 	ret
      88:	b4000102 	cbz	x2, a8 <memcpy+0xa8>
      8c:	d341fc49 	lsr	x9, x2, #1
      90:	39400026 	ldrb	w6, [x1]
      94:	385ff087 	ldurb	w7, [x4, #-1]
      98:	38696828 	ldrb	w8, [x1, x9]
      9c:	39000006 	strb	w6, [x0]
      a0:	38296808 	strb	w8, [x0, x9]
      a4:	381ff0a7 	sturb	w7, [x5, #-1]
      a8:	d65f03c0 	ret
      ac:	d503201f 	nop
      b0:	a9412428 	ldp	x8, x9, [x1, #16]
      b4:	a9422c2a 	ldp	x10, x11, [x1, #32]
      b8:	a943342c 	ldp	x12, x13, [x1, #48]
      bc:	a97e0881 	ldp	x1, x2, [x4, #-32]
      c0:	a97f0c84 	ldp	x4, x3, [x4, #-16]
      c4:	a9001c06 	stp	x6, x7, [x0]
      c8:	a9012408 	stp	x8, x9, [x0, #16]
      cc:	a9022c0a 	stp	x10, x11, [x0, #32]
      d0:	a903340c 	stp	x12, x13, [x0, #48]
      d4:	a93e08a1 	stp	x1, x2, [x5, #-32]
      d8:	a93f0ca4 	stp	x4, x3, [x5, #-16]
      dc:	d65f03c0 	ret
      e0:	92400c09 	and	x9, x0, #0xf
      e4:	927cec03 	and	x3, x0, #0xfffffffffffffff0
      e8:	a940342c 	ldp	x12, x13, [x1]
      ec:	cb090021 	sub	x1, x1, x9
      f0:	8b090042 	add	x2, x2, x9
      f4:	a9411c26 	ldp	x6, x7, [x1, #16]
      f8:	a900340c 	stp	x12, x13, [x0]
      fc:	a9422428 	ldp	x8, x9, [x1, #32]
     100:	a9432c2a 	ldp	x10, x11, [x1, #48]
     104:	a9c4342c 	ldp	x12, x13, [x1, #64]!
     108:	f1024042 	subs	x2, x2, #0x90
     10c:	54000169 	b.ls	138 <memcpy+0x138>  // b.plast
     110:	a9011c66 	stp	x6, x7, [x3, #16]
     114:	a9411c26 	ldp	x6, x7, [x1, #16]
     118:	a9022468 	stp	x8, x9, [x3, #32]
     11c:	a9422428 	ldp	x8, x9, [x1, #32]
     120:	a9032c6a 	stp	x10, x11, [x3, #48]
     124:	a9432c2a 	ldp	x10, x11, [x1, #48]
     128:	a984346c 	stp	x12, x13, [x3, #64]!
     12c:	a9c4342c 	ldp	x12, x13, [x1, #64]!
     130:	f1010042 	subs	x2, x2, #0x40
     134:	54fffee8 	b.hi	110 <memcpy+0x110>  // b.pmore
     138:	a97c0881 	ldp	x1, x2, [x4, #-64]
     13c:	a9011c66 	stp	x6, x7, [x3, #16]
     140:	a97d1c86 	ldp	x6, x7, [x4, #-48]
     144:	a9022468 	stp	x8, x9, [x3, #32]
     148:	a97e2488 	ldp	x8, x9, [x4, #-32]
     14c:	a9032c6a 	stp	x10, x11, [x3, #48]
     150:	a97f2c8a 	ldp	x10, x11, [x4, #-16]
     154:	a904346c 	stp	x12, x13, [x3, #64]
     158:	a93c08a1 	stp	x1, x2, [x5, #-64]
     15c:	a93d1ca6 	stp	x6, x7, [x5, #-48]
     160:	a93e24a8 	stp	x8, x9, [x5, #-32]
     164:	a93f2caa 	stp	x10, x11, [x5, #-16]
     168:	d65f03c0 	ret
	...
     180:	d503201f 	nop
     184:	d503201f 	nop
     188:	d503201f 	nop
     18c:	d503201f 	nop
     190:	d503201f 	nop
     194:	d503201f 	nop
     198:	d503201f 	nop
     19c:	aa0103e0 	mov	x0, x1
     1a0:	d65f03c0 	ret

00000000000001a4 <strnlen>:
strnlen():
     1a4:	b4ffffc1 	cbz	x1, 19c <memcpy+0x19c>
     1a8:	b200c3ec 	mov	x12, #0x101010101010101     	// #72340172838076673
     1ac:	927cec02 	and	x2, x0, #0xfffffffffffffff0
     1b0:	f2400c08 	ands	x8, x0, #0xf
     1b4:	54000361 	b.ne	220 <strnlen+0x7c>  // b.any
     1b8:	d100042e 	sub	x14, x1, #0x1
     1bc:	d344fdce 	lsr	x14, x14, #4
     1c0:	a8c11043 	ldp	x3, x4, [x2], #16
     1c4:	cb0c0068 	sub	x8, x3, x12
     1c8:	b200d869 	orr	x9, x3, #0x7f7f7f7f7f7f7f7f
     1cc:	cb0c008a 	sub	x10, x4, x12
     1d0:	b200d88b 	orr	x11, x4, #0x7f7f7f7f7f7f7f7f
     1d4:	8a290106 	bic	x6, x8, x9
     1d8:	8a2b0147 	bic	x7, x10, x11
     1dc:	f10005ce 	subs	x14, x14, #0x1
     1e0:	aa0700c8 	orr	x8, x6, x7
     1e4:	fa405900 	ccmp	x8, #0x0, #0x0, pl	// pl = nfrst
     1e8:	54fffec0 	b.eq	1c0 <strnlen+0x1c>  // b.none
     1ec:	aa0700c8 	orr	x8, x6, x7
     1f0:	b4fffd68 	cbz	x8, 19c <memcpy+0x19c>
     1f4:	cb000040 	sub	x0, x2, x0
     1f8:	b4000066 	cbz	x6, 204 <strnlen+0x60>
     1fc:	d1002000 	sub	x0, x0, #0x8
     200:	aa0603e7 	mov	x7, x6
     204:	d1002000 	sub	x0, x0, #0x8
     208:	dac00ce7 	rev	x7, x7
     20c:	dac010ed 	clz	x13, x7
     210:	8b4d0c00 	add	x0, x0, x13, lsr #3
     214:	eb01001f 	cmp	x0, x1
     218:	9a819000 	csel	x0, x0, x1, ls	// ls = plast
     21c:	d65f03c0 	ret
     220:	d100042e 	sub	x14, x1, #0x1
     224:	cb0803eb 	neg	x11, x8
     228:	f100211f 	cmp	x8, #0x8
     22c:	92400dca 	and	x10, x14, #0xf
     230:	d344fdce 	lsr	x14, x14, #4
     234:	92800009 	mov	x9, #0xffffffffffffffff    	// #-1
     238:	a8c11043 	ldp	x3, x4, [x2], #16
     23c:	d37df16b 	lsl	x11, x11, #3
     240:	8b08014a 	add	x10, x10, x8
     244:	9acb2529 	lsr	x9, x9, x11
     248:	8b4a11ce 	add	x14, x14, x10, lsr #4
     24c:	aa090063 	orr	x3, x3, x9
     250:	aa090085 	orr	x5, x4, x9
     254:	da9fd063 	csinv	x3, x3, xzr, le
     258:	9a85d084 	csel	x4, x4, x5, le
     25c:	17ffffda 	b	1c4 <strnlen+0x20>
	...

0000000000000280 <memcmp>:
memcmp():
     280:	f1002042 	subs	x2, x2, #0x8
     284:	54000663 	b.cc	350 <memcmp+0xd0>  // b.lo, b.ul, b.last
     288:	f8408403 	ldr	x3, [x0], #8
     28c:	f8408425 	ldr	x5, [x1], #8
     290:	eb05007f 	cmp	x3, x5
     294:	54000501 	b.ne	334 <memcmp+0xb4>  // b.any
     298:	f1002042 	subs	x2, x2, #0x8
     29c:	5400008c 	b.gt	2ac <memcmp+0x2c>
     2a0:	f8626803 	ldr	x3, [x0, x2]
     2a4:	f8626825 	ldr	x5, [x1, x2]
     2a8:	14000023 	b	334 <memcmp+0xb4>
     2ac:	f8408403 	ldr	x3, [x0], #8
     2b0:	f8408425 	ldr	x5, [x1], #8
     2b4:	eb05007f 	cmp	x3, x5
     2b8:	540003e1 	b.ne	334 <memcmp+0xb4>  // b.any
     2bc:	f1004042 	subs	x2, x2, #0x10
     2c0:	54000289 	b.ls	310 <memcmp+0x90>  // b.plast
     2c4:	f101805f 	cmp	x2, #0x60
     2c8:	540000c9 	b.ls	2e0 <memcmp+0x60>  // b.plast
     2cc:	92400c07 	and	x7, x0, #0xf
     2d0:	8b070042 	add	x2, x2, x7
     2d4:	cb070000 	sub	x0, x0, x7
     2d8:	cb070021 	sub	x1, x1, x7
     2dc:	d503201f 	nop
     2e0:	a8c11003 	ldp	x3, x4, [x0], #16
     2e4:	a8c11825 	ldp	x5, x6, [x1], #16
     2e8:	f1004042 	subs	x2, x2, #0x10
     2ec:	fa458060 	ccmp	x3, x5, #0x0, hi	// hi = pmore
     2f0:	fa460080 	ccmp	x4, x6, #0x0, eq	// eq = none
     2f4:	54ffff60 	b.eq	2e0 <memcmp+0x60>  // b.none
     2f8:	eb05007f 	cmp	x3, x5
     2fc:	540001c1 	b.ne	334 <memcmp+0xb4>  // b.any
     300:	aa0403e3 	mov	x3, x4
     304:	aa0603e5 	mov	x5, x6
     308:	eb05007f 	cmp	x3, x5
     30c:	54000141 	b.ne	334 <memcmp+0xb4>  // b.any
     310:	8b020000 	add	x0, x0, x2
     314:	8b020021 	add	x1, x1, x2
     318:	a9401003 	ldp	x3, x4, [x0]
     31c:	a9401825 	ldp	x5, x6, [x1]
     320:	eb05007f 	cmp	x3, x5
     324:	54000081 	b.ne	334 <memcmp+0xb4>  // b.any
     328:	aa0403e3 	mov	x3, x4
     32c:	aa0603e5 	mov	x5, x6
     330:	eb05007f 	cmp	x3, x5
     334:	dac00c63 	rev	x3, x3
     338:	dac00ca5 	rev	x5, x5
     33c:	eb05007f 	cmp	x3, x5
     340:	1a9f07e0 	cset	w0, ne	// ne = any
     344:	5a802400 	cneg	w0, w0, cc	// cc = lo, ul, last
     348:	d65f03c0 	ret
     34c:	d503201f 	nop
     350:	b1001042 	adds	x2, x2, #0x4
     354:	540000c3 	b.cc	36c <memcmp+0xec>  // b.lo, b.ul, b.last
     358:	b8404403 	ldr	w3, [x0], #4
     35c:	b8404425 	ldr	w5, [x1], #4
     360:	6b05007f 	cmp	w3, w5
     364:	54fffe81 	b.ne	334 <memcmp+0xb4>  // b.any
     368:	d1001042 	sub	x2, x2, #0x4
     36c:	b1001042 	adds	x2, x2, #0x4
     370:	54fffe80 	b.eq	340 <memcmp+0xc0>  // b.none
     374:	38401403 	ldrb	w3, [x0], #1
     378:	38401425 	ldrb	w5, [x1], #1
     37c:	f1000442 	subs	x2, x2, #0x1
     380:	7a451060 	ccmp	w3, w5, #0x0, ne	// ne = any
     384:	54ffff80 	b.eq	374 <memcmp+0xf4>  // b.none
     388:	4b050060 	sub	w0, w3, w5
     38c:	d65f03c0 	ret
	...

00000000000003c0 <memset>:
memset():
     3c0:	4e010c20 	dup	v0.16b, w1
     3c4:	8b020004 	add	x4, x0, x2
     3c8:	f101805f 	cmp	x2, #0x60
     3cc:	540003c8 	b.hi	444 <memset+0x84>  // b.pmore
     3d0:	f100405f 	cmp	x2, #0x10
     3d4:	54000202 	b.cs	414 <memset+0x54>  // b.hs, b.nlast
     3d8:	4e083c01 	mov	x1, v0.d[0]
     3dc:	361800a2 	tbz	w2, #3, 3f0 <memset+0x30>
     3e0:	f9000001 	str	x1, [x0]
     3e4:	f81f8081 	stur	x1, [x4, #-8]
     3e8:	d65f03c0 	ret
     3ec:	d503201f 	nop
     3f0:	36100082 	tbz	w2, #2, 400 <memset+0x40>
     3f4:	b9000001 	str	w1, [x0]
     3f8:	b81fc081 	stur	w1, [x4, #-4]
     3fc:	d65f03c0 	ret
     400:	b4000082 	cbz	x2, 410 <memset+0x50>
     404:	39000001 	strb	w1, [x0]
     408:	36080042 	tbz	w2, #1, 410 <memset+0x50>
     40c:	781fe081 	sturh	w1, [x4, #-2]
     410:	d65f03c0 	ret
     414:	3d800000 	str	q0, [x0]
     418:	373000c2 	tbnz	w2, #6, 430 <memset+0x70>
     41c:	3c9f0080 	stur	q0, [x4, #-16]
     420:	36280062 	tbz	w2, #5, 42c <memset+0x6c>
     424:	3d800400 	str	q0, [x0, #16]
     428:	3c9e0080 	stur	q0, [x4, #-32]
     42c:	d65f03c0 	ret
     430:	3d800400 	str	q0, [x0, #16]
     434:	ad010000 	stp	q0, q0, [x0, #32]
     438:	ad3f0080 	stp	q0, q0, [x4, #-32]
     43c:	d65f03c0 	ret
     440:	d503201f 	nop
     444:	12001c21 	and	w1, w1, #0xff
     448:	927cec03 	and	x3, x0, #0xfffffffffffffff0
     44c:	3d800000 	str	q0, [x0]
     450:	f104005f 	cmp	x2, #0x100
     454:	7a402820 	ccmp	w1, #0x0, #0x0, cs	// cs = hs, nlast
     458:	54000180 	b.eq	488 <memset+0xc8>  // b.none
     45c:	cb030082 	sub	x2, x4, x3
     460:	d1004063 	sub	x3, x3, #0x10
     464:	d1014042 	sub	x2, x2, #0x50
     468:	ad010060 	stp	q0, q0, [x3, #32]
     46c:	ad820060 	stp	q0, q0, [x3, #64]!
     470:	f1010042 	subs	x2, x2, #0x40
     474:	54ffffa8 	b.hi	468 <memset+0xa8>  // b.pmore
     478:	ad3e0080 	stp	q0, q0, [x4, #-64]
     47c:	ad3f0080 	stp	q0, q0, [x4, #-32]
     480:	d65f03c0 	ret
     484:	d503201f 	nop
     488:	d53b00e5 	mrs	x5, dczid_el0
     48c:	3727fe85 	tbnz	w5, #4, 45c <memset+0x9c>
     490:	12000ca5 	and	w5, w5, #0xf
     494:	710010bf 	cmp	w5, #0x4
     498:	54000281 	b.ne	4e8 <memset+0x128>  // b.any
     49c:	3d800460 	str	q0, [x3, #16]
     4a0:	ad010060 	stp	q0, q0, [x3, #32]
     4a4:	927ae463 	and	x3, x3, #0xffffffffffffffc0
     4a8:	ad020060 	stp	q0, q0, [x3, #64]
     4ac:	ad030060 	stp	q0, q0, [x3, #96]
     4b0:	cb030082 	sub	x2, x4, x3
     4b4:	d1040042 	sub	x2, x2, #0x100
     4b8:	91020063 	add	x3, x3, #0x80
     4bc:	d503201f 	nop
     4c0:	d50b7423 	dc	zva, x3
     4c4:	91010063 	add	x3, x3, #0x40
     4c8:	f1010042 	subs	x2, x2, #0x40
     4cc:	54ffffa8 	b.hi	4c0 <memset+0x100>  // b.pmore
     4d0:	ad000060 	stp	q0, q0, [x3]
     4d4:	ad010060 	stp	q0, q0, [x3, #32]
     4d8:	ad3e0080 	stp	q0, q0, [x4, #-64]
     4dc:	ad3f0080 	stp	q0, q0, [x4, #-32]
     4e0:	d65f03c0 	ret
     4e4:	d503201f 	nop
     4e8:	710014bf 	cmp	w5, #0x5
     4ec:	54000241 	b.ne	534 <memset+0x174>  // b.any
     4f0:	3d800460 	str	q0, [x3, #16]
     4f4:	ad010060 	stp	q0, q0, [x3, #32]
     4f8:	ad020060 	stp	q0, q0, [x3, #64]
     4fc:	ad030060 	stp	q0, q0, [x3, #96]
     500:	9279e063 	and	x3, x3, #0xffffffffffffff80
     504:	cb030082 	sub	x2, x4, x3
     508:	d1040042 	sub	x2, x2, #0x100
     50c:	91020063 	add	x3, x3, #0x80
     510:	d50b7423 	dc	zva, x3
     514:	91020063 	add	x3, x3, #0x80
     518:	f1020042 	subs	x2, x2, #0x80
     51c:	54ffffa8 	b.hi	510 <memset+0x150>  // b.pmore
     520:	ad3c0080 	stp	q0, q0, [x4, #-128]
     524:	ad3d0080 	stp	q0, q0, [x4, #-96]
     528:	ad3e0080 	stp	q0, q0, [x4, #-64]
     52c:	ad3f0080 	stp	q0, q0, [x4, #-32]
     530:	d65f03c0 	ret
     534:	52800086 	mov	w6, #0x4                   	// #4
     538:	1ac520c7 	lsl	w7, w6, w5
     53c:	910100e5 	add	x5, x7, #0x40
     540:	eb05005f 	cmp	x2, x5
     544:	54fff8c3 	b.cc	45c <memset+0x9c>  // b.lo, b.ul, b.last
     548:	d10004e6 	sub	x6, x7, #0x1
     54c:	8b070065 	add	x5, x3, x7
     550:	91004063 	add	x3, x3, #0x10
     554:	eb0300a2 	subs	x2, x5, x3
     558:	8a2600a5 	bic	x5, x5, x6
     55c:	540000a0 	b.eq	570 <memset+0x1b0>  // b.none
     560:	ac820060 	stp	q0, q0, [x3], #64
     564:	ad3f0060 	stp	q0, q0, [x3, #-32]
     568:	f1010042 	subs	x2, x2, #0x40
     56c:	54ffffa8 	b.hi	560 <memset+0x1a0>  // b.pmore
     570:	aa0503e3 	mov	x3, x5
     574:	cb050082 	sub	x2, x4, x5
     578:	eb070042 	subs	x2, x2, x7
     57c:	540000a3 	b.cc	590 <memset+0x1d0>  // b.lo, b.ul, b.last
     580:	d50b7423 	dc	zva, x3
     584:	8b070063 	add	x3, x3, x7
     588:	eb070042 	subs	x2, x2, x7
     58c:	54ffffa2 	b.cs	580 <memset+0x1c0>  // b.hs, b.nlast
     590:	8b070042 	add	x2, x2, x7
     594:	d1008063 	sub	x3, x3, #0x20
     598:	17ffffb6 	b	470 <memset+0xb0>

000000000000059c <strchr>:
strchr():
     59c:	52808024 	mov	w4, #0x401                 	// #1025
     5a0:	72a80204 	movk	w4, #0x4010, lsl #16
     5a4:	4e010c20 	dup	v0.16b, w1
     5a8:	927be802 	and	x2, x0, #0xffffffffffffffe0
     5ac:	4e040c90 	dup	v16.4s, w4
     5b0:	f2401003 	ands	x3, x0, #0x1f
     5b4:	4eb08607 	add	v7.4s, v16.4s, v16.4s
     5b8:	540002a0 	b.eq	60c <strchr+0x70>  // b.none
     5bc:	4cdfa041 	ld1	{v1.16b-v2.16b}, [x2], #32
     5c0:	cb0303e3 	neg	x3, x3
     5c4:	4e209823 	cmeq	v3.16b, v1.16b, #0
     5c8:	6e208c25 	cmeq	v5.16b, v1.16b, v0.16b
     5cc:	4e209844 	cmeq	v4.16b, v2.16b, #0
     5d0:	6e208c46 	cmeq	v6.16b, v2.16b, v0.16b
     5d4:	4e271c63 	and	v3.16b, v3.16b, v7.16b
     5d8:	4e271c84 	and	v4.16b, v4.16b, v7.16b
     5dc:	4e301ca5 	and	v5.16b, v5.16b, v16.16b
     5e0:	4e301cc6 	and	v6.16b, v6.16b, v16.16b
     5e4:	4ea51c71 	orr	v17.16b, v3.16b, v5.16b
     5e8:	4ea61c92 	orr	v18.16b, v4.16b, v6.16b
     5ec:	d37ff863 	lsl	x3, x3, #1
     5f0:	4e32be31 	addp	v17.16b, v17.16b, v18.16b
     5f4:	92800005 	mov	x5, #0xffffffffffffffff    	// #-1
     5f8:	4e32be31 	addp	v17.16b, v17.16b, v18.16b
     5fc:	9ac324a3 	lsr	x3, x5, x3
     600:	4e083e25 	mov	x5, v17.d[0]
     604:	8a2300a3 	bic	x3, x5, x3
     608:	b50002a3 	cbnz	x3, 65c <strchr+0xc0>
     60c:	4cdfa041 	ld1	{v1.16b-v2.16b}, [x2], #32
     610:	4e209823 	cmeq	v3.16b, v1.16b, #0
     614:	6e208c25 	cmeq	v5.16b, v1.16b, v0.16b
     618:	4e209844 	cmeq	v4.16b, v2.16b, #0
     61c:	6e208c46 	cmeq	v6.16b, v2.16b, v0.16b
     620:	4ea51c71 	orr	v17.16b, v3.16b, v5.16b
     624:	4ea61c92 	orr	v18.16b, v4.16b, v6.16b
     628:	4eb21e31 	orr	v17.16b, v17.16b, v18.16b
     62c:	4ef1be31 	addp	v17.2d, v17.2d, v17.2d
     630:	4e083e23 	mov	x3, v17.d[0]
     634:	b4fffec3 	cbz	x3, 60c <strchr+0x70>
     638:	4e271c63 	and	v3.16b, v3.16b, v7.16b
     63c:	4e271c84 	and	v4.16b, v4.16b, v7.16b
     640:	4e301ca5 	and	v5.16b, v5.16b, v16.16b
     644:	4e301cc6 	and	v6.16b, v6.16b, v16.16b
     648:	4ea51c71 	orr	v17.16b, v3.16b, v5.16b
     64c:	4ea61c92 	orr	v18.16b, v4.16b, v6.16b
     650:	4e32be31 	addp	v17.16b, v17.16b, v18.16b
     654:	4e32be31 	addp	v17.16b, v17.16b, v18.16b
     658:	4e083e23 	mov	x3, v17.d[0]
     65c:	dac00063 	rbit	x3, x3
     660:	d1008042 	sub	x2, x2, #0x20
     664:	dac01063 	clz	x3, x3
     668:	f240007f 	tst	x3, #0x1
     66c:	8b430440 	add	x0, x2, x3, lsr #1
     670:	9a9f0000 	csel	x0, x0, xzr, eq	// eq = none
     674:	d65f03c0 	ret
	...

0000000000000680 <strcmp>:
strcmp():
     680:	ca010007 	eor	x7, x0, x1
     684:	b200c3ea 	mov	x10, #0x101010101010101     	// #72340172838076673
     688:	f24008ff 	tst	x7, #0x7
     68c:	540003e1 	b.ne	708 <strcmp+0x88>  // b.any
     690:	f2400807 	ands	x7, x0, #0x7
     694:	54000241 	b.ne	6dc <strcmp+0x5c>  // b.any
     698:	f8408402 	ldr	x2, [x0], #8
     69c:	f8408423 	ldr	x3, [x1], #8
     6a0:	cb0a0047 	sub	x7, x2, x10
     6a4:	b200d848 	orr	x8, x2, #0x7f7f7f7f7f7f7f7f
     6a8:	ca030045 	eor	x5, x2, x3
     6ac:	8a2800e4 	bic	x4, x7, x8
     6b0:	aa0400a6 	orr	x6, x5, x4
     6b4:	b4ffff26 	cbz	x6, 698 <strcmp+0x18>
     6b8:	dac00cc6 	rev	x6, x6
     6bc:	dac00c42 	rev	x2, x2
     6c0:	dac010cb 	clz	x11, x6
     6c4:	dac00c63 	rev	x3, x3
     6c8:	9acb2042 	lsl	x2, x2, x11
     6cc:	9acb2063 	lsl	x3, x3, x11
     6d0:	d378fc42 	lsr	x2, x2, #56
     6d4:	cb43e040 	sub	x0, x2, x3, lsr #56
     6d8:	d65f03c0 	ret
     6dc:	927df000 	and	x0, x0, #0xfffffffffffffff8
     6e0:	927df021 	and	x1, x1, #0xfffffffffffffff8
     6e4:	d37df0e7 	lsl	x7, x7, #3
     6e8:	f8408402 	ldr	x2, [x0], #8
     6ec:	cb0703e7 	neg	x7, x7
     6f0:	f8408423 	ldr	x3, [x1], #8
     6f4:	92800008 	mov	x8, #0xffffffffffffffff    	// #-1
     6f8:	9ac72508 	lsr	x8, x8, x7
     6fc:	aa080042 	orr	x2, x2, x8
     700:	aa080063 	orr	x3, x3, x8
     704:	17ffffe7 	b	6a0 <strcmp+0x20>
     708:	f240081f 	tst	x0, #0x7
     70c:	54000100 	b.eq	72c <strcmp+0xac>  // b.none
     710:	38401402 	ldrb	w2, [x0], #1
     714:	38401423 	ldrb	w3, [x1], #1
     718:	7100045f 	cmp	w2, #0x1
     71c:	7a432040 	ccmp	w2, w3, #0x0, cs	// cs = hs, nlast
     720:	540001e1 	b.ne	75c <strcmp+0xdc>  // b.any
     724:	f240081f 	tst	x0, #0x7
     728:	54ffff41 	b.ne	710 <strcmp+0x90>  // b.any
     72c:	927d2027 	and	x7, x1, #0xff8
     730:	d27d20e7 	eor	x7, x7, #0xff8
     734:	b4fffee7 	cbz	x7, 710 <strcmp+0x90>
     738:	f8408402 	ldr	x2, [x0], #8
     73c:	f8408423 	ldr	x3, [x1], #8
     740:	cb0a0047 	sub	x7, x2, x10
     744:	b200d848 	orr	x8, x2, #0x7f7f7f7f7f7f7f7f
     748:	ca030045 	eor	x5, x2, x3
     74c:	8a2800e4 	bic	x4, x7, x8
     750:	aa0400a6 	orr	x6, x5, x4
     754:	b4fffec6 	cbz	x6, 72c <strcmp+0xac>
     758:	17ffffd8 	b	6b8 <strcmp+0x38>
     75c:	cb030040 	sub	x0, x2, x3
     760:	d65f03c0 	ret
	...

0000000000000780 <strcpy>:
strcpy():
     780:	92402c29 	and	x9, x1, #0xfff
     784:	b200c3ec 	mov	x12, #0x101010101010101     	// #72340172838076673
     788:	92400c31 	and	x17, x1, #0xf
     78c:	f13fc13f 	cmp	x9, #0xff0
     790:	cb1103e8 	neg	x8, x17
     794:	540008cc 	b.gt	8ac <strcpy+0x12c>
     798:	a9401424 	ldp	x4, x5, [x1]
     79c:	cb0c0088 	sub	x8, x4, x12
     7a0:	b200d889 	orr	x9, x4, #0x7f7f7f7f7f7f7f7f
     7a4:	ea290106 	bics	x6, x8, x9
     7a8:	540001c1 	b.ne	7e0 <strcpy+0x60>  // b.any
     7ac:	cb0c00aa 	sub	x10, x5, x12
     7b0:	b200d8ab 	orr	x11, x5, #0x7f7f7f7f7f7f7f7f
     7b4:	ea2b0147 	bics	x7, x10, x11
     7b8:	54000440 	b.eq	840 <strcpy+0xc0>  // b.none
     7bc:	dac00ce7 	rev	x7, x7
     7c0:	dac010ef 	clz	x15, x7
     7c4:	d2800709 	mov	x9, #0x38                  	// #56
     7c8:	8b4f0c03 	add	x3, x0, x15, lsr #3
     7cc:	cb0f012f 	sub	x15, x9, x15
     7d0:	9acf20a5 	lsl	x5, x5, x15
     7d4:	f8001065 	stur	x5, [x3, #1]
     7d8:	f9000004 	str	x4, [x0]
     7dc:	d65f03c0 	ret
     7e0:	dac00cc6 	rev	x6, x6
     7e4:	dac010cf 	clz	x15, x6
     7e8:	8b4f0c03 	add	x3, x0, x15, lsr #3
     7ec:	f10061e9 	subs	x9, x15, #0x18
     7f0:	540000ab 	b.lt	804 <strcpy+0x84>  // b.tstop
     7f4:	9ac92485 	lsr	x5, x4, x9
     7f8:	b81fd065 	stur	w5, [x3, #-3]
     7fc:	b9000004 	str	w4, [x0]
     800:	d65f03c0 	ret
     804:	b400004f 	cbz	x15, 80c <strcpy+0x8c>
     808:	79000004 	strh	w4, [x0]
     80c:	3900007f 	strb	wzr, [x3]
     810:	d65f03c0 	ret
     814:	d503201f 	nop
     818:	d503201f 	nop
     81c:	d503201f 	nop
     820:	d503201f 	nop
     824:	d503201f 	nop
     828:	d503201f 	nop
     82c:	d503201f 	nop
     830:	d503201f 	nop
     834:	d503201f 	nop
     838:	d503201f 	nop
     83c:	d503201f 	nop
     840:	d1004231 	sub	x17, x17, #0x10
     844:	a9001404 	stp	x4, x5, [x0]
     848:	cb110022 	sub	x2, x1, x17
     84c:	cb110003 	sub	x3, x0, x17
     850:	14000002 	b	858 <strcpy+0xd8>
     854:	a8811464 	stp	x4, x5, [x3], #16
     858:	a8c11444 	ldp	x4, x5, [x2], #16
     85c:	cb0c0088 	sub	x8, x4, x12
     860:	b200d889 	orr	x9, x4, #0x7f7f7f7f7f7f7f7f
     864:	cb0c00aa 	sub	x10, x5, x12
     868:	b200d8ab 	orr	x11, x5, #0x7f7f7f7f7f7f7f7f
     86c:	8a290106 	bic	x6, x8, x9
     870:	ea2b0147 	bics	x7, x10, x11
     874:	fa4008c0 	ccmp	x6, #0x0, #0x0, eq	// eq = none
     878:	54fffee0 	b.eq	854 <strcpy+0xd4>  // b.none
     87c:	f10000df 	cmp	x6, #0x0
     880:	9a8710c6 	csel	x6, x6, x7, ne	// ne = any
     884:	dac00cc6 	rev	x6, x6
     888:	dac010cf 	clz	x15, x6
     88c:	910121e8 	add	x8, x15, #0x48
     890:	910021ef 	add	x15, x15, #0x8
     894:	9a8811ef 	csel	x15, x15, x8, ne	// ne = any
     898:	8b4f0c42 	add	x2, x2, x15, lsr #3
     89c:	8b4f0c63 	add	x3, x3, x15, lsr #3
     8a0:	a97e1444 	ldp	x4, x5, [x2, #-32]
     8a4:	a93f1464 	stp	x4, x5, [x3, #-16]
     8a8:	d65f03c0 	ret
     8ac:	927cec22 	and	x2, x1, #0xfffffffffffffff0
     8b0:	a9401444 	ldp	x4, x5, [x2]
     8b4:	d37df108 	lsl	x8, x8, #3
     8b8:	f2400a3f 	tst	x17, #0x7
     8bc:	da9f03e9 	csetm	x9, ne	// ne = any
     8c0:	9ac82529 	lsr	x9, x9, x8
     8c4:	aa090084 	orr	x4, x4, x9
     8c8:	aa0900ae 	orr	x14, x5, x9
     8cc:	f100223f 	cmp	x17, #0x8
     8d0:	da9fb084 	csinv	x4, x4, xzr, lt	// lt = tstop
     8d4:	9a8eb0a5 	csel	x5, x5, x14, lt	// lt = tstop
     8d8:	cb0c0088 	sub	x8, x4, x12
     8dc:	b200d889 	orr	x9, x4, #0x7f7f7f7f7f7f7f7f
     8e0:	cb0c00aa 	sub	x10, x5, x12
     8e4:	b200d8ab 	orr	x11, x5, #0x7f7f7f7f7f7f7f7f
     8e8:	8a290106 	bic	x6, x8, x9
     8ec:	ea2b0147 	bics	x7, x10, x11
     8f0:	fa4008c0 	ccmp	x6, #0x0, #0x0, eq	// eq = none
     8f4:	54fff520 	b.eq	798 <strcpy+0x18>  // b.none
     8f8:	d37df228 	lsl	x8, x17, #3
     8fc:	cb110fe9 	neg	x9, x17, lsl #3
     900:	9ac8248d 	lsr	x13, x4, x8
     904:	9ac920ab 	lsl	x11, x5, x9
     908:	9ac824a5 	lsr	x5, x5, x8
     90c:	aa0d016b 	orr	x11, x11, x13
     910:	f100223f 	cmp	x17, #0x8
     914:	9a85b164 	csel	x4, x11, x5, lt	// lt = tstop
     918:	cb0c0088 	sub	x8, x4, x12
     91c:	b200d889 	orr	x9, x4, #0x7f7f7f7f7f7f7f7f
     920:	cb0c00aa 	sub	x10, x5, x12
     924:	b200d8ab 	orr	x11, x5, #0x7f7f7f7f7f7f7f7f
     928:	8a290106 	bic	x6, x8, x9
     92c:	b5fff5a6 	cbnz	x6, 7e0 <strcpy+0x60>
     930:	8a2b0147 	bic	x7, x10, x11
     934:	17ffffa2 	b	7bc <strcpy+0x3c>
	...

0000000000000940 <strlen>:
strlen():
     940:	92402c04 	and	x4, x0, #0xfff
     944:	b200c3e8 	mov	x8, #0x101010101010101     	// #72340172838076673
     948:	f13fc09f 	cmp	x4, #0xff0
     94c:	5400082c 	b.gt	a50 <strlen+0x110>
     950:	a9400c02 	ldp	x2, x3, [x0]
     954:	cb080044 	sub	x4, x2, x8
     958:	b200d845 	orr	x5, x2, #0x7f7f7f7f7f7f7f7f
     95c:	cb080066 	sub	x6, x3, x8
     960:	b200d867 	orr	x7, x3, #0x7f7f7f7f7f7f7f7f
     964:	ea250084 	bics	x4, x4, x5
     968:	8a2700c5 	bic	x5, x6, x7
     96c:	fa4008a0 	ccmp	x5, #0x0, #0x0, eq	// eq = none
     970:	54000100 	b.eq	990 <strlen+0x50>  // b.none
     974:	9a853084 	csel	x4, x4, x5, cc	// cc = lo, ul, last
     978:	d2800100 	mov	x0, #0x8                   	// #8
     97c:	dac00c84 	rev	x4, x4
     980:	dac01084 	clz	x4, x4
     984:	9a8033e0 	csel	x0, xzr, x0, cc	// cc = lo, ul, last
     988:	8b440c00 	add	x0, x0, x4, lsr #3
     98c:	d65f03c0 	ret
     990:	927cec01 	and	x1, x0, #0xfffffffffffffff0
     994:	d1004021 	sub	x1, x1, #0x10
     998:	a9c20c22 	ldp	x2, x3, [x1, #32]!
     99c:	cb080044 	sub	x4, x2, x8
     9a0:	cb080066 	sub	x6, x3, x8
     9a4:	aa060085 	orr	x5, x4, x6
     9a8:	ea081cbf 	tst	x5, x8, lsl #7
     9ac:	54000101 	b.ne	9cc <strlen+0x8c>  // b.any
     9b0:	a9410c22 	ldp	x2, x3, [x1, #16]
     9b4:	cb080044 	sub	x4, x2, x8
     9b8:	cb080066 	sub	x6, x3, x8
     9bc:	aa060085 	orr	x5, x4, x6
     9c0:	ea081cbf 	tst	x5, x8, lsl #7
     9c4:	54fffea0 	b.eq	998 <strlen+0x58>  // b.none
     9c8:	91004021 	add	x1, x1, #0x10
     9cc:	b200d845 	orr	x5, x2, #0x7f7f7f7f7f7f7f7f
     9d0:	b200d867 	orr	x7, x3, #0x7f7f7f7f7f7f7f7f
     9d4:	ea250084 	bics	x4, x4, x5
     9d8:	8a2700c5 	bic	x5, x6, x7
     9dc:	fa4008a0 	ccmp	x5, #0x0, #0x0, eq	// eq = none
     9e0:	54000120 	b.eq	a04 <strlen+0xc4>  // b.none
     9e4:	9a853084 	csel	x4, x4, x5, cc	// cc = lo, ul, last
     9e8:	cb000020 	sub	x0, x1, x0
     9ec:	dac00c84 	rev	x4, x4
     9f0:	91002005 	add	x5, x0, #0x8
     9f4:	dac01084 	clz	x4, x4
     9f8:	9a853000 	csel	x0, x0, x5, cc	// cc = lo, ul, last
     9fc:	8b440c00 	add	x0, x0, x4, lsr #3
     a00:	d65f03c0 	ret
     a04:	a9c10c22 	ldp	x2, x3, [x1, #16]!
     a08:	cb080044 	sub	x4, x2, x8
     a0c:	b200d845 	orr	x5, x2, #0x7f7f7f7f7f7f7f7f
     a10:	cb080066 	sub	x6, x3, x8
     a14:	b200d867 	orr	x7, x3, #0x7f7f7f7f7f7f7f7f
     a18:	ea250084 	bics	x4, x4, x5
     a1c:	8a2700c5 	bic	x5, x6, x7
     a20:	fa4008a0 	ccmp	x5, #0x0, #0x0, eq	// eq = none
     a24:	54fffe01 	b.ne	9e4 <strlen+0xa4>  // b.any
     a28:	a9c10c22 	ldp	x2, x3, [x1, #16]!
     a2c:	cb080044 	sub	x4, x2, x8
     a30:	b200d845 	orr	x5, x2, #0x7f7f7f7f7f7f7f7f
     a34:	cb080066 	sub	x6, x3, x8
     a38:	b200d867 	orr	x7, x3, #0x7f7f7f7f7f7f7f7f
     a3c:	ea250084 	bics	x4, x4, x5
     a40:	8a2700c5 	bic	x5, x6, x7
     a44:	fa4008a0 	ccmp	x5, #0x0, #0x0, eq	// eq = none
     a48:	54fffde0 	b.eq	a04 <strlen+0xc4>  // b.none
     a4c:	17ffffe6 	b	9e4 <strlen+0xa4>
     a50:	927cec01 	and	x1, x0, #0xfffffffffffffff0
     a54:	a9400c22 	ldp	x2, x3, [x1]
     a58:	d37df004 	lsl	x4, x0, #3
     a5c:	92800007 	mov	x7, #0xffffffffffffffff    	// #-1
     a60:	9ac420e4 	lsl	x4, x7, x4
     a64:	b201c084 	orr	x4, x4, #0x8080808080808080
     a68:	aa240042 	orn	x2, x2, x4
     a6c:	aa240065 	orn	x5, x3, x4
     a70:	f27d001f 	tst	x0, #0x8
     a74:	9a870042 	csel	x2, x2, x7, eq	// eq = none
     a78:	9a850063 	csel	x3, x3, x5, eq	// eq = none
     a7c:	17ffffc8 	b	99c <strlen+0x5c>
     a80:	d503201f 	nop
     a84:	d503201f 	nop
     a88:	d503201f 	nop
     a8c:	d503201f 	nop
     a90:	d503201f 	nop
     a94:	d503201f 	nop
     a98:	d503201f 	nop

0000000000000a9c <strncmp>:
strncmp():
     a9c:	b4000d82 	cbz	x2, c4c <strncmp+0x1b0>
     aa0:	ca010008 	eor	x8, x0, x1
     aa4:	b200c3eb 	mov	x11, #0x101010101010101     	// #72340172838076673
     aa8:	f240091f 	tst	x8, #0x7
     aac:	9240080e 	and	x14, x0, #0x7
     ab0:	54000681 	b.ne	b80 <strncmp+0xe4>  // b.any
     ab4:	b500040e 	cbnz	x14, b34 <strncmp+0x98>
     ab8:	d100044d 	sub	x13, x2, #0x1
     abc:	d343fdad 	lsr	x13, x13, #3
     ac0:	f8408403 	ldr	x3, [x0], #8
     ac4:	f8408424 	ldr	x4, [x1], #8
     ac8:	f10005ad 	subs	x13, x13, #0x1
     acc:	cb0b0068 	sub	x8, x3, x11
     ad0:	b200d869 	orr	x9, x3, #0x7f7f7f7f7f7f7f7f
     ad4:	ca040066 	eor	x6, x3, x4
     ad8:	da9f50cf 	csinv	x15, x6, xzr, pl	// pl = nfrst
     adc:	ea290105 	bics	x5, x8, x9
     ae0:	fa4009e0 	ccmp	x15, #0x0, #0x0, eq	// eq = none
     ae4:	54fffee0 	b.eq	ac0 <strncmp+0x24>  // b.none
     ae8:	b6f8012d 	tbz	x13, #63, b0c <strncmp+0x70>
     aec:	f2400842 	ands	x2, x2, #0x7
     af0:	540000e0 	b.eq	b0c <strncmp+0x70>  // b.none
     af4:	d37df042 	lsl	x2, x2, #3
     af8:	9280000e 	mov	x14, #0xffffffffffffffff    	// #-1
     afc:	9ac221ce 	lsl	x14, x14, x2
     b00:	8a2e0063 	bic	x3, x3, x14
     b04:	8a2e0084 	bic	x4, x4, x14
     b08:	aa0e00a5 	orr	x5, x5, x14
     b0c:	aa0500c7 	orr	x7, x6, x5
     b10:	dac00ce7 	rev	x7, x7
     b14:	dac00c63 	rev	x3, x3
     b18:	dac010ec 	clz	x12, x7
     b1c:	dac00c84 	rev	x4, x4
     b20:	9acc2063 	lsl	x3, x3, x12
     b24:	9acc2084 	lsl	x4, x4, x12
     b28:	d378fc63 	lsr	x3, x3, #56
     b2c:	cb44e060 	sub	x0, x3, x4, lsr #56
     b30:	d65f03c0 	ret
     b34:	927df000 	and	x0, x0, #0xfffffffffffffff8
     b38:	927df021 	and	x1, x1, #0xfffffffffffffff8
     b3c:	f8408403 	ldr	x3, [x0], #8
     b40:	cb0e0fea 	neg	x10, x14, lsl #3
     b44:	f8408424 	ldr	x4, [x1], #8
     b48:	92800009 	mov	x9, #0xffffffffffffffff    	// #-1
     b4c:	d100044d 	sub	x13, x2, #0x1
     b50:	9aca2529 	lsr	x9, x9, x10
     b54:	924009aa 	and	x10, x13, #0x7
     b58:	d343fdad 	lsr	x13, x13, #3
     b5c:	8b0e0042 	add	x2, x2, x14
     b60:	8b0e014a 	add	x10, x10, x14
     b64:	aa090063 	orr	x3, x3, x9
     b68:	aa090084 	orr	x4, x4, x9
     b6c:	8b4a0dad 	add	x13, x13, x10, lsr #3
     b70:	17ffffd6 	b	ac8 <strncmp+0x2c>
     b74:	d503201f 	nop
     b78:	d503201f 	nop
     b7c:	d503201f 	nop
     b80:	f100405f 	cmp	x2, #0x10
     b84:	54000122 	b.cs	ba8 <strncmp+0x10c>  // b.hs, b.nlast
     b88:	38401403 	ldrb	w3, [x0], #1
     b8c:	38401424 	ldrb	w4, [x1], #1
     b90:	f1000442 	subs	x2, x2, #0x1
     b94:	7a418860 	ccmp	w3, #0x1, #0x0, hi	// hi = pmore
     b98:	7a442060 	ccmp	w3, w4, #0x0, cs	// cs = hs, nlast
     b9c:	54ffff60 	b.eq	b88 <strncmp+0xec>  // b.none
     ba0:	cb040060 	sub	x0, x3, x4
     ba4:	d65f03c0 	ret
     ba8:	d343fc4d 	lsr	x13, x2, #3
     bac:	b400018e 	cbz	x14, bdc <strncmp+0x140>
     bb0:	cb0e03ee 	neg	x14, x14
     bb4:	924009ce 	and	x14, x14, #0x7
     bb8:	cb0e0042 	sub	x2, x2, x14
     bbc:	d343fc4d 	lsr	x13, x2, #3
     bc0:	38401403 	ldrb	w3, [x0], #1
     bc4:	38401424 	ldrb	w4, [x1], #1
     bc8:	7100047f 	cmp	w3, #0x1
     bcc:	7a442060 	ccmp	w3, w4, #0x0, cs	// cs = hs, nlast
     bd0:	54fffe81 	b.ne	ba0 <strncmp+0x104>  // b.any
     bd4:	f10005ce 	subs	x14, x14, #0x1
     bd8:	54ffff48 	b.hi	bc0 <strncmp+0x124>  // b.pmore
     bdc:	d280010e 	mov	x14, #0x8                   	// #8
     be0:	f10005ad 	subs	x13, x13, #0x1
     be4:	540001c3 	b.cc	c1c <strncmp+0x180>  // b.lo, b.ul, b.last
     be8:	927d2029 	and	x9, x1, #0xff8
     bec:	d27d2129 	eor	x9, x9, #0xff8
     bf0:	b4fffe89 	cbz	x9, bc0 <strncmp+0x124>
     bf4:	f8408403 	ldr	x3, [x0], #8
     bf8:	f8408424 	ldr	x4, [x1], #8
     bfc:	cb0b0068 	sub	x8, x3, x11
     c00:	b200d869 	orr	x9, x3, #0x7f7f7f7f7f7f7f7f
     c04:	ca040066 	eor	x6, x3, x4
     c08:	ea290105 	bics	x5, x8, x9
     c0c:	fa4008c0 	ccmp	x6, #0x0, #0x0, eq	// eq = none
     c10:	54fff7e1 	b.ne	b0c <strncmp+0x70>  // b.any
     c14:	f10005ad 	subs	x13, x13, #0x1
     c18:	54fffe85 	b.pl	be8 <strncmp+0x14c>  // b.nfrst
     c1c:	92400842 	and	x2, x2, #0x7
     c20:	b4fff762 	cbz	x2, b0c <strncmp+0x70>
     c24:	d1002000 	sub	x0, x0, #0x8
     c28:	d1002021 	sub	x1, x1, #0x8
     c2c:	f8626803 	ldr	x3, [x0, x2]
     c30:	f8626824 	ldr	x4, [x1, x2]
     c34:	cb0b0068 	sub	x8, x3, x11
     c38:	b200d869 	orr	x9, x3, #0x7f7f7f7f7f7f7f7f
     c3c:	ca040066 	eor	x6, x3, x4
     c40:	ea290105 	bics	x5, x8, x9
     c44:	fa4008c0 	ccmp	x6, #0x0, #0x0, eq	// eq = none
     c48:	54fff621 	b.ne	b0c <strncmp+0x70>  // b.any
     c4c:	d2800000 	mov	x0, #0x0                   	// #0
     c50:	d65f03c0 	ret

0000000000000c54 <strrchr>:
strrchr():
     c54:	52808024 	mov	w4, #0x401                 	// #1025
     c58:	72a80204 	movk	w4, #0x4010, lsl #16
     c5c:	4e010c20 	dup	v0.16b, w1
     c60:	927be802 	and	x2, x0, #0xffffffffffffffe0
     c64:	4e040c90 	dup	v16.4s, w4
     c68:	d2800007 	mov	x7, #0x0                   	// #0
     c6c:	f2401003 	ands	x3, x0, #0x1f
     c70:	4eb08607 	add	v7.4s, v16.4s, v16.4s
     c74:	54000340 	b.eq	cdc <strrchr+0x88>  // b.none
     c78:	4cdfa041 	ld1	{v1.16b-v2.16b}, [x2], #32
     c7c:	cb0303e3 	neg	x3, x3
     c80:	4e209823 	cmeq	v3.16b, v1.16b, #0
     c84:	6e208c25 	cmeq	v5.16b, v1.16b, v0.16b
     c88:	4e209844 	cmeq	v4.16b, v2.16b, #0
     c8c:	6e208c46 	cmeq	v6.16b, v2.16b, v0.16b
     c90:	4e271c63 	and	v3.16b, v3.16b, v7.16b
     c94:	4e301ca5 	and	v5.16b, v5.16b, v16.16b
     c98:	4e271c84 	and	v4.16b, v4.16b, v7.16b
     c9c:	4e301cc6 	and	v6.16b, v6.16b, v16.16b
     ca0:	4e24bc63 	addp	v3.16b, v3.16b, v4.16b
     ca4:	4e26bca5 	addp	v5.16b, v5.16b, v6.16b
     ca8:	4e23bc63 	addp	v3.16b, v3.16b, v3.16b
     cac:	4e25bca5 	addp	v5.16b, v5.16b, v5.16b
     cb0:	4e083c6a 	mov	x10, v3.d[0]
     cb4:	d37ff863 	lsl	x3, x3, #1
     cb8:	92800008 	mov	x8, #0xffffffffffffffff    	// #-1
     cbc:	4e083cab 	mov	x11, v5.d[0]
     cc0:	9ac32505 	lsr	x5, x8, x3
     cc4:	8a25014a 	bic	x10, x10, x5
     cc8:	8a25016b 	bic	x11, x11, x5
     ccc:	b50002ea 	cbnz	x10, d28 <strrchr+0xd4>
     cd0:	f100017f 	cmp	x11, #0x0
     cd4:	9a861046 	csel	x6, x2, x6, ne	// ne = any
     cd8:	9a871167 	csel	x7, x11, x7, ne	// ne = any
     cdc:	4cdfa041 	ld1	{v1.16b-v2.16b}, [x2], #32
     ce0:	4e209823 	cmeq	v3.16b, v1.16b, #0
     ce4:	6e208c25 	cmeq	v5.16b, v1.16b, v0.16b
     ce8:	4e209844 	cmeq	v4.16b, v2.16b, #0
     cec:	6e208c46 	cmeq	v6.16b, v2.16b, v0.16b
     cf0:	4e24bc71 	addp	v17.16b, v3.16b, v4.16b
     cf4:	4e301ca5 	and	v5.16b, v5.16b, v16.16b
     cf8:	4e301cc6 	and	v6.16b, v6.16b, v16.16b
     cfc:	4e26bca5 	addp	v5.16b, v5.16b, v6.16b
     d00:	4e31be31 	addp	v17.16b, v17.16b, v17.16b
     d04:	4e25bca5 	addp	v5.16b, v5.16b, v5.16b
     d08:	4e083e2a 	mov	x10, v17.d[0]
     d0c:	4e083cab 	mov	x11, v5.d[0]
     d10:	b4fffe0a 	cbz	x10, cd0 <strrchr+0x7c>
     d14:	4e271c63 	and	v3.16b, v3.16b, v7.16b
     d18:	4e271c84 	and	v4.16b, v4.16b, v7.16b
     d1c:	4e24bc63 	addp	v3.16b, v3.16b, v4.16b
     d20:	4e23bc63 	addp	v3.16b, v3.16b, v3.16b
     d24:	4e083c6a 	mov	x10, v3.d[0]
     d28:	d1000549 	sub	x9, x10, #0x1
     d2c:	ca0a0129 	eor	x9, x9, x10
     d30:	ea09016b 	ands	x11, x11, x9
     d34:	9a861046 	csel	x6, x2, x6, ne	// ne = any
     d38:	9a871167 	csel	x7, x11, x7, ne	// ne = any
     d3c:	dac010e5 	clz	x5, x7
     d40:	910008a5 	add	x5, x5, #0x2
     d44:	cb4504c0 	sub	x0, x6, x5, lsr #1
     d48:	f10000ff 	cmp	x7, #0x0
     d4c:	9a9f1000 	csel	x0, x0, xzr, ne	// ne = any
     d50:	d65f03c0 	ret
	...

0000000000000d60 <__aarch64_cas4_acq_rel>:
__aarch64_cas4_acq_rel():
     d60:	90000010 	adrp	x16, 810 <strcpy+0x90>	d60: R_AARCH64_ADR_PREL_PG_HI21	__aarch64_have_lse_atomics
     d64:	39400210 	ldrb	w16, [x16]	d64: R_AARCH64_LDST8_ABS_LO12_NC	__aarch64_have_lse_atomics
     d68:	34000070 	cbz	w16, d74 <__aarch64_cas4_acq_rel+0x14>
     d6c:	88e0fc41 	casal	w0, w1, [x2]
     d70:	d65f03c0 	ret
     d74:	2a0003f0 	mov	w16, w0
     d78:	885ffc40 	ldaxr	w0, [x2]
     d7c:	6b10001f 	cmp	w0, w16
     d80:	54000061 	b.ne	d8c <__aarch64_cas4_acq_rel+0x2c>  // b.any
     d84:	8811fc41 	stlxr	w17, w1, [x2]
     d88:	35ffff91 	cbnz	w17, d78 <__aarch64_cas4_acq_rel+0x18>
     d8c:	d65f03c0 	ret

0000000000000d90 <__aarch64_ldset4_acq>:
__aarch64_ldset4_acq():
     d90:	90000010 	adrp	x16, 810 <strcpy+0x90>	d90: R_AARCH64_ADR_PREL_PG_HI21	__aarch64_have_lse_atomics
     d94:	39400210 	ldrb	w16, [x16]	d94: R_AARCH64_LDST8_ABS_LO12_NC	__aarch64_have_lse_atomics
     d98:	34000070 	cbz	w16, da4 <__aarch64_ldset4_acq+0x14>
     d9c:	b8a03020 	ldseta	w0, w0, [x1]
     da0:	d65f03c0 	ret
     da4:	2a0003f0 	mov	w16, w0
     da8:	885ffc20 	ldaxr	w0, [x1]
     dac:	2a100011 	orr	w17, w0, w16
     db0:	880f7c31 	stxr	w15, w17, [x1]
     db4:	35ffffaf 	cbnz	w15, da8 <__aarch64_ldset4_acq+0x18>
     db8:	d65f03c0 	ret
     dbc:	d10043ff 	sub	sp, sp, #0x10
     dc0:	f90003fe 	str	x30, [sp]
     dc4:	aa0003f0 	mov	x16, x0
     dc8:	aa0103e0 	mov	x0, x1
     dcc:	aa0203e1 	mov	x1, x2
     dd0:	aa0303e2 	mov	x2, x3
     dd4:	d63f0200 	blr	x16
     dd8:	f94003fe 	ldr	x30, [sp]
     ddc:	910043ff 	add	sp, sp, #0x10
     de0:	d28000a0 	mov	x0, #0x5                   	// #5
     de4:	d4000001 	svc	#0x0
     de8:	d65f03c0 	ret
     dec:	a9be4ffe 	stp	x30, x19, [sp, #-32]!
     df0:	90000013 	adrp	x19, 2c8 <memcmp+0x48>	df0: R_AARCH64_ADR_PREL_PG_HI21	_sdtors
     df4:	91000273 	add	x19, x19, #0x0	df4: R_AARCH64_ADD_ABS_LO12_NC	_sdtors
     df8:	f9000bf4 	str	x20, [sp, #16]
     dfc:	90000014 	adrp	x20, 2c8 <memcmp+0x48>	dfc: R_AARCH64_ADR_PREL_PG_HI21	_edtors
     e00:	91000294 	add	x20, x20, #0x0	e00: R_AARCH64_ADD_ABS_LO12_NC	_edtors
     e04:	eb14027f 	cmp	x19, x20
     e08:	54000081 	b.ne	e18 <__aarch64_ldset4_acq+0x88>  // b.any
     e0c:	f9400bf4 	ldr	x20, [sp, #16]
     e10:	a8c24ffe 	ldp	x30, x19, [sp], #32
     e14:	d65f03c0 	ret
     e18:	f8408660 	ldr	x0, [x19], #8
     e1c:	d63f0000 	blr	x0
     e20:	17fffff9 	b	e04 <__aarch64_ldset4_acq+0x74>

0000000000000e24 <__start>:
__start():
     e24:	a9bd4ffe 	stp	x30, x19, [sp, #-48]!
     e28:	90000013 	adrp	x19, 2c8 <memcmp+0x48>	e28: R_AARCH64_ADR_PREL_PG_HI21	_sctors
     e2c:	91000273 	add	x19, x19, #0x0	e2c: R_AARCH64_ADD_ABS_LO12_NC	_sctors
     e30:	a90157f4 	stp	x20, x21, [sp, #16]
     e34:	aa0103f5 	mov	x21, x1
     e38:	d2b80001 	mov	x1, #0xc0000000            	// #3221225472
     e3c:	f90013f6 	str	x22, [sp, #32]
     e40:	90000016 	adrp	x22, 2c8 <memcmp+0x48>	e40: R_AARCH64_ADR_PREL_PG_HI21	_ectors
     e44:	910002d6 	add	x22, x22, #0x0	e44: R_AARCH64_ADD_ABS_LO12_NC	_ectors
     e48:	2a0003f4 	mov	w20, w0
     e4c:	90000000 	adrp	x0, 0 <memcpy>	e4c: R_AARCH64_ADR_PREL_PG_HI21	.text+0xdbc
     e50:	91000000 	add	x0, x0, #0x0	e50: R_AARCH64_ADD_ABS_LO12_NC	.text+0xdbc
     e54:	f9000020 	str	x0, [x1]
     e58:	eb16027f 	cmp	x19, x22
     e5c:	54000101 	b.ne	e7c <__start+0x58>  // b.any
     e60:	90000000 	adrp	x0, 0 <memcpy>	e60: R_AARCH64_ADR_PREL_PG_HI21	.text+0xdec
     e64:	91000000 	add	x0, x0, #0x0	e64: R_AARCH64_ADD_ABS_LO12_NC	.text+0xdec
     e68:	94000000 	bl	222c <atexit>	e68: R_AARCH64_CALL26	atexit
     e6c:	aa1503e1 	mov	x1, x21
     e70:	2a1403e0 	mov	w0, w20
     e74:	94000000 	bl	e88 <main>	e74: R_AARCH64_CALL26	main
     e78:	94000000 	bl	206c <exit>	e78: R_AARCH64_CALL26	exit
     e7c:	f8408660 	ldr	x0, [x19], #8
     e80:	d63f0000 	blr	x0
     e84:	17fffff5 	b	e58 <__start+0x34>

0000000000000e88 <main>:
main():
     e88:	a9bd4ffe 	stp	x30, x19, [sp, #-48]!
     e8c:	2a0003f3 	mov	w19, w0
     e90:	52800000 	mov	w0, #0x0                   	// #0
     e94:	f9000bf4 	str	x20, [sp, #16]
     e98:	aa0103f4 	mov	x20, x1
     e9c:	9100a3e1 	add	x1, sp, #0x28
     ea0:	94000000 	bl	2fa0 <sched_getparam>	ea0: R_AARCH64_CALL26	sched_getparam
     ea4:	b9402be0 	ldr	w0, [sp, #40]
     ea8:	7101901f 	cmp	w0, #0x64
     eac:	540000c0 	b.eq	ec4 <main+0x3c>  // b.none
     eb0:	52800c80 	mov	w0, #0x64                  	// #100
     eb4:	9100a3e1 	add	x1, sp, #0x28
     eb8:	b9002be0 	str	w0, [sp, #40]
     ebc:	52800000 	mov	w0, #0x0                   	// #0
     ec0:	94000000 	bl	2fc0 <sched_setparam>	ec0: R_AARCH64_CALL26	sched_setparam
     ec4:	94000000 	bl	305c <nsh_initialize>	ec4: R_AARCH64_CALL26	nsh_initialize
     ec8:	aa1403e1 	mov	x1, x20
     ecc:	2a1303e0 	mov	w0, w19
     ed0:	94000000 	bl	3004 <nsh_consolemain>	ed0: R_AARCH64_CALL26	nsh_consolemain
     ed4:	2a0003e2 	mov	w2, w0
     ed8:	90000001 	adrp	x1, ebb8 <_srodata>	ed8: R_AARCH64_ADR_PREL_PG_HI21	.rodata+0x20
     edc:	52800040 	mov	w0, #0x2                   	// #2
     ee0:	91000021 	add	x1, x1, #0x0	ee0: R_AARCH64_ADD_ABS_LO12_NC	.rodata+0x20
     ee4:	94000000 	bl	ef8 <dprintf>	ee4: R_AARCH64_CALL26	dprintf
     ee8:	f9400bf4 	ldr	x20, [sp, #16]
     eec:	52800020 	mov	w0, #0x1                   	// #1
     ef0:	a8c34ffe 	ldp	x30, x19, [sp], #48
     ef4:	d65f03c0 	ret

0000000000000ef8 <dprintf>:
dprintf():
     ef8:	d10403ff 	sub	sp, sp, #0x100
     efc:	a90d0fe2 	stp	x2, x3, [sp, #208]
     f00:	910403e2 	add	x2, sp, #0x100
     f04:	a9030be2 	stp	x2, x2, [sp, #48]
     f08:	910343e2 	add	x2, sp, #0xd0
     f0c:	3dc00fff 	ldr	q31, [sp, #48]
     f10:	f90023e2 	str	x2, [sp, #64]
     f14:	128005e2 	mov	w2, #0xffffffd0            	// #-48
     f18:	b9004be2 	str	w2, [sp, #72]
     f1c:	12800fe2 	mov	w2, #0xffffff80            	// #-128
     f20:	b9004fe2 	str	w2, [sp, #76]
     f24:	3d8007ff 	str	q31, [sp, #16]
     f28:	910043e2 	add	x2, sp, #0x10
     f2c:	3dc013ff 	ldr	q31, [sp, #64]
     f30:	f90003fe 	str	x30, [sp]
     f34:	ad0287e0 	stp	q0, q1, [sp, #80]
     f38:	3d800bff 	str	q31, [sp, #32]
     f3c:	ad038fe2 	stp	q2, q3, [sp, #112]
     f40:	ad0497e4 	stp	q4, q5, [sp, #144]
     f44:	ad059fe6 	stp	q6, q7, [sp, #176]
     f48:	a90e17e4 	stp	x4, x5, [sp, #224]
     f4c:	a90f1fe6 	stp	x6, x7, [sp, #240]
     f50:	94000000 	bl	f60 <vdprintf>	f50: R_AARCH64_CALL26	vdprintf
     f54:	f94003fe 	ldr	x30, [sp]
     f58:	910403ff 	add	sp, sp, #0x100
     f5c:	d65f03c0 	ret

0000000000000f60 <vdprintf>:
vdprintf():
     f60:	a9b24ffe 	stp	x30, x19, [sp, #-224]!
     f64:	aa0203f3 	mov	x19, x2
     f68:	f9000bf4 	str	x20, [sp, #16]
     f6c:	aa0103f4 	mov	x20, x1
     f70:	2a0003e1 	mov	w1, w0
     f74:	910123e0 	add	x0, sp, #0x48
     f78:	94000000 	bl	2314 <lib_rawoutstream>	f78: R_AARCH64_CALL26	lib_rawoutstream
     f7c:	910123e1 	add	x1, sp, #0x48
     f80:	9101c3e0 	add	x0, sp, #0x70
     f84:	94000000 	bl	2400 <lib_bufferedoutstream>	f84: R_AARCH64_CALL26	lib_bufferedoutstream
     f88:	ad407e7e 	ldp	q30, q31, [x19]
     f8c:	910083e2 	add	x2, sp, #0x20
     f90:	aa1403e1 	mov	x1, x20
     f94:	9101c3e0 	add	x0, sp, #0x70
     f98:	3d800bfe 	str	q30, [sp, #32]
     f9c:	3d80045f 	str	q31, [x2, #16]
     fa0:	94000000 	bl	1e58 <lib_vsprintf>	fa0: R_AARCH64_CALL26	lib_vsprintf
     fa4:	2a0003f3 	mov	w19, w0
     fa8:	f94047e1 	ldr	x1, [sp, #136]
     fac:	9101c3e0 	add	x0, sp, #0x70
     fb0:	d63f0020 	blr	x1
     fb4:	f9400bf4 	ldr	x20, [sp, #16]
     fb8:	2a1303e0 	mov	w0, w19
     fbc:	a8ce4ffe 	ldp	x30, x19, [sp], #224
     fc0:	d65f03c0 	ret
     fc4:	a9b54ffe 	stp	x30, x19, [sp, #-176]!
     fc8:	a9025ff6 	stp	x22, x23, [sp, #32]
     fcc:	a9046ffa 	stp	x26, x27, [sp, #64]
     fd0:	aa0003fa 	mov	x26, x0
     fd4:	a9400096 	ldp	x22, x0, [x4]
     fd8:	f90037e0 	str	x0, [sp, #104]
     fdc:	a90157f4 	stp	x20, x21, [sp, #16]
     fe0:	52800014 	mov	w20, #0x0                   	// #0
     fe4:	91006080 	add	x0, x4, #0x18
     fe8:	a90367f8 	stp	x24, x25, [sp, #48]
     fec:	f9002bfc 	str	x28, [sp, #80]
     ff0:	f90043e4 	str	x4, [sp, #128]
     ff4:	2940001c 	ldp	w28, w0, [x0]
     ff8:	b90073e0 	str	w0, [sp, #112]
     ffc:	39400061 	ldrb	w1, [x3]
    1000:	34006cc1 	cbz	w1, 1d98 <vdprintf+0xe38>
    1004:	7100943f 	cmp	w1, #0x25
    1008:	54000140 	b.eq	1030 <vdprintf+0xd0>  // b.none
    100c:	91000460 	add	x0, x3, #0x1
    1010:	f9003fe0 	str	x0, [sp, #120]
    1014:	f9400742 	ldr	x2, [x26, #8]
    1018:	11000694 	add	w20, w20, #0x1
    101c:	aa1a03e0 	mov	x0, x26
    1020:	2a1c03f7 	mov	w23, w28
    1024:	aa1603f3 	mov	x19, x22
    1028:	d63f0040 	blr	x2
    102c:	14000357 	b	1d88 <vdprintf+0xe28>
    1030:	3940047b 	ldrb	w27, [x3, #1]
    1034:	91000860 	add	x0, x3, #0x2
    1038:	f9003fe0 	str	x0, [sp, #120]
    103c:	7100977f 	cmp	w27, #0x25
    1040:	54fffea0 	b.eq	1014 <vdprintf+0xb4>  // b.none
    1044:	52800015 	mov	w21, #0x0                   	// #0
    1048:	52800007 	mov	w7, #0x0                   	// #0
    104c:	52800018 	mov	w24, #0x0                   	// #0
    1050:	7100ff1f 	cmp	w24, #0x3f
    1054:	54000808 	b.hi	1154 <vdprintf+0x1f4>  // b.pmore
    1058:	7100af7f 	cmp	w27, #0x2b
    105c:	540006e0 	b.eq	1138 <vdprintf+0x1d8>  // b.none
    1060:	54000228 	b.hi	10a4 <vdprintf+0x144>  // b.pmore
    1064:	7100837f 	cmp	w27, #0x20
    1068:	540006a0 	b.eq	113c <vdprintf+0x1dc>  // b.none
    106c:	71008f7f 	cmp	w27, #0x23
    1070:	540006e0 	b.eq	114c <vdprintf+0x1ec>  // b.none
    1074:	7100ab7f 	cmp	w27, #0x2a
    1078:	54000cc1 	b.ne	1210 <vdprintf+0x2b0>  // b.any
    107c:	364009b8 	tbz	w24, #8, 11b0 <vdprintf+0x250>
    1080:	37f8085c 	tbnz	w28, #31, 1188 <vdprintf+0x228>
    1084:	91002ec0 	add	x0, x22, #0xb
    1088:	2a1c03e1 	mov	w1, w28
    108c:	927df000 	and	x0, x0, #0xfffffffffffffff8
    1090:	b94002d5 	ldr	w21, [x22]
    1094:	2a0103fc 	mov	w28, w1
    1098:	0ab57eb5 	bic	w21, w21, w21, asr #31
    109c:	aa0003f6 	mov	x22, x0
    10a0:	14000006 	b	10b8 <vdprintf+0x158>
    10a4:	7100b77f 	cmp	w27, #0x2d
    10a8:	540004e0 	b.eq	1144 <vdprintf+0x1e4>  // b.none
    10ac:	7100c37f 	cmp	w27, #0x30
    10b0:	54000561 	b.ne	115c <vdprintf+0x1fc>  // b.any
    10b4:	32000318 	orr	w24, w24, #0x1
    10b8:	f9403fe0 	ldr	x0, [sp, #120]
    10bc:	3840141b 	ldrb	w27, [x0], #1
    10c0:	f9003fe0 	str	x0, [sp, #120]
    10c4:	35fffc7b 	cbnz	w27, 1050 <vdprintf+0xf0>
    10c8:	51019760 	sub	w0, w27, #0x65
    10cc:	12001c00 	and	w0, w0, #0xff
    10d0:	7100081f 	cmp	w0, #0x2
    10d4:	54001369 	b.ls	1340 <vdprintf+0x3e0>  // b.plast
    10d8:	71018f7f 	cmp	w27, #0x63
    10dc:	54003e20 	b.eq	18a0 <vdprintf+0x940>  // b.none
    10e0:	121a7b60 	and	w0, w27, #0xffffffdf
    10e4:	12001c00 	and	w0, w0, #0xff
    10e8:	71014c1f 	cmp	w0, #0x53
    10ec:	54000de1 	b.ne	12a8 <vdprintf+0x348>  // b.any
    10f0:	37f8431c 	tbnz	w28, #31, 1950 <vdprintf+0x9f0>
    10f4:	91003ed3 	add	x19, x22, #0xf
    10f8:	2a1c03fb 	mov	w27, w28
    10fc:	927df273 	and	x19, x19, #0xfffffffffffffff8
    1100:	f94002d6 	ldr	x22, [x22]
    1104:	b5000076 	cbnz	x22, 1110 <vdprintf+0x1b0>
    1108:	90000016 	adrp	x22, ebb8 <_srodata>	1108: R_AARCH64_ADR_PREL_PG_HI21	.rodata+0x4f
    110c:	910002d6 	add	x22, x22, #0x0	110c: R_AARCH64_ADD_ABS_LO12_NC	.rodata+0x4f
    1110:	f278031f 	tst	x24, #0x100
    1114:	93407ea1 	sxtw	x1, w21
    1118:	da9f1021 	csinv	x1, x1, xzr, ne	// ne = any
    111c:	aa1603e0 	mov	x0, x22
    1120:	b90077e7 	str	w7, [sp, #116]
    1124:	2a1b03fc 	mov	w28, w27
    1128:	94000000 	bl	1a4 <strnlen>	1128: R_AARCH64_CALL26	strnlen
    112c:	aa0003f9 	mov	x25, x0
    1130:	b94077e7 	ldr	w7, [sp, #116]
    1134:	140001e4 	b	18c4 <vdprintf+0x964>
    1138:	321f0318 	orr	w24, w24, #0x2
    113c:	321e0318 	orr	w24, w24, #0x4
    1140:	17ffffde 	b	10b8 <vdprintf+0x158>
    1144:	321d0318 	orr	w24, w24, #0x8
    1148:	17ffffdc 	b	10b8 <vdprintf+0x158>
    114c:	321c0318 	orr	w24, w24, #0x10
    1150:	17ffffda 	b	10b8 <vdprintf+0x158>
    1154:	7107ff1f 	cmp	w24, #0x1ff
    1158:	54000668 	b.hi	1224 <vdprintf+0x2c4>  // b.pmore
    115c:	5100c360 	sub	w0, w27, #0x30
    1160:	12001c00 	and	w0, w0, #0xff
    1164:	7100241f 	cmp	w0, #0x9
    1168:	54fff868 	b.hi	1074 <vdprintf+0x114>  // b.pmore
    116c:	52800141 	mov	w1, #0xa                   	// #10
    1170:	36400078 	tbz	w24, #8, 117c <vdprintf+0x21c>
    1174:	1b0102b5 	madd	w21, w21, w1, w0
    1178:	17ffffd0 	b	10b8 <vdprintf+0x158>
    117c:	1b0100e7 	madd	w7, w7, w1, w0
    1180:	32190318 	orr	w24, w24, #0x80
    1184:	17ffffcd 	b	10b8 <vdprintf+0x158>
    1188:	11002381 	add	w1, w28, #0x8
    118c:	7100003f 	cmp	w1, #0x0
    1190:	5400008d 	b.le	11a0 <vdprintf+0x240>
    1194:	91002ec0 	add	x0, x22, #0xb
    1198:	927df000 	and	x0, x0, #0xfffffffffffffff8
    119c:	17ffffbd 	b	1090 <vdprintf+0x130>
    11a0:	f94037e2 	ldr	x2, [sp, #104]
    11a4:	aa1603e0 	mov	x0, x22
    11a8:	8b3cc056 	add	x22, x2, w28, sxtw
    11ac:	17ffffb9 	b	1090 <vdprintf+0x130>
    11b0:	37f800fc 	tbnz	w28, #31, 11cc <vdprintf+0x26c>
    11b4:	91002ec0 	add	x0, x22, #0xb
    11b8:	927df000 	and	x0, x0, #0xfffffffffffffff8
    11bc:	b94002c7 	ldr	w7, [x22]
    11c0:	37f80207 	tbnz	w7, #31, 1200 <vdprintf+0x2a0>
    11c4:	32190318 	orr	w24, w24, #0x80
    11c8:	17ffffb5 	b	109c <vdprintf+0x13c>
    11cc:	11002381 	add	w1, w28, #0x8
    11d0:	7100003f 	cmp	w1, #0x0
    11d4:	540000ad 	b.le	11e8 <vdprintf+0x288>
    11d8:	91002ec0 	add	x0, x22, #0xb
    11dc:	2a0103fc 	mov	w28, w1
    11e0:	927df000 	and	x0, x0, #0xfffffffffffffff8
    11e4:	17fffff6 	b	11bc <vdprintf+0x25c>
    11e8:	f94037e0 	ldr	x0, [sp, #104]
    11ec:	8b3cc002 	add	x2, x0, w28, sxtw
    11f0:	aa1603e0 	mov	x0, x22
    11f4:	2a0103fc 	mov	w28, w1
    11f8:	aa0203f6 	mov	x22, x2
    11fc:	17fffff0 	b	11bc <vdprintf+0x25c>
    1200:	52801101 	mov	w1, #0x88                  	// #136
    1204:	4b0703e7 	neg	w7, w7
    1208:	2a010318 	orr	w24, w24, w1
    120c:	17ffffa4 	b	109c <vdprintf+0x13c>
    1210:	7100bb7f 	cmp	w27, #0x2e
    1214:	54000081 	b.ne	1224 <vdprintf+0x2c4>  // b.any
    1218:	37405c18 	tbnz	w24, #8, 1d98 <vdprintf+0xe38>
    121c:	32180318 	orr	w24, w24, #0x100
    1220:	17ffffa6 	b	10b8 <vdprintf+0x158>
    1224:	7101eb7f 	cmp	w27, #0x7a
    1228:	52800e80 	mov	w0, #0x74                  	// #116
    122c:	7a401364 	ccmp	w27, w0, #0x4, ne	// ne = any
    1230:	54000160 	b.eq	125c <vdprintf+0x2fc>  // b.none
    1234:	7101ab7f 	cmp	w27, #0x6a
    1238:	540000c1 	b.ne	1250 <vdprintf+0x2f0>  // b.any
    123c:	12157b03 	and	w3, w24, #0xfffffbff
    1240:	52814000 	mov	w0, #0xa00                 	// #2560
    1244:	12003c63 	and	w3, w3, #0xffff
    1248:	2a000078 	orr	w24, w3, w0
    124c:	17ffff9b 	b	10b8 <vdprintf+0x158>
    1250:	121a7b60 	and	w0, w27, #0xffffffdf
    1254:	7101301f 	cmp	w0, #0x4c
    1258:	54000101 	b.ne	1278 <vdprintf+0x318>  // b.any
    125c:	32150301 	orr	w1, w24, #0x800
    1260:	32170300 	orr	w0, w24, #0x200
    1264:	f277031f 	tst	x24, #0x200
    1268:	1a810000 	csel	w0, w0, w1, eq	// eq = none
    126c:	12157800 	and	w0, w0, #0xfffffbff
    1270:	12003c18 	and	w24, w0, #0xffff
    1274:	17ffff91 	b	10b8 <vdprintf+0x158>
    1278:	7101a37f 	cmp	w27, #0x68
    127c:	540000e1 	b.ne	1298 <vdprintf+0x338>  // b.any
    1280:	32150301 	orr	w1, w24, #0x800
    1284:	32160300 	orr	w0, w24, #0x400
    1288:	f276031f 	tst	x24, #0x400
    128c:	1a810000 	csel	w0, w0, w1, eq	// eq = none
    1290:	12167800 	and	w0, w0, #0xfffffdff
    1294:	17fffff7 	b	1270 <vdprintf+0x310>
    1298:	7101c37f 	cmp	w27, #0x70
    129c:	54000441 	b.ne	1324 <vdprintf+0x3c4>  // b.any
    12a0:	52814000 	mov	w0, #0xa00                 	// #2560
    12a4:	2a000318 	orr	w24, w24, w0
    12a8:	52800d20 	mov	w0, #0x69                  	// #105
    12ac:	7101937f 	cmp	w27, #0x64
    12b0:	7a401364 	ccmp	w27, w0, #0x4, ne	// ne = any
    12b4:	12170300 	and	w0, w24, #0x200
    12b8:	54003d61 	b.ne	1a64 <vdprintf+0xb04>  // b.any
    12bc:	34003820 	cbz	w0, 19c0 <vdprintf+0xa60>
    12c0:	37f836dc 	tbnz	w28, #31, 1998 <vdprintf+0xa38>
    12c4:	91003ed3 	add	x19, x22, #0xf
    12c8:	2a1c03f7 	mov	w23, w28
    12cc:	927df273 	and	x19, x19, #0xfffffffffffffff8
    12d0:	f94002c0 	ldr	x0, [x22]
    12d4:	12820219 	mov	w25, #0xffffefef            	// #-4113
    12d8:	0a190319 	and	w25, w24, w25
    12dc:	b6f80080 	tbz	x0, #63, 12ec <vdprintf+0x38c>
    12e0:	32140339 	orr	w25, w25, #0x1000
    12e4:	cb0003e0 	neg	x0, x0
    12e8:	12003f39 	and	w25, w25, #0xffff
    12ec:	12180336 	and	w22, w25, #0x100
    12f0:	36403979 	tbz	w25, #8, 1a1c <vdprintf+0xabc>
    12f4:	710002bf 	cmp	w21, #0x0
    12f8:	fa400800 	ccmp	x0, #0x0, #0x0, eq	// eq = none
    12fc:	54003901 	b.ne	1a1c <vdprintf+0xabc>  // b.any
    1300:	121f3b39 	and	w25, w25, #0xfffe
    1304:	5280001b 	mov	w27, #0x0                   	// #0
    1308:	52800000 	mov	w0, #0x0                   	// #0
    130c:	528200c1 	mov	w1, #0x1006                	// #4102
    1310:	6a01033f 	tst	w25, w1
    1314:	54004500 	b.eq	1bb4 <vdprintf+0xc54>  // b.none
    1318:	11000400 	add	w0, w0, #0x1
    131c:	12001c00 	and	w0, w0, #0xff
    1320:	14000225 	b	1bb4 <vdprintf+0xc54>
    1324:	51011760 	sub	w0, w27, #0x45
    1328:	12001c00 	and	w0, w0, #0xff
    132c:	7100081f 	cmp	w0, #0x2
    1330:	54ffecc8 	b.hi	10c8 <vdprintf+0x168>  // b.pmore
    1334:	1100837b 	add	w27, w27, #0x20
    1338:	32130318 	orr	w24, w24, #0x2000
    133c:	12001f7b 	and	w27, w27, #0xff
    1340:	f278031f 	tst	x24, #0x100
    1344:	528000c0 	mov	w0, #0x6                   	// #6
    1348:	1a8012b5 	csel	w21, w21, w0, ne	// ne = any
    134c:	12001ea2 	and	w2, w21, #0xff
    1350:	7101977f 	cmp	w27, #0x65
    1354:	54000141 	b.ne	137c <vdprintf+0x41c>  // b.any
    1358:	11000442 	add	w2, w2, #0x1
    135c:	32120318 	orr	w24, w24, #0x4000
    1360:	12001c42 	and	w2, w2, #0xff
    1364:	71003c5f 	cmp	w2, #0xf
    1368:	528001e0 	mov	w0, #0xf                   	// #15
    136c:	1a809042 	csel	w2, w2, w0, ls	// ls = plast
    1370:	12001c41 	and	w1, w2, #0xff
    1374:	52800002 	mov	w2, #0x0                   	// #0
    1378:	14000005 	b	138c <vdprintf+0x42c>
    137c:	71019b7f 	cmp	w27, #0x66
    1380:	54ffff21 	b.ne	1364 <vdprintf+0x404>  // b.any
    1384:	32110318 	orr	w24, w24, #0x8000
    1388:	528001e1 	mov	w1, #0xf                   	// #15
    138c:	b94073e0 	ldr	w0, [sp, #112]
    1390:	37f80700 	tbnz	w0, #31, 1470 <vdprintf+0x510>
    1394:	91003ed3 	add	x19, x22, #0xf
    1398:	b90077e0 	str	w0, [sp, #116]
    139c:	927df273 	and	x19, x19, #0xfffffffffffffff8
    13a0:	fd4002c0 	ldr	d0, [x22]
    13a4:	910263fb 	add	x27, sp, #0x98
    13a8:	aa1b03e0 	mov	x0, x27
    13ac:	b90073e7 	str	w7, [sp, #112]
    13b0:	94000000 	bl	1eb8 <__dtoa_engine>	13b0: R_AARCH64_CALL26	__dtoa_engine
    13b4:	394273e1 	ldrb	w1, [sp, #156]
    13b8:	b94073e7 	ldr	w7, [sp, #112]
    13bc:	37000761 	tbnz	w1, #0, 14a8 <vdprintf+0x548>
    13c0:	d3420b02 	ubfx	x2, x24, #2, #1
    13c4:	f27f031f 	tst	x24, #0x2
    13c8:	52800566 	mov	w6, #0x2b                  	// #43
    13cc:	531b0042 	ubfiz	w2, w2, #5, #1
    13d0:	1a860042 	csel	w2, w2, w6, eq	// eq = none
    13d4:	721e0421 	ands	w1, w1, #0xc
    13d8:	540007c0 	b.eq	14d0 <vdprintf+0x570>  // b.none
    13dc:	7100005f 	cmp	w2, #0x0
    13e0:	1a9f07f6 	cset	w22, ne	// ne = any
    13e4:	11000ed6 	add	w22, w22, #0x3
    13e8:	6b0702df 	cmp	w22, w7
    13ec:	540001aa 	b.ge	1420 <vdprintf+0x4c0>  // b.tcont
    13f0:	4b1600f6 	sub	w22, w7, w22
    13f4:	37180198 	tbnz	w24, #3, 1424 <vdprintf+0x4c4>
    13f8:	2a1603f5 	mov	w21, w22
    13fc:	f9400746 	ldr	x6, [x26, #8]
    1400:	aa1a03e0 	mov	x0, x26
    1404:	52800401 	mov	w1, #0x20                  	// #32
    1408:	b90073e2 	str	w2, [sp, #112]
    140c:	d63f00c0 	blr	x6
    1410:	b94073e2 	ldr	w2, [sp, #112]
    1414:	710006b5 	subs	w21, w21, #0x1
    1418:	54ffff21 	b.ne	13fc <vdprintf+0x49c>  // b.any
    141c:	0b160294 	add	w20, w20, w22
    1420:	52800016 	mov	w22, #0x0                   	// #0
    1424:	340000c2 	cbz	w2, 143c <vdprintf+0x4dc>
    1428:	f9400746 	ldr	x6, [x26, #8]
    142c:	11000694 	add	w20, w20, #0x1
    1430:	2a0203e1 	mov	w1, w2
    1434:	aa1a03e0 	mov	x0, x26
    1438:	d63f00c0 	blr	x6
    143c:	394273e1 	ldrb	w1, [sp, #156]
    1440:	90000000 	adrp	x0, ebb8 <_srodata>	1440: R_AARCH64_ADR_PREL_PG_HI21	.rodata+0x47
    1444:	90000017 	adrp	x23, ebb8 <_srodata>	1444: R_AARCH64_ADR_PREL_PG_HI21	.rodata+0x4b
    1448:	91000000 	add	x0, x0, #0x0	1448: R_AARCH64_ADD_ABS_LO12_NC	.rodata+0x47
    144c:	910002f7 	add	x23, x23, #0x0	144c: R_AARCH64_ADD_ABS_LO12_NC	.rodata+0x4b
    1450:	12130318 	and	w24, w24, #0x2000
    1454:	f27d003f 	tst	x1, #0x8
    1458:	d2800015 	mov	x21, #0x0                   	// #0
    145c:	9a8012f7 	csel	x23, x23, x0, ne	// ne = any
    1460:	38756ae1 	ldrb	w1, [x23, x21]
    1464:	35000261 	cbnz	w1, 14b0 <vdprintf+0x550>
    1468:	0b150295 	add	w21, w20, w21
    146c:	140000ae 	b	1724 <vdprintf+0x7c4>
    1470:	b94073e0 	ldr	w0, [sp, #112]
    1474:	11004000 	add	w0, w0, #0x10
    1478:	b90077e0 	str	w0, [sp, #116]
    147c:	7100001f 	cmp	w0, #0x0
    1480:	5400008d 	b.le	1490 <vdprintf+0x530>
    1484:	91003ed3 	add	x19, x22, #0xf
    1488:	927df273 	and	x19, x19, #0xfffffffffffffff8
    148c:	17ffffc5 	b	13a0 <vdprintf+0x440>
    1490:	f94043e0 	ldr	x0, [sp, #128]
    1494:	aa1603f3 	mov	x19, x22
    1498:	b94073e3 	ldr	w3, [sp, #112]
    149c:	f9400800 	ldr	x0, [x0, #16]
    14a0:	8b23c016 	add	x22, x0, w3, sxtw
    14a4:	17ffffbf 	b	13a0 <vdprintf+0x440>
    14a8:	528005a2 	mov	w2, #0x2d                  	// #45
    14ac:	17ffffca 	b	13d4 <vdprintf+0x474>
    14b0:	34000078 	cbz	w24, 14bc <vdprintf+0x55c>
    14b4:	51008021 	sub	w1, w1, #0x20
    14b8:	12001c21 	and	w1, w1, #0xff
    14bc:	f9400742 	ldr	x2, [x26, #8]
    14c0:	aa1a03e0 	mov	x0, x26
    14c4:	910006b5 	add	x21, x21, #0x1
    14c8:	d63f0040 	blr	x2
    14cc:	17ffffe5 	b	1460 <vdprintf+0x500>
    14d0:	b9409bf7 	ldr	w23, [sp, #152]
    14d4:	12001c19 	and	w25, w0, #0xff
    14d8:	5287ffe6 	mov	w6, #0x3fff                	// #16383
    14dc:	6b06031f 	cmp	w24, w6
    14e0:	54000668 	b.hi	15ac <vdprintf+0x64c>  // b.pmore
    14e4:	12001c00 	and	w0, w0, #0xff
    14e8:	8b394379 	add	x25, x27, w25, uxtw
    14ec:	2a0003f5 	mov	w21, w0
    14f0:	340004f5 	cbz	w21, 158c <vdprintf+0x62c>
    14f4:	39401326 	ldrb	w6, [x25, #4]
    14f8:	510006a8 	sub	w8, w21, #0x1
    14fc:	d1000739 	sub	x25, x25, #0x1
    1500:	7100c0df 	cmp	w6, #0x30
    1504:	54000400 	b.eq	1584 <vdprintf+0x624>  // b.none
    1508:	12001ea1 	and	w1, w21, #0xff
    150c:	6b0002ff 	cmp	w23, w0
    1510:	3a44bae1 	ccmn	w23, #0x4, #0x1, lt	// lt = tstop
    1514:	5400040b 	b.lt	1594 <vdprintf+0x634>  // b.tstop
    1518:	32110318 	orr	w24, w24, #0x8000
    151c:	13003f00 	sxth	w0, w24
    1520:	b90073e0 	str	w0, [sp, #112]
    1524:	37f80077 	tbnz	w23, #31, 1530 <vdprintf+0x5d0>
    1528:	6b1502ff 	cmp	w23, w21
    152c:	540004aa 	b.ge	15c0 <vdprintf+0x660>  // b.tcont
    1530:	110006e0 	add	w0, w23, #0x1
    1534:	4b0002b5 	sub	w21, w21, w0
    1538:	310006e0 	adds	w0, w23, #0x1
    153c:	2a0103f9 	mov	w25, w1
    1540:	1a9fc400 	csinc	w0, w0, wzr, gt
    1544:	7100005f 	cmp	w2, #0x0
    1548:	d3441306 	ubfx	x6, x24, #4, #1
    154c:	1a800400 	cinc	w0, w0, ne	// ne = any
    1550:	110006a1 	add	w1, w21, #0x1
    1554:	0b010001 	add	w1, w0, w1
    1558:	710002bf 	cmp	w21, #0x0
    155c:	0b060000 	add	w0, w0, w6
    1560:	1a810000 	csel	w0, w0, w1, eq	// eq = none
    1564:	4b0000e6 	sub	w6, w7, w0
    1568:	6b07001f 	cmp	w0, w7
    156c:	1a9fb0c6 	csel	w6, w6, wzr, lt	// lt = tstop
    1570:	52800120 	mov	w0, #0x9                   	// #9
    1574:	6a00031f 	tst	w24, w0
    1578:	54000841 	b.ne	1680 <vdprintf+0x720>  // b.any
    157c:	2a0603f6 	mov	w22, w6
    1580:	14000018 	b	15e0 <vdprintf+0x680>
    1584:	2a0803f5 	mov	w21, w8
    1588:	17ffffda 	b	14f0 <vdprintf+0x590>
    158c:	52800015 	mov	w21, #0x0                   	// #0
    1590:	17ffffdf 	b	150c <vdprintf+0x5ac>
    1594:	510006b5 	sub	w21, w21, #0x1
    1598:	2a0103f9 	mov	w25, w1
    159c:	13003f00 	sxth	w0, w24
    15a0:	b90073e0 	str	w0, [sp, #112]
    15a4:	528000a0 	mov	w0, #0x5                   	// #5
    15a8:	17ffffe7 	b	1544 <vdprintf+0x5e4>
    15ac:	13003f00 	sxth	w0, w24
    15b0:	b90073e0 	str	w0, [sp, #112]
    15b4:	367fff98 	tbz	w24, #15, 15a4 <vdprintf+0x644>
    15b8:	2a1903e1 	mov	w1, w25
    15bc:	17ffffdf 	b	1538 <vdprintf+0x5d8>
    15c0:	52800015 	mov	w21, #0x0                   	// #0
    15c4:	17ffffdd 	b	1538 <vdprintf+0x5d8>
    15c8:	29111be2 	stp	w2, w6, [sp, #136]
    15cc:	aa1a03e0 	mov	x0, x26
    15d0:	52800401 	mov	w1, #0x20                  	// #32
    15d4:	510006d6 	sub	w22, w22, #0x1
    15d8:	d63f00e0 	blr	x7
    15dc:	29511be2 	ldp	w2, w6, [sp, #136]
    15e0:	f9400747 	ldr	x7, [x26, #8]
    15e4:	35ffff36 	cbnz	w22, 15c8 <vdprintf+0x668>
    15e8:	0b1400d4 	add	w20, w6, w20
    15ec:	350004e2 	cbnz	w2, 1688 <vdprintf+0x728>
    15f0:	f9400746 	ldr	x6, [x26, #8]
    15f4:	350005b6 	cbnz	w22, 16a8 <vdprintf+0x748>
    15f8:	0b020294 	add	w20, w20, w2
    15fc:	b94073e0 	ldr	w0, [sp, #112]
    1600:	36f809a0 	tbz	w0, #31, 1734 <vdprintf+0x7d4>
    1604:	0ab77ee2 	bic	w2, w23, w23, asr #31
    1608:	4b1503e0 	neg	w0, w21
    160c:	4b0202e6 	sub	w6, w23, w2
    1610:	b90073e0 	str	w0, [sp, #112]
    1614:	8b26c37b 	add	x27, x27, w6, sxtw
    1618:	4b0202e0 	sub	w0, w23, w2
    161c:	6b19001f 	cmp	w0, w25
    1620:	54000522 	b.cs	16c4 <vdprintf+0x764>  // b.hs, b.nlast
    1624:	39401761 	ldrb	w1, [x27, #5]
    1628:	b94073e0 	ldr	w0, [sp, #112]
    162c:	51000442 	sub	w2, w2, #0x1
    1630:	f9400747 	ldr	x7, [x26, #8]
    1634:	11000695 	add	w21, w20, #0x1
    1638:	9100077b 	add	x27, x27, #0x1
    163c:	6b00005f 	cmp	w2, w0
    1640:	5400046b 	b.lt	16cc <vdprintf+0x76c>  // b.tstop
    1644:	aa1a03e0 	mov	x0, x26
    1648:	b9008be2 	str	w2, [sp, #136]
    164c:	d63f00e0 	blr	x7
    1650:	b9408be2 	ldr	w2, [sp, #136]
    1654:	3100045f 	cmn	w2, #0x1
    1658:	54000101 	b.ne	1678 <vdprintf+0x718>  // b.any
    165c:	f9400747 	ldr	x7, [x26, #8]
    1660:	aa1a03e0 	mov	x0, x26
    1664:	528005c1 	mov	w1, #0x2e                  	// #46
    1668:	b9008be2 	str	w2, [sp, #136]
    166c:	11000a95 	add	w21, w20, #0x2
    1670:	d63f00e0 	blr	x7
    1674:	b9408be2 	ldr	w2, [sp, #136]
    1678:	2a1503f4 	mov	w20, w21
    167c:	17ffffe7 	b	1618 <vdprintf+0x6b8>
    1680:	2a0603f6 	mov	w22, w6
    1684:	340000c2 	cbz	w2, 169c <vdprintf+0x73c>
    1688:	f9400746 	ldr	x6, [x26, #8]
    168c:	11000694 	add	w20, w20, #0x1
    1690:	2a0203e1 	mov	w1, w2
    1694:	aa1a03e0 	mov	x0, x26
    1698:	d63f00c0 	blr	x6
    169c:	371ffb18 	tbnz	w24, #3, 15fc <vdprintf+0x69c>
    16a0:	2a1603e2 	mov	w2, w22
    16a4:	17ffffd3 	b	15f0 <vdprintf+0x690>
    16a8:	aa1a03e0 	mov	x0, x26
    16ac:	52800601 	mov	w1, #0x30                  	// #48
    16b0:	b9008be2 	str	w2, [sp, #136]
    16b4:	d63f00c0 	blr	x6
    16b8:	b9408be2 	ldr	w2, [sp, #136]
    16bc:	510006d6 	sub	w22, w22, #0x1
    16c0:	17ffffcc 	b	15f0 <vdprintf+0x690>
    16c4:	52800601 	mov	w1, #0x30                  	// #48
    16c8:	17ffffd8 	b	1628 <vdprintf+0x6c8>
    16cc:	6b0202ff 	cmp	w23, w2
    16d0:	54000121 	b.ne	16f4 <vdprintf+0x794>  // b.any
    16d4:	394277e0 	ldrb	w0, [sp, #157]
    16d8:	7100d41f 	cmp	w0, #0x35
    16dc:	54000288 	b.hi	172c <vdprintf+0x7cc>  // b.pmore
    16e0:	540000a1 	b.ne	16f4 <vdprintf+0x794>  // b.any
    16e4:	394273e0 	ldrb	w0, [sp, #156]
    16e8:	f27c001f 	tst	x0, #0x10
    16ec:	52800620 	mov	w0, #0x31                  	// #49
    16f0:	1a801021 	csel	w1, w1, w0, ne	// ne = any
    16f4:	aa1a03e0 	mov	x0, x26
    16f8:	b90073e2 	str	w2, [sp, #112]
    16fc:	d63f00e0 	blr	x7
    1700:	36200138 	tbz	w24, #4, 1724 <vdprintf+0x7c4>
    1704:	b94073e2 	ldr	w2, [sp, #112]
    1708:	3100045f 	cmn	w2, #0x1
    170c:	540000c1 	b.ne	1724 <vdprintf+0x7c4>  // b.any
    1710:	f9400742 	ldr	x2, [x26, #8]
    1714:	11000a95 	add	w21, w20, #0x2
    1718:	aa1a03e0 	mov	x0, x26
    171c:	528005c1 	mov	w1, #0x2e                  	// #46
    1720:	d63f0040 	blr	x2
    1724:	2a1603f4 	mov	w20, w22
    1728:	14000193 	b	1d74 <vdprintf+0xe14>
    172c:	52800621 	mov	w1, #0x31                  	// #49
    1730:	17fffff1 	b	16f4 <vdprintf+0x794>
    1734:	394277e1 	ldrb	w1, [sp, #157]
    1738:	7100c43f 	cmp	w1, #0x31
    173c:	54000080 	b.eq	174c <vdprintf+0x7ec>  // b.none
    1740:	394273e0 	ldrb	w0, [sp, #156]
    1744:	121b7800 	and	w0, w0, #0xffffffef
    1748:	390273e0 	strb	w0, [sp, #156]
    174c:	f9400742 	ldr	x2, [x26, #8]
    1750:	aa1a03e0 	mov	x0, x26
    1754:	d63f0040 	blr	x2
    1758:	f9400742 	ldr	x2, [x26, #8]
    175c:	710002bf 	cmp	w21, #0x0
    1760:	5400074d 	b.le	1848 <vdprintf+0x8e8>
    1764:	aa1a03e0 	mov	x0, x26
    1768:	528005c1 	mov	w1, #0x2e                  	// #46
    176c:	d63f0040 	blr	x2
    1770:	11000a94 	add	w20, w20, #0x2
    1774:	52800020 	mov	w0, #0x1                   	// #1
    1778:	910277e7 	add	x7, sp, #0x9d
    177c:	2a0003e2 	mov	w2, w0
    1780:	f9400746 	ldr	x6, [x26, #8]
    1784:	11000694 	add	w20, w20, #0x1
    1788:	6b02033f 	cmp	w25, w2
    178c:	540005a9 	b.ls	1840 <vdprintf+0x8e0>  // b.plast
    1790:	386048e1 	ldrb	w1, [x7, w0, uxtw]
    1794:	aa1a03e0 	mov	x0, x26
    1798:	b90073e2 	str	w2, [sp, #112]
    179c:	d63f00c0 	blr	x6
    17a0:	b94073e2 	ldr	w2, [sp, #112]
    17a4:	910277e7 	add	x7, sp, #0x9d
    17a8:	11000442 	add	w2, w2, #0x1
    17ac:	12001c42 	and	w2, w2, #0xff
    17b0:	2a0203e0 	mov	w0, w2
    17b4:	6b15005f 	cmp	w2, w21
    17b8:	54fffe4d 	b.le	1780 <vdprintf+0x820>
    17bc:	f9400742 	ldr	x2, [x26, #8]
    17c0:	f273031f 	tst	x24, #0x2000
    17c4:	528008a0 	mov	w0, #0x45                  	// #69
    17c8:	52800ca1 	mov	w1, #0x65                  	// #101
    17cc:	1a800021 	csel	w1, w1, w0, eq	// eq = none
    17d0:	aa1a03e0 	mov	x0, x26
    17d4:	d63f0040 	blr	x2
    17d8:	710002ff 	cmp	w23, #0x0
    17dc:	5400008b 	b.lt	17ec <vdprintf+0x88c>  // b.tstop
    17e0:	54000441 	b.ne	1868 <vdprintf+0x908>  // b.any
    17e4:	394273e0 	ldrb	w0, [sp, #156]
    17e8:	36200400 	tbz	w0, #4, 1868 <vdprintf+0x908>
    17ec:	4b1703f7 	neg	w23, w23
    17f0:	528005a1 	mov	w1, #0x2d                  	// #45
    17f4:	f9400742 	ldr	x2, [x26, #8]
    17f8:	aa1a03e0 	mov	x0, x26
    17fc:	d63f0040 	blr	x2
    1800:	aa1b03e1 	mov	x1, x27
    1804:	93407ee0 	sxtw	x0, w23
    1808:	52800142 	mov	w2, #0xa                   	// #10
    180c:	94000000 	bl	1e5c <__ultoa_invert>	180c: R_AARCH64_CALL26	__ultoa_invert
    1810:	cb1b0015 	sub	x21, x0, x27
    1814:	12001eb9 	and	w25, w21, #0xff
    1818:	710026ff 	cmp	w23, #0x9
    181c:	540003ec 	b.gt	1898 <vdprintf+0x938>
    1820:	f9400742 	ldr	x2, [x26, #8]
    1824:	11000e94 	add	w20, w20, #0x3
    1828:	aa1a03e0 	mov	x0, x26
    182c:	52800601 	mov	w1, #0x30                  	// #48
    1830:	d63f0040 	blr	x2
    1834:	8b350375 	add	x21, x27, w21, uxtb
    1838:	2a1903f7 	mov	w23, w25
    183c:	14000013 	b	1888 <vdprintf+0x928>
    1840:	52800601 	mov	w1, #0x30                  	// #48
    1844:	17ffffd4 	b	1794 <vdprintf+0x834>
    1848:	37200078 	tbnz	w24, #4, 1854 <vdprintf+0x8f4>
    184c:	11000694 	add	w20, w20, #0x1
    1850:	17ffffdb 	b	17bc <vdprintf+0x85c>
    1854:	11000a94 	add	w20, w20, #0x2
    1858:	aa1a03e0 	mov	x0, x26
    185c:	528005c1 	mov	w1, #0x2e                  	// #46
    1860:	d63f0040 	blr	x2
    1864:	17ffffd6 	b	17bc <vdprintf+0x85c>
    1868:	52800561 	mov	w1, #0x2b                  	// #43
    186c:	17ffffe2 	b	17f4 <vdprintf+0x894>
    1870:	f9400742 	ldr	x2, [x26, #8]
    1874:	510006f7 	sub	w23, w23, #0x1
    1878:	394002a1 	ldrb	w1, [x21]
    187c:	aa1a03e0 	mov	x0, x26
    1880:	12001ef7 	and	w23, w23, #0xff
    1884:	d63f0040 	blr	x2
    1888:	d10006b5 	sub	x21, x21, #0x1
    188c:	35ffff37 	cbnz	w23, 1870 <vdprintf+0x910>
    1890:	0b140335 	add	w21, w25, w20
    1894:	17ffffa4 	b	1724 <vdprintf+0x7c4>
    1898:	11000a94 	add	w20, w20, #0x2
    189c:	17ffffe6 	b	1834 <vdprintf+0x8d4>
    18a0:	37f8045c 	tbnz	w28, #31, 1928 <vdprintf+0x9c8>
    18a4:	91002ed3 	add	x19, x22, #0xb
    18a8:	2a1c03e0 	mov	w0, w28
    18ac:	927df273 	and	x19, x19, #0xfffffffffffffff8
    18b0:	b94002c1 	ldr	w1, [x22]
    18b4:	2a0003fc 	mov	w28, w0
    18b8:	910263f6 	add	x22, sp, #0x98
    18bc:	d2800039 	mov	x25, #0x1                   	// #1
    18c0:	390263e1 	strb	w1, [sp, #152]
    18c4:	37180198 	tbnz	w24, #3, 18f4 <vdprintf+0x994>
    18c8:	93407cf5 	sxtw	x21, w7
    18cc:	aa1503fb 	mov	x27, x21
    18d0:	eb1b033f 	cmp	x25, x27
    18d4:	54000523 	b.cc	1978 <vdprintf+0xa18>  // b.lo, b.ul, b.last
    18d8:	eb15033f 	cmp	x25, x21
    18dc:	cb1902a0 	sub	x0, x21, x25
    18e0:	4b150321 	sub	w1, w25, w21
    18e4:	1a9f9000 	csel	w0, w0, wzr, ls	// ls = plast
    18e8:	1a9f9021 	csel	w1, w1, wzr, ls	// ls = plast
    18ec:	0b140014 	add	w20, w0, w20
    18f0:	0b070027 	add	w7, w1, w7
    18f4:	f9400b43 	ldr	x3, [x26, #16]
    18f8:	aa1603e1 	mov	x1, x22
    18fc:	aa1903e2 	mov	x2, x25
    1900:	aa1a03e0 	mov	x0, x26
    1904:	b90077e7 	str	w7, [sp, #116]
    1908:	0b190295 	add	w21, w20, w25
    190c:	d63f0060 	blr	x3
    1910:	294e1fe0 	ldp	w0, w7, [sp, #112]
    1914:	b90077e0 	str	w0, [sp, #116]
    1918:	4b1900f6 	sub	w22, w7, w25
    191c:	eb27c33f 	cmp	x25, w7, sxtw
    1920:	1a9f92d6 	csel	w22, w22, wzr, ls	// ls = plast
    1924:	17ffff80 	b	1724 <vdprintf+0x7c4>
    1928:	11002380 	add	w0, w28, #0x8
    192c:	7100001f 	cmp	w0, #0x0
    1930:	5400008d 	b.le	1940 <vdprintf+0x9e0>
    1934:	91002ed3 	add	x19, x22, #0xb
    1938:	927df273 	and	x19, x19, #0xfffffffffffffff8
    193c:	17ffffdd 	b	18b0 <vdprintf+0x950>
    1940:	f94037e1 	ldr	x1, [sp, #104]
    1944:	aa1603f3 	mov	x19, x22
    1948:	8b3cc036 	add	x22, x1, w28, sxtw
    194c:	17ffffd9 	b	18b0 <vdprintf+0x950>
    1950:	1100239b 	add	w27, w28, #0x8
    1954:	7100037f 	cmp	w27, #0x0
    1958:	5400008d 	b.le	1968 <vdprintf+0xa08>
    195c:	91003ed3 	add	x19, x22, #0xf
    1960:	927df273 	and	x19, x19, #0xfffffffffffffff8
    1964:	17fffde7 	b	1100 <vdprintf+0x1a0>
    1968:	f94037e0 	ldr	x0, [sp, #104]
    196c:	aa1603f3 	mov	x19, x22
    1970:	8b3cc016 	add	x22, x0, w28, sxtw
    1974:	17fffde3 	b	1100 <vdprintf+0x1a0>
    1978:	f9400742 	ldr	x2, [x26, #8]
    197c:	aa1a03e0 	mov	x0, x26
    1980:	52800401 	mov	w1, #0x20                  	// #32
    1984:	b90077e7 	str	w7, [sp, #116]
    1988:	d100077b 	sub	x27, x27, #0x1
    198c:	d63f0040 	blr	x2
    1990:	b94077e7 	ldr	w7, [sp, #116]
    1994:	17ffffcf 	b	18d0 <vdprintf+0x970>
    1998:	11002397 	add	w23, w28, #0x8
    199c:	710002ff 	cmp	w23, #0x0
    19a0:	5400008d 	b.le	19b0 <vdprintf+0xa50>
    19a4:	91003ed3 	add	x19, x22, #0xf
    19a8:	927df273 	and	x19, x19, #0xfffffffffffffff8
    19ac:	17fffe49 	b	12d0 <vdprintf+0x370>
    19b0:	f94037e0 	ldr	x0, [sp, #104]
    19b4:	aa1603f3 	mov	x19, x22
    19b8:	8b3cc016 	add	x22, x0, w28, sxtw
    19bc:	17fffe45 	b	12d0 <vdprintf+0x370>
    19c0:	37f8011c 	tbnz	w28, #31, 19e0 <vdprintf+0xa80>
    19c4:	91002ed3 	add	x19, x22, #0xb
    19c8:	2a1c03f7 	mov	w23, w28
    19cc:	927df273 	and	x19, x19, #0xfffffffffffffff8
    19d0:	b94002c0 	ldr	w0, [x22]
    19d4:	375001b8 	tbnz	w24, #10, 1a08 <vdprintf+0xaa8>
    19d8:	93407c00 	sxtw	x0, w0
    19dc:	17fffe3e 	b	12d4 <vdprintf+0x374>
    19e0:	11002397 	add	w23, w28, #0x8
    19e4:	710002ff 	cmp	w23, #0x0
    19e8:	5400008d 	b.le	19f8 <vdprintf+0xa98>
    19ec:	91002ed3 	add	x19, x22, #0xb
    19f0:	927df273 	and	x19, x19, #0xfffffffffffffff8
    19f4:	17fffff7 	b	19d0 <vdprintf+0xa70>
    19f8:	f94037e0 	ldr	x0, [sp, #104]
    19fc:	aa1603f3 	mov	x19, x22
    1a00:	8b3cc016 	add	x22, x0, w28, sxtw
    1a04:	17fffff3 	b	19d0 <vdprintf+0xa70>
    1a08:	93403c01 	sxth	x1, w0
    1a0c:	f275031f 	tst	x24, #0x800
    1a10:	93401c00 	sxtb	x0, w0
    1a14:	9a811000 	csel	x0, x0, x1, ne	// ne = any
    1a18:	17fffe2f 	b	12d4 <vdprintf+0x374>
    1a1c:	910263fb 	add	x27, sp, #0x98
    1a20:	52800142 	mov	w2, #0xa                   	// #10
    1a24:	b90077e7 	str	w7, [sp, #116]
    1a28:	aa1b03e1 	mov	x1, x27
    1a2c:	94000000 	bl	1e5c <__ultoa_invert>	1a2c: R_AARCH64_CALL26	__ultoa_invert
    1a30:	cb1b0000 	sub	x0, x0, x27
    1a34:	b94077e7 	ldr	w7, [sp, #116]
    1a38:	12001c1b 	and	w27, w0, #0xff
    1a3c:	34000ab6 	cbz	w22, 1b90 <vdprintf+0xc30>
    1a40:	121f3b21 	and	w1, w25, #0xfffe
    1a44:	6b15037f 	cmp	w27, w21
    1a48:	54000e2a 	b.ge	1c0c <vdprintf+0xcac>  // b.tcont
    1a4c:	12001ea0 	and	w0, w21, #0xff
    1a50:	36200f59 	tbz	w25, #4, 1c38 <vdprintf+0xcd8>
    1a54:	37700e19 	tbnz	w25, #14, 1c14 <vdprintf+0xcb4>
    1a58:	12800221 	mov	w1, #0xffffffee            	// #-18
    1a5c:	0a010339 	and	w25, w25, w1
    1a60:	17fffe2b 	b	130c <vdprintf+0x3ac>
    1a64:	34000460 	cbz	w0, 1af0 <vdprintf+0xb90>
    1a68:	37f8031c 	tbnz	w28, #31, 1ac8 <vdprintf+0xb68>
    1a6c:	91003ed3 	add	x19, x22, #0xf
    1a70:	2a1c03f7 	mov	w23, w28
    1a74:	927df273 	and	x19, x19, #0xfffffffffffffff8
    1a78:	f94002c0 	ldr	x0, [x22]
    1a7c:	121d7719 	and	w25, w24, #0xfffffff9
    1a80:	12003f39 	and	w25, w25, #0xffff
    1a84:	7101c37f 	cmp	w27, #0x70
    1a88:	54000aa0 	b.eq	1bdc <vdprintf+0xc7c>  // b.none
    1a8c:	54000608 	b.hi	1b4c <vdprintf+0xbec>  // b.pmore
    1a90:	7101637f 	cmp	w27, #0x58
    1a94:	54000aa0 	b.eq	1be8 <vdprintf+0xc88>  // b.none
    1a98:	7101bf7f 	cmp	w27, #0x6f
    1a9c:	54000ae0 	b.eq	1bf8 <vdprintf+0xc98>  // b.none
    1aa0:	f9400742 	ldr	x2, [x26, #8]
    1aa4:	aa1a03e0 	mov	x0, x26
    1aa8:	528004a1 	mov	w1, #0x25                  	// #37
    1aac:	11000a94 	add	w20, w20, #0x2
    1ab0:	d63f0040 	blr	x2
    1ab4:	f9400742 	ldr	x2, [x26, #8]
    1ab8:	2a1b03e1 	mov	w1, w27
    1abc:	aa1a03e0 	mov	x0, x26
    1ac0:	d63f0040 	blr	x2
    1ac4:	140000b1 	b	1d88 <vdprintf+0xe28>
    1ac8:	11002397 	add	w23, w28, #0x8
    1acc:	710002ff 	cmp	w23, #0x0
    1ad0:	5400008d 	b.le	1ae0 <vdprintf+0xb80>
    1ad4:	91003ed3 	add	x19, x22, #0xf
    1ad8:	927df273 	and	x19, x19, #0xfffffffffffffff8
    1adc:	17ffffe7 	b	1a78 <vdprintf+0xb18>
    1ae0:	f94037e0 	ldr	x0, [sp, #104]
    1ae4:	aa1603f3 	mov	x19, x22
    1ae8:	8b3cc016 	add	x22, x0, w28, sxtw
    1aec:	17ffffe3 	b	1a78 <vdprintf+0xb18>
    1af0:	37f8011c 	tbnz	w28, #31, 1b10 <vdprintf+0xbb0>
    1af4:	91002ed3 	add	x19, x22, #0xb
    1af8:	2a1c03f7 	mov	w23, w28
    1afc:	927df273 	and	x19, x19, #0xfffffffffffffff8
    1b00:	b94002c0 	ldr	w0, [x22]
    1b04:	375001b8 	tbnz	w24, #10, 1b38 <vdprintf+0xbd8>
    1b08:	2a0003e0 	mov	w0, w0
    1b0c:	17ffffdc 	b	1a7c <vdprintf+0xb1c>
    1b10:	11002397 	add	w23, w28, #0x8
    1b14:	710002ff 	cmp	w23, #0x0
    1b18:	5400008d 	b.le	1b28 <vdprintf+0xbc8>
    1b1c:	91002ed3 	add	x19, x22, #0xb
    1b20:	927df273 	and	x19, x19, #0xfffffffffffffff8
    1b24:	17fffff7 	b	1b00 <vdprintf+0xba0>
    1b28:	f94037e0 	ldr	x0, [sp, #104]
    1b2c:	aa1603f3 	mov	x19, x22
    1b30:	8b3cc016 	add	x22, x0, w28, sxtw
    1b34:	17fffff3 	b	1b00 <vdprintf+0xba0>
    1b38:	92403c01 	and	x1, x0, #0xffff
    1b3c:	f275031f 	tst	x24, #0x800
    1b40:	92401c00 	and	x0, x0, #0xff
    1b44:	9a811000 	csel	x0, x0, x1, ne	// ne = any
    1b48:	17ffffcd 	b	1a7c <vdprintf+0xb1c>
    1b4c:	7101d77f 	cmp	w27, #0x75
    1b50:	540000c0 	b.eq	1b68 <vdprintf+0xc08>  // b.none
    1b54:	7101e37f 	cmp	w27, #0x78
    1b58:	54fffa41 	b.ne	1aa0 <vdprintf+0xb40>  // b.any
    1b5c:	37200438 	tbnz	w24, #4, 1be0 <vdprintf+0xc80>
    1b60:	52800202 	mov	w2, #0x10                  	// #16
    1b64:	14000004 	b	1b74 <vdprintf+0xc14>
    1b68:	128002d9 	mov	w25, #0xffffffe9            	// #-23
    1b6c:	0a190319 	and	w25, w24, w25
    1b70:	52800142 	mov	w2, #0xa                   	// #10
    1b74:	12180336 	and	w22, w25, #0x100
    1b78:	36400459 	tbz	w25, #8, 1c00 <vdprintf+0xca0>
    1b7c:	710002bf 	cmp	w21, #0x0
    1b80:	fa400800 	ccmp	x0, #0x0, #0x0, eq	// eq = none
    1b84:	540003e1 	b.ne	1c00 <vdprintf+0xca0>  // b.any
    1b88:	121f3b39 	and	w25, w25, #0xfffe
    1b8c:	5280001b 	mov	w27, #0x0                   	// #0
    1b90:	2a1b03e0 	mov	w0, w27
    1b94:	3627bbd9 	tbz	w25, #4, 130c <vdprintf+0x3ac>
    1b98:	51000761 	sub	w1, w27, #0x1
    1b9c:	910263e2 	add	x2, sp, #0x98
    1ba0:	3861c841 	ldrb	w1, [x2, w1, sxtw]
    1ba4:	7100c03f 	cmp	w1, #0x30
    1ba8:	540003a1 	b.ne	1c1c <vdprintf+0xcbc>  // b.any
    1bac:	128c0201 	mov	w1, #0xffff9fef            	// #-24593
    1bb0:	0a010339 	and	w25, w25, w1
    1bb4:	371805d9 	tbnz	w25, #3, 1c6c <vdprintf+0xd0c>
    1bb8:	360000d9 	tbz	w25, #0, 1bd0 <vdprintf+0xc70>
    1bbc:	6b0000ff 	cmp	w7, w0
    1bc0:	540007ad 	b.le	1cb4 <vdprintf+0xd54>
    1bc4:	4b0000e0 	sub	w0, w7, w0
    1bc8:	0b1b0015 	add	w21, w0, w27
    1bcc:	12001ce0 	and	w0, w7, #0xff
    1bd0:	4b140000 	sub	w0, w0, w20
    1bd4:	12001c16 	and	w22, w0, #0xff
    1bd8:	14000021 	b	1c5c <vdprintf+0xcfc>
    1bdc:	321c0339 	orr	w25, w25, #0x10
    1be0:	32120339 	orr	w25, w25, #0x4000
    1be4:	17ffffdf 	b	1b60 <vdprintf+0xc00>
    1be8:	36200058 	tbz	w24, #4, 1bf0 <vdprintf+0xc90>
    1bec:	32130739 	orr	w25, w25, #0x6000
    1bf0:	52804202 	mov	w2, #0x210                 	// #528
    1bf4:	17ffffe0 	b	1b74 <vdprintf+0xc14>
    1bf8:	52800102 	mov	w2, #0x8                   	// #8
    1bfc:	17ffffde 	b	1b74 <vdprintf+0xc14>
    1c00:	910263fb 	add	x27, sp, #0x98
    1c04:	b90077e7 	str	w7, [sp, #116]
    1c08:	17ffff88 	b	1a28 <vdprintf+0xac8>
    1c0c:	2a0103f9 	mov	w25, w1
    1c10:	17ffffe0 	b	1b90 <vdprintf+0xc30>
    1c14:	2a0103f9 	mov	w25, w1
    1c18:	17ffffe0 	b	1b98 <vdprintf+0xc38>
    1c1c:	11000401 	add	w1, w0, #0x1
    1c20:	11000800 	add	w0, w0, #0x2
    1c24:	12001c21 	and	w1, w1, #0xff
    1c28:	12001c00 	and	w0, w0, #0xff
    1c2c:	f272033f 	tst	x25, #0x4000
    1c30:	1a811000 	csel	w0, w0, w1, ne	// ne = any
    1c34:	17ffffe0 	b	1bb4 <vdprintf+0xc54>
    1c38:	2a0103f9 	mov	w25, w1
    1c3c:	17fffdb4 	b	130c <vdprintf+0x3ac>
    1c40:	f9400742 	ldr	x2, [x26, #8]
    1c44:	aa1a03e0 	mov	x0, x26
    1c48:	52800401 	mov	w1, #0x20                  	// #32
    1c4c:	b90077e7 	str	w7, [sp, #116]
    1c50:	11000694 	add	w20, w20, #0x1
    1c54:	d63f0040 	blr	x2
    1c58:	b94077e7 	ldr	w7, [sp, #116]
    1c5c:	0b1402c1 	add	w1, w22, w20
    1c60:	12001c20 	and	w0, w1, #0xff
    1c64:	6b2100ff 	cmp	w7, w1, uxtb
    1c68:	54fffecc 	b.gt	1c40 <vdprintf+0xce0>
    1c6c:	6b0000f6 	subs	w22, w7, w0
    1c70:	1a9fc2d6 	csel	w22, w22, wzr, gt
    1c74:	36200259 	tbz	w25, #4, 1cbc <vdprintf+0xd5c>
    1c78:	f9400742 	ldr	x2, [x26, #8]
    1c7c:	aa1a03e0 	mov	x0, x26
    1c80:	52800601 	mov	w1, #0x30                  	// #48
    1c84:	d63f0040 	blr	x2
    1c88:	36700599 	tbz	w25, #14, 1d38 <vdprintf+0xdd8>
    1c8c:	f9400742 	ldr	x2, [x26, #8]
    1c90:	f273033f 	tst	x25, #0x2000
    1c94:	52800f01 	mov	w1, #0x78                  	// #120
    1c98:	52800b00 	mov	w0, #0x58                  	// #88
    1c9c:	11000a94 	add	w20, w20, #0x2
    1ca0:	1a800021 	csel	w1, w1, w0, eq	// eq = none
    1ca4:	aa1a03e0 	mov	x0, x26
    1ca8:	d63f0040 	blr	x2
    1cac:	2a1503f9 	mov	w25, w21
    1cb0:	14000015 	b	1d04 <vdprintf+0xda4>
    1cb4:	2a1b03f5 	mov	w21, w27
    1cb8:	17ffffc6 	b	1bd0 <vdprintf+0xc70>
    1cbc:	528200c0 	mov	w0, #0x1006                	// #4102
    1cc0:	6a00033f 	tst	w25, w0
    1cc4:	54ffff40 	b.eq	1cac <vdprintf+0xd4c>  // b.none
    1cc8:	f27f033f 	tst	x25, #0x2
    1ccc:	52800401 	mov	w1, #0x20                  	// #32
    1cd0:	52800560 	mov	w0, #0x2b                  	// #43
    1cd4:	1a811000 	csel	w0, w0, w1, ne	// ne = any
    1cd8:	f274033f 	tst	x25, #0x1000
    1cdc:	528005a1 	mov	w1, #0x2d                  	// #45
    1ce0:	f9400742 	ldr	x2, [x26, #8]
    1ce4:	11000694 	add	w20, w20, #0x1
    1ce8:	1a810001 	csel	w1, w0, w1, eq	// eq = none
    1cec:	17ffffee 	b	1ca4 <vdprintf+0xd44>
    1cf0:	f9400742 	ldr	x2, [x26, #8]
    1cf4:	aa1a03e0 	mov	x0, x26
    1cf8:	51000739 	sub	w25, w25, #0x1
    1cfc:	52800601 	mov	w1, #0x30                  	// #48
    1d00:	d63f0040 	blr	x2
    1d04:	6b1b033f 	cmp	w25, w27
    1d08:	54ffff4c 	b.gt	1cf0 <vdprintf+0xd90>
    1d0c:	6b1b02a0 	subs	w0, w21, w27
    1d10:	2a1b03fc 	mov	w28, w27
    1d14:	1a9fa000 	csel	w0, w0, wzr, ge	// ge = tcont
    1d18:	0b140015 	add	w21, w0, w20
    1d1c:	910263f4 	add	x20, sp, #0x98
    1d20:	3500011b 	cbnz	w27, 1d40 <vdprintf+0xde0>
    1d24:	b94073e0 	ldr	w0, [sp, #112]
    1d28:	0b150395 	add	w21, w28, w21
    1d2c:	2a1703fc 	mov	w28, w23
    1d30:	b90077e0 	str	w0, [sp, #116]
    1d34:	17fffe7c 	b	1724 <vdprintf+0x7c4>
    1d38:	11000694 	add	w20, w20, #0x1
    1d3c:	17ffffdc 	b	1cac <vdprintf+0xd4c>
    1d40:	51000760 	sub	w0, w27, #0x1
    1d44:	12001c1b 	and	w27, w0, #0xff
    1d48:	92401c00 	and	x0, x0, #0xff
    1d4c:	f9400742 	ldr	x2, [x26, #8]
    1d50:	38606a81 	ldrb	w1, [x20, x0]
    1d54:	aa1a03e0 	mov	x0, x26
    1d58:	d63f0040 	blr	x2
    1d5c:	17fffff1 	b	1d20 <vdprintf+0xdc0>
    1d60:	f9400742 	ldr	x2, [x26, #8]
    1d64:	aa1a03e0 	mov	x0, x26
    1d68:	51000694 	sub	w20, w20, #0x1
    1d6c:	52800401 	mov	w1, #0x20                  	// #32
    1d70:	d63f0040 	blr	x2
    1d74:	35ffff74 	cbnz	w20, 1d60 <vdprintf+0xe00>
    1d78:	b94077e0 	ldr	w0, [sp, #116]
    1d7c:	0b1602b4 	add	w20, w21, w22
    1d80:	2a1c03f7 	mov	w23, w28
    1d84:	b90073e0 	str	w0, [sp, #112]
    1d88:	f9403fe3 	ldr	x3, [sp, #120]
    1d8c:	2a1703fc 	mov	w28, w23
    1d90:	aa1303f6 	mov	x22, x19
    1d94:	17fffc9a 	b	ffc <vdprintf+0x9c>
    1d98:	f9402bfc 	ldr	x28, [sp, #80]
    1d9c:	2a1403e0 	mov	w0, w20
    1da0:	a94157f4 	ldp	x20, x21, [sp, #16]
    1da4:	a9425ff6 	ldp	x22, x23, [sp, #32]
    1da8:	a94367f8 	ldp	x24, x25, [sp, #48]
    1dac:	a9446ffa 	ldp	x26, x27, [sp, #64]
    1db0:	a8cb4ffe 	ldp	x30, x19, [sp], #176
    1db4:	d65f03c0 	ret

0000000000001db8 <lib_sprintf_internal>:
lib_sprintf_internal():
    1db8:	d10403ff 	sub	sp, sp, #0x100
    1dbc:	a90d0fe2 	stp	x2, x3, [sp, #208]
    1dc0:	910403e2 	add	x2, sp, #0x100
    1dc4:	aa0103e3 	mov	x3, x1
    1dc8:	a9030be2 	stp	x2, x2, [sp, #48]
    1dcc:	910343e2 	add	x2, sp, #0xd0
    1dd0:	d2800001 	mov	x1, #0x0                   	// #0
    1dd4:	3dc00fff 	ldr	q31, [sp, #48]
    1dd8:	f90023e2 	str	x2, [sp, #64]
    1ddc:	128005e2 	mov	w2, #0xffffffd0            	// #-48
    1de0:	b9004be2 	str	w2, [sp, #72]
    1de4:	12800fe2 	mov	w2, #0xffffff80            	// #-128
    1de8:	b9004fe2 	str	w2, [sp, #76]
    1dec:	3d8007ff 	str	q31, [sp, #16]
    1df0:	52800002 	mov	w2, #0x0                   	// #0
    1df4:	3dc013ff 	ldr	q31, [sp, #64]
    1df8:	f90003fe 	str	x30, [sp]
    1dfc:	ad0287e0 	stp	q0, q1, [sp, #80]
    1e00:	3d800bff 	str	q31, [sp, #32]
    1e04:	ad038fe2 	stp	q2, q3, [sp, #112]
    1e08:	ad0497e4 	stp	q4, q5, [sp, #144]
    1e0c:	ad059fe6 	stp	q6, q7, [sp, #176]
    1e10:	a90e17e4 	stp	x4, x5, [sp, #224]
    1e14:	910043e4 	add	x4, sp, #0x10
    1e18:	a90f1fe6 	stp	x6, x7, [sp, #240]
    1e1c:	94000000 	bl	0 <memcpy>	1e1c: R_AARCH64_CALL26	.text+0xfc4
    1e20:	f94003fe 	ldr	x30, [sp]
    1e24:	910403ff 	add	sp, sp, #0x100
    1e28:	d65f03c0 	ret

0000000000001e2c <lib_vsprintf_internal>:
lib_vsprintf_internal():
    1e2c:	f81d0ffe 	str	x30, [sp, #-48]!
    1e30:	aa0103e3 	mov	x3, x1
    1e34:	d2800001 	mov	x1, #0x0                   	// #0
    1e38:	ad407c5e 	ldp	q30, q31, [x2]
    1e3c:	910043e4 	add	x4, sp, #0x10
    1e40:	52800002 	mov	w2, #0x0                   	// #0
    1e44:	3d8007fe 	str	q30, [sp, #16]
    1e48:	3d80049f 	str	q31, [x4, #16]
    1e4c:	94000000 	bl	0 <memcpy>	1e4c: R_AARCH64_CALL26	.text+0xfc4
    1e50:	f84307fe 	ldr	x30, [sp], #48
    1e54:	d65f03c0 	ret

0000000000001e58 <lib_vsprintf>:
lib_vsprintf():
    1e58:	14000000 	b	1e2c <lib_vsprintf_internal>	1e58: R_AARCH64_JUMP26	lib_vsprintf_internal

0000000000001e5c <__ultoa_invert>:
__ultoa_invert():
    1e5c:	aa0003e4 	mov	x4, x0
    1e60:	aa0103e0 	mov	x0, x1
    1e64:	12170041 	and	w1, w2, #0x200
    1e68:	36480062 	tbz	w2, #9, 1e74 <__ultoa_invert+0x18>
    1e6c:	12167842 	and	w2, w2, #0xfffffdff
    1e70:	52800021 	mov	w1, #0x1                   	// #1
    1e74:	93407c42 	sxtw	x2, w2
    1e78:	9ac20885 	udiv	x5, x4, x2
    1e7c:	aa0403e6 	mov	x6, x4
    1e80:	9b0290a3 	msub	x3, x5, x2, x4
    1e84:	aa0503e4 	mov	x4, x5
    1e88:	7100247f 	cmp	w3, #0x9
    1e8c:	540000cc 	b.gt	1ea4 <__ultoa_invert+0x48>
    1e90:	1100c063 	add	w3, w3, #0x30
    1e94:	38001403 	strb	w3, [x0], #1
    1e98:	eb06005f 	cmp	x2, x6
    1e9c:	54fffee9 	b.ls	1e78 <__ultoa_invert+0x1c>  // b.plast
    1ea0:	d65f03c0 	ret
    1ea4:	1100dc65 	add	w5, w3, #0x37
    1ea8:	7100003f 	cmp	w1, #0x0
    1eac:	11015c63 	add	w3, w3, #0x57
    1eb0:	1a850063 	csel	w3, w3, w5, eq	// eq = none
    1eb4:	17fffff8 	b	1e94 <__ultoa_invert+0x38>

0000000000001eb8 <__dtoa_engine>:
__dtoa_engine():
    1eb8:	1e602018 	fcmpe	d0, #0.0
    1ebc:	aa0003e4 	mov	x4, x0
    1ec0:	2a0103e0 	mov	w0, w1
    1ec4:	540000e4 	b.mi	1ee0 <__dtoa_engine+0x28>  // b.first
    1ec8:	1e602008 	fcmp	d0, #0.0
    1ecc:	54000480 	b.eq	1f5c <__dtoa_engine+0xa4>  // b.none
    1ed0:	1e602000 	fcmp	d0, d0
    1ed4:	54000c81 	b.ne	2064 <__dtoa_engine+0x1ac>  // b.any
    1ed8:	52800001 	mov	w1, #0x0                   	// #0
    1edc:	14000003 	b	1ee8 <__dtoa_engine+0x30>
    1ee0:	1e614000 	fneg	d0, d0
    1ee4:	52800021 	mov	w1, #0x1                   	// #1
    1ee8:	90000003 	adrp	x3, ebb8 <_srodata>	1ee8: R_AARCH64_ADR_PREL_PG_HI21	.rodata+0x58
    1eec:	fd400065 	ldr	d5, [x3]	1eec: R_AARCH64_LDST64_ABS_LO12_NC	.rodata+0x58
    1ef0:	1e6508a5 	fmul	d5, d5, d5
    1ef4:	1e6020a0 	fcmp	d5, d0
    1ef8:	540003a0 	b.eq	1f6c <__dtoa_engine+0xb4>  // b.none
    1efc:	90000003 	adrp	x3, ebb8 <_srodata>	1efc: R_AARCH64_ADR_PREL_PG_HI21	.rodata+0x60
    1f00:	d2800105 	mov	x5, #0x8                   	// #8
    1f04:	fd40007e 	ldr	d30, [x3]	1f04: R_AARCH64_LDST64_ABS_LO12_NC	.rodata+0x60
    1f08:	528001e3 	mov	w3, #0xf                   	// #15
    1f0c:	1e7e2010 	fcmpe	d0, d30
    1f10:	54000324 	b.mi	1f74 <__dtoa_engine+0xbc>  // b.first
    1f14:	90000006 	adrp	x6, eca8 <g_dtoa_scale_down>	1f14: R_AARCH64_ADR_PREL_PG_HI21	g_dtoa_scale_down
    1f18:	910000c6 	add	x6, x6, #0x0	1f18: R_AARCH64_ADD_ABS_LO12_NC	g_dtoa_scale_down
    1f1c:	52800027 	mov	w7, #0x1                   	// #1
    1f20:	fc6578c2 	ldr	d2, [x6, x5, lsl #3]
    1f24:	1e620802 	fmul	d2, d0, d2
    1f28:	1e7e2050 	fcmpe	d2, d30
    1f2c:	540007ea 	b.ge	2028 <__dtoa_engine+0x170>  // b.tcont
    1f30:	d10004a5 	sub	x5, x5, #0x1
    1f34:	b10004bf 	cmn	x5, #0x1
    1f38:	54ffff41 	b.ne	1f20 <__dtoa_engine+0x68>  // b.any
    1f3c:	1400001a 	b	1fa4 <__dtoa_engine+0xec>
    1f40:	38216843 	strb	w3, [x2, x1]
    1f44:	91000421 	add	x1, x1, #0x1
    1f48:	6b01001f 	cmp	w0, w1
    1f4c:	54ffffac 	b.gt	1f40 <__dtoa_engine+0x88>
    1f50:	52800041 	mov	w1, #0x2                   	// #2
    1f54:	52800003 	mov	w3, #0x0                   	// #0
    1f58:	1400002b 	b	2004 <__dtoa_engine+0x14c>
    1f5c:	91001482 	add	x2, x4, #0x5
    1f60:	d2800001 	mov	x1, #0x0                   	// #0
    1f64:	52800603 	mov	w3, #0x30                  	// #48
    1f68:	17fffff8 	b	1f48 <__dtoa_engine+0x90>
    1f6c:	321e0021 	orr	w1, w1, #0x4
    1f70:	17fffff9 	b	1f54 <__dtoa_engine+0x9c>
    1f74:	90000007 	adrp	x7, ebb8 <_srodata>	1f74: R_AARCH64_ADR_PREL_PG_HI21	.rodata+0x68
    1f78:	90000006 	adrp	x6, ecf0 <g_dtoa_scale_up>	1f78: R_AARCH64_ADR_PREL_PG_HI21	g_dtoa_scale_up
    1f7c:	910000c6 	add	x6, x6, #0x0	1f7c: R_AARCH64_ADD_ABS_LO12_NC	g_dtoa_scale_up
    1f80:	fd4000e4 	ldr	d4, [x7]	1f80: R_AARCH64_LDST64_ABS_LO12_NC	.rodata+0x68
    1f84:	52800027 	mov	w7, #0x1                   	// #1
    1f88:	fc6578c3 	ldr	d3, [x6, x5, lsl #3]
    1f8c:	1e630803 	fmul	d3, d0, d3
    1f90:	1e642070 	fcmpe	d3, d4
    1f94:	54000424 	b.mi	2018 <__dtoa_engine+0x160>  // b.first
    1f98:	d10004a5 	sub	x5, x5, #0x1
    1f9c:	b10004bf 	cmn	x5, #0x1
    1fa0:	54ffff41 	b.ne	1f88 <__dtoa_engine+0xd0>  // b.any
    1fa4:	340000e2 	cbz	w2, 1fc0 <__dtoa_engine+0x108>
    1fa8:	7100007f 	cmp	w3, #0x0
    1fac:	5a9fa065 	csinv	w5, w3, wzr, ge	// ge = tcont
    1fb0:	110004a5 	add	w5, w5, #0x1
    1fb4:	0b0200a2 	add	w2, w5, w2
    1fb8:	6b02001f 	cmp	w0, w2
    1fbc:	1a82d000 	csel	w0, w0, w2, le
    1fc0:	90000002 	adrp	x2, ec28 <g_dtoa_round>	1fc0: R_AARCH64_ADR_PREL_PG_HI21	g_dtoa_round
    1fc4:	91000042 	add	x2, x2, #0x0	1fc4: R_AARCH64_ADD_ABS_LO12_NC	g_dtoa_round
    1fc8:	fc60d85f 	ldr	d31, [x2, w0, sxtw #3]
    1fcc:	90000002 	adrp	x2, ebb8 <_srodata>	1fcc: R_AARCH64_ADR_PREL_PG_HI21	.rodata+0x68
    1fd0:	fd400041 	ldr	d1, [x2]	1fd0: R_AARCH64_LDST64_ABS_LO12_NC	.rodata+0x68
    1fd4:	1e7f281f 	fadd	d31, d0, d31
    1fd8:	1e6123f0 	fcmpe	d31, d1
    1fdc:	540002ea 	b.ge	2038 <__dtoa_engine+0x180>  // b.tcont
    1fe0:	9e7903e6 	fcvtzu	x6, d31
    1fe4:	b2718be5 	mov	x5, #0x3ffffffff8000       	// #1125899906809856
    1fe8:	f2b498c5 	movk	x5, #0xa4c6, lsl #16
    1fec:	91001488 	add	x8, x4, #0x5
    1ff0:	d2800002 	mov	x2, #0x0                   	// #0
    1ff4:	f2d1afc5 	movk	x5, #0x8d7e, lsl #32
    1ff8:	d2800149 	mov	x9, #0xa                   	// #10
    1ffc:	6b02001f 	cmp	w0, w2
    2000:	5400024c 	b.gt	2048 <__dtoa_engine+0x190>
    2004:	8b20c082 	add	x2, x4, w0, sxtw
    2008:	3900145f 	strb	wzr, [x2, #5]
    200c:	b9000083 	str	w3, [x4]
    2010:	39001081 	strb	w1, [x4, #4]
    2014:	d65f03c0 	ret
    2018:	1ac520e8 	lsl	w8, w7, w5
    201c:	1e604060 	fmov	d0, d3
    2020:	4b080063 	sub	w3, w3, w8
    2024:	17ffffdd 	b	1f98 <__dtoa_engine+0xe0>
    2028:	1ac520e8 	lsl	w8, w7, w5
    202c:	1e604040 	fmov	d0, d2
    2030:	0b080063 	add	w3, w3, w8
    2034:	17ffffbf 	b	1f30 <__dtoa_engine+0x78>
    2038:	1e64901d 	fmov	d29, #1.000000000000000000e+01
    203c:	11000463 	add	w3, w3, #0x1
    2040:	1e7d1bff 	fdiv	d31, d31, d29
    2044:	17ffffe7 	b	1fe0 <__dtoa_engine+0x128>
    2048:	9ac508c7 	udiv	x7, x6, x5
    204c:	9b0598e6 	msub	x6, x7, x5, x6
    2050:	1100c0ea 	add	w10, w7, #0x30
    2054:	9ac908a5 	udiv	x5, x5, x9
    2058:	3822690a 	strb	w10, [x8, x2]
    205c:	91000442 	add	x2, x2, #0x1
    2060:	17ffffe7 	b	1ffc <__dtoa_engine+0x144>
    2064:	52800101 	mov	w1, #0x8                   	// #8
    2068:	17ffffbb 	b	1f54 <__dtoa_engine+0x9c>

000000000000206c <exit>:
exit():
    206c:	a9be7bfd 	stp	x29, x30, [sp, #-32]!
    2070:	d2800001 	mov	x1, #0x0                   	// #0
    2074:	910003fd 	mov	x29, sp
    2078:	f9000bf3 	str	x19, [sp, #16]
    207c:	2a0003f3 	mov	w19, w0
    2080:	52800020 	mov	w0, #0x1                   	// #1
    2084:	94000000 	bl	2a1c <task_setcancelstate>	2084: R_AARCH64_CALL26	task_setcancelstate
    2088:	52800001 	mov	w1, #0x0                   	// #0
    208c:	2a1303e0 	mov	w0, w19
    2090:	94000000 	bl	218c <atexit_call_exitfuncs>	2090: R_AARCH64_CALL26	atexit_call_exitfuncs
    2094:	d2800000 	mov	x0, #0x0                   	// #0
    2098:	94000000 	bl	2bfc <fflush>	2098: R_AARCH64_CALL26	fflush
    209c:	2a1303e0 	mov	w0, w19
    20a0:	94000000 	bl	2ec0 <_exit>	20a0: R_AARCH64_CALL26	_exit

00000000000020a4 <quick_exit>:
quick_exit():
    20a4:	a9be7bfd 	stp	x29, x30, [sp, #-32]!
    20a8:	d2800001 	mov	x1, #0x0                   	// #0
    20ac:	910003fd 	mov	x29, sp
    20b0:	f9000bf3 	str	x19, [sp, #16]
    20b4:	2a0003f3 	mov	w19, w0
    20b8:	52800020 	mov	w0, #0x1                   	// #1
    20bc:	94000000 	bl	2a1c <task_setcancelstate>	20bc: R_AARCH64_CALL26	task_setcancelstate
    20c0:	52800021 	mov	w1, #0x1                   	// #1
    20c4:	2a1303e0 	mov	w0, w19
    20c8:	94000000 	bl	218c <atexit_call_exitfuncs>	20c8: R_AARCH64_CALL26	atexit_call_exitfuncs
    20cc:	2a1303e0 	mov	w0, w19
    20d0:	94000000 	bl	2ec0 <_exit>	20d0: R_AARCH64_CALL26	_exit

00000000000020d4 <_Exit>:
_Exit():
    20d4:	f81f0ffe 	str	x30, [sp, #-16]!
    20d8:	94000000 	bl	2ec0 <_exit>	20d8: R_AARCH64_CALL26	_exit

00000000000020dc <atexit_register>:
atexit_register():
    20dc:	a9bc4ffe 	stp	x30, x19, [sp, #-64]!
    20e0:	a90157f4 	stp	x20, x21, [sp, #16]
    20e4:	a9025ff6 	stp	x22, x23, [sp, #32]
    20e8:	aa0103f6 	mov	x22, x1
    20ec:	aa0203f7 	mov	x23, x2
    20f0:	f9001bf8 	str	x24, [sp, #48]
    20f4:	2a0003f8 	mov	w24, w0
    20f8:	94000000 	bl	242c <task_get_info>	20f8: R_AARCH64_CALL26	task_get_info
    20fc:	aa0003f5 	mov	x21, x0
    2100:	94000000 	bl	242c <task_get_info>	2100: R_AARCH64_CALL26	task_get_info
    2104:	b4000416 	cbz	x22, 2184 <atexit_register+0xa8>
    2108:	aa0003f4 	mov	x20, x0
    210c:	aa1503e0 	mov	x0, x21
    2110:	94000000 	bl	2534 <nxmutex_lock>	2110: R_AARCH64_CALL26	nxmutex_lock
    2114:	36f80100 	tbz	w0, #31, 2134 <atexit_register+0x58>
    2118:	4b0003f3 	neg	w19, w0
    211c:	f9401bf8 	ldr	x24, [sp, #48]
    2120:	2a1303e0 	mov	w0, w19
    2124:	a94157f4 	ldp	x20, x21, [sp, #16]
    2128:	a9425ff6 	ldp	x22, x23, [sp, #32]
    212c:	a8c44ffe 	ldp	x30, x19, [sp], #64
    2130:	d65f03c0 	ret
    2134:	b9402283 	ldr	w3, [x20, #32]
    2138:	91008281 	add	x1, x20, #0x20
    213c:	71003c7f 	cmp	w3, #0xf
    2140:	540001ec 	b.gt	217c <atexit_register+0xa0>
    2144:	93407c60 	sxtw	x0, w3
    2148:	52800304 	mov	w4, #0x18                  	// #24
    214c:	d2800302 	mov	x2, #0x18                  	// #24
    2150:	52800013 	mov	w19, #0x0                   	// #0
    2154:	9b245064 	smaddl	x4, w3, w4, x20
    2158:	11000463 	add	w3, w3, #0x1
    215c:	9b020400 	madd	x0, x0, x2, x1
    2160:	b9002898 	str	w24, [x4, #40]
    2164:	f9001896 	str	x22, [x4, #48]
    2168:	f9000c17 	str	x23, [x0, #24]
    216c:	b9002283 	str	w3, [x20, #32]
    2170:	aa1503e0 	mov	x0, x21
    2174:	94000000 	bl	26ac <nxmutex_unlock>	2174: R_AARCH64_CALL26	nxmutex_unlock
    2178:	17ffffe9 	b	211c <atexit_register+0x40>
    217c:	12800013 	mov	w19, #0xffffffff            	// #-1
    2180:	17fffffc 	b	2170 <atexit_register+0x94>
    2184:	12800013 	mov	w19, #0xffffffff            	// #-1
    2188:	17ffffe5 	b	211c <atexit_register+0x40>

000000000000218c <atexit_call_exitfuncs>:
atexit_call_exitfuncs():
    218c:	a9bd4ffe 	stp	x30, x19, [sp, #-48]!
    2190:	a90157f4 	stp	x20, x21, [sp, #16]
    2194:	2a0003f5 	mov	w21, w0
    2198:	f90013f6 	str	x22, [sp, #32]
    219c:	12001c36 	and	w22, w1, #0xff
    21a0:	94000000 	bl	242c <task_get_info>	21a0: R_AARCH64_CALL26	task_get_info
    21a4:	b9402013 	ldr	w19, [x0, #32]
    21a8:	52800301 	mov	w1, #0x18                  	// #24
    21ac:	51000674 	sub	w20, w19, #0x1
    21b0:	9b210273 	smaddl	x19, w19, w1, x0
    21b4:	36f800b4 	tbz	w20, #31, 21c8 <atexit_call_exitfuncs+0x3c>
    21b8:	f94013f6 	ldr	x22, [sp, #32]
    21bc:	a94157f4 	ldp	x20, x21, [sp, #16]
    21c0:	a8c34ffe 	ldp	x30, x19, [sp], #48
    21c4:	d65f03c0 	ret
    21c8:	a9418262 	ldp	x2, x0, [x19, #24]
    21cc:	a901fe7f 	stp	xzr, xzr, [x19, #24]
    21d0:	b9401263 	ldr	w3, [x19, #16]
    21d4:	b4000122 	cbz	x2, 21f8 <atexit_call_exitfuncs+0x6c>
    21d8:	7100087f 	cmp	w3, #0x2
    21dc:	1a9f17e1 	cset	w1, eq	// eq = none
    21e0:	6b16003f 	cmp	w1, w22
    21e4:	540000a1 	b.ne	21f8 <atexit_call_exitfuncs+0x6c>  // b.any
    21e8:	51000461 	sub	w1, w3, #0x1
    21ec:	7100043f 	cmp	w1, #0x1
    21f0:	540000a8 	b.hi	2204 <atexit_call_exitfuncs+0x78>  // b.pmore
    21f4:	d63f0040 	blr	x2
    21f8:	51000694 	sub	w20, w20, #0x1
    21fc:	d1006273 	sub	x19, x19, #0x18
    2200:	17ffffed 	b	21b4 <atexit_call_exitfuncs+0x28>
    2204:	71000c7f 	cmp	w3, #0x3
    2208:	540000a1 	b.ne	221c <atexit_call_exitfuncs+0x90>  // b.any
    220c:	aa0003e1 	mov	x1, x0
    2210:	2a1503e0 	mov	w0, w21
    2214:	d63f0040 	blr	x2
    2218:	17fffff8 	b	21f8 <atexit_call_exitfuncs+0x6c>
    221c:	7100107f 	cmp	w3, #0x4
    2220:	54fffec1 	b.ne	21f8 <atexit_call_exitfuncs+0x6c>  // b.any
    2224:	d63f0040 	blr	x2
    2228:	17fffff4 	b	21f8 <atexit_call_exitfuncs+0x6c>

000000000000222c <atexit>:
atexit():
    222c:	aa0003e1 	mov	x1, x0
    2230:	d2800003 	mov	x3, #0x0                   	// #0
    2234:	d2800002 	mov	x2, #0x0                   	// #0
    2238:	52800020 	mov	w0, #0x1                   	// #1
    223c:	14000000 	b	20dc <atexit_register>	223c: R_AARCH64_JUMP26	atexit_register

0000000000002240 <at_quick_exit>:
at_quick_exit():
    2240:	aa0003e1 	mov	x1, x0
    2244:	d2800003 	mov	x3, #0x0                   	// #0
    2248:	d2800002 	mov	x2, #0x0                   	// #0
    224c:	52800040 	mov	w0, #0x2                   	// #2
    2250:	14000000 	b	20dc <atexit_register>	2250: R_AARCH64_JUMP26	atexit_register

0000000000002254 <on_exit>:
on_exit():
    2254:	aa0103e2 	mov	x2, x1
    2258:	d2800003 	mov	x3, #0x0                   	// #0
    225c:	aa0003e1 	mov	x1, x0
    2260:	52800060 	mov	w0, #0x3                   	// #3
    2264:	14000000 	b	20dc <atexit_register>	2264: R_AARCH64_JUMP26	atexit_register

0000000000002268 <__cxa_atexit>:
__cxa_atexit():
    2268:	aa0203e3 	mov	x3, x2
    226c:	aa0103e2 	mov	x2, x1
    2270:	aa0003e1 	mov	x1, x0
    2274:	52800080 	mov	w0, #0x4                   	// #4
    2278:	14000000 	b	20dc <atexit_register>	2278: R_AARCH64_JUMP26	atexit_register
    227c:	a9be4ffe 	stp	x30, x19, [sp, #-32]!
    2280:	aa0003f3 	mov	x19, x0
    2284:	a90157f4 	stp	x20, x21, [sp, #16]
    2288:	aa0103f4 	mov	x20, x1
    228c:	aa0203f5 	mov	x21, x2
    2290:	b9402260 	ldr	w0, [x19, #32]
    2294:	aa1503e2 	mov	x2, x21
    2298:	aa1403e1 	mov	x1, x20
    229c:	94000000 	bl	2fe0 <write>	229c: R_AARCH64_CALL26	write
    22a0:	b7f800e0 	tbnz	x0, #63, 22bc <__cxa_atexit+0x54>
    22a4:	b9400261 	ldr	w1, [x19]
    22a8:	0b000021 	add	w1, w1, w0
    22ac:	b9000261 	str	w1, [x19]
    22b0:	a94157f4 	ldp	x20, x21, [sp, #16]
    22b4:	a8c24ffe 	ldp	x30, x19, [sp], #32
    22b8:	d65f03c0 	ret
    22bc:	94000000 	bl	2454 <__errno>	22bc: R_AARCH64_CALL26	__errno
    22c0:	b9400003 	ldr	w3, [x0]
    22c4:	7100007f 	cmp	w3, #0x0
    22c8:	540000ec 	b.gt	22e4 <__cxa_atexit+0x7c>
    22cc:	90000002 	adrp	x2, ebb8 <_srodata>	22cc: R_AARCH64_ADR_PREL_PG_HI21	.rodata+0x180
    22d0:	90000000 	adrp	x0, ebb8 <_srodata>	22d0: R_AARCH64_ADR_PREL_PG_HI21	.rodata+0x18d
    22d4:	91000042 	add	x2, x2, #0x0	22d4: R_AARCH64_ADD_ABS_LO12_NC	.rodata+0x180
    22d8:	91000000 	add	x0, x0, #0x0	22d8: R_AARCH64_ADD_ABS_LO12_NC	.rodata+0x18d
    22dc:	52800861 	mov	w1, #0x43                  	// #67
    22e0:	94000000 	bl	2444 <__assert>	22e0: R_AARCH64_CALL26	__assert
    22e4:	7100107f 	cmp	w3, #0x4
    22e8:	54fffd40 	b.eq	2290 <__cxa_atexit+0x28>  // b.none
    22ec:	4b0303e0 	neg	w0, w3
    22f0:	93407c00 	sxtw	x0, w0
    22f4:	17ffffef 	b	22b0 <__cxa_atexit+0x48>
    22f8:	f81e0ffe 	str	x30, [sp, #-32]!
    22fc:	d2800022 	mov	x2, #0x1                   	// #1
    2300:	39007fe1 	strb	w1, [sp, #31]
    2304:	91007fe1 	add	x1, sp, #0x1f
    2308:	94000000 	bl	0 <memcpy>	2308: R_AARCH64_CALL26	.text+0x227c
    230c:	f84207fe 	ldr	x30, [sp], #32
    2310:	d65f03c0 	ret

0000000000002314 <lib_rawoutstream>:
lib_rawoutstream():
    2314:	90000002 	adrp	x2, 0 <memcpy>	2314: R_AARCH64_ADR_PREL_PG_HI21	.text+0x22f8
    2318:	91000042 	add	x2, x2, #0x0	2318: R_AARCH64_ADD_ABS_LO12_NC	.text+0x22f8
    231c:	90000003 	adrp	x3, 0 <memcpy>	231c: R_AARCH64_ADR_PREL_PG_HI21	.text+0x227c
    2320:	91000063 	add	x3, x3, #0x0	2320: R_AARCH64_ADD_ABS_LO12_NC	.text+0x227c
    2324:	b900001f 	str	wzr, [x0]
    2328:	a9008c02 	stp	x2, x3, [x0, #8]
    232c:	90000002 	adrp	x2, 2340 <lib_noflush>	232c: R_AARCH64_ADR_PREL_PG_HI21	lib_noflush
    2330:	91000042 	add	x2, x2, #0x0	2330: R_AARCH64_ADD_ABS_LO12_NC	lib_noflush
    2334:	f9000c02 	str	x2, [x0, #24]
    2338:	b9002001 	str	w1, [x0, #32]
    233c:	d65f03c0 	ret

0000000000002340 <lib_noflush>:
lib_noflush():
    2340:	52800000 	mov	w0, #0x0                   	// #0
    2344:	d65f03c0 	ret
    2348:	a9bf4ffe 	stp	x30, x19, [sp, #-16]!
    234c:	aa0003f3 	mov	x19, x0
    2350:	9100c261 	add	x1, x19, #0x30
    2354:	a9420800 	ldp	x0, x2, [x0, #32]
    2358:	f9400803 	ldr	x3, [x0, #16]
    235c:	d63f0060 	blr	x3
    2360:	37f80040 	tbnz	w0, #31, 2368 <lib_noflush+0x28>
    2364:	f900167f 	str	xzr, [x19, #40]
    2368:	a8c14ffe 	ldp	x30, x19, [sp], #16
    236c:	d65f03c0 	ret
    2370:	a9be4ffe 	stp	x30, x19, [sp, #-32]!
    2374:	aa0003f3 	mov	x19, x0
    2378:	a90157f4 	stp	x20, x21, [sp, #16]
    237c:	aa0203f4 	mov	x20, x2
    2380:	f9401403 	ldr	x3, [x0, #40]
    2384:	8b020064 	add	x4, x3, x2
    2388:	f101009f 	cmp	x4, #0x40
    238c:	54000189 	b.ls	23bc <lib_noflush+0x7c>  // b.plast
    2390:	aa0103f5 	mov	x21, x1
    2394:	f9400c01 	ldr	x1, [x0, #24]
    2398:	d63f0020 	blr	x1
    239c:	f9401260 	ldr	x0, [x19, #32]
    23a0:	aa1403e2 	mov	x2, x20
    23a4:	aa1503e1 	mov	x1, x21
    23a8:	a94157f4 	ldp	x20, x21, [sp, #16]
    23ac:	a8c24ffe 	ldp	x30, x19, [sp], #32
    23b0:	f9400803 	ldr	x3, [x0, #16]
    23b4:	aa0303f0 	mov	x16, x3
    23b8:	d61f0200 	br	x16
    23bc:	9100c000 	add	x0, x0, #0x30
    23c0:	8b030000 	add	x0, x0, x3
    23c4:	94000000 	bl	0 <memcpy>	23c4: R_AARCH64_CALL26	memcpy
    23c8:	f9401660 	ldr	x0, [x19, #40]
    23cc:	8b140000 	add	x0, x0, x20
    23d0:	f9001660 	str	x0, [x19, #40]
    23d4:	aa1403e0 	mov	x0, x20
    23d8:	a94157f4 	ldp	x20, x21, [sp, #16]
    23dc:	a8c24ffe 	ldp	x30, x19, [sp], #32
    23e0:	d65f03c0 	ret
    23e4:	f81e0ffe 	str	x30, [sp, #-32]!
    23e8:	d2800022 	mov	x2, #0x1                   	// #1
    23ec:	39007fe1 	strb	w1, [sp, #31]
    23f0:	91007fe1 	add	x1, sp, #0x1f
    23f4:	94000000 	bl	0 <memcpy>	23f4: R_AARCH64_CALL26	.text+0x2370
    23f8:	f84207fe 	ldr	x30, [sp], #32
    23fc:	d65f03c0 	ret

0000000000002400 <lib_bufferedoutstream>:
lib_bufferedoutstream():
    2400:	90000002 	adrp	x2, 0 <memcpy>	2400: R_AARCH64_ADR_PREL_PG_HI21	.text+0x23e4
    2404:	91000042 	add	x2, x2, #0x0	2404: R_AARCH64_ADD_ABS_LO12_NC	.text+0x23e4
    2408:	90000003 	adrp	x3, 0 <memcpy>	2408: R_AARCH64_ADR_PREL_PG_HI21	.text+0x2370
    240c:	91000063 	add	x3, x3, #0x0	240c: R_AARCH64_ADD_ABS_LO12_NC	.text+0x2370
    2410:	b900001f 	str	wzr, [x0]
    2414:	a9008c02 	stp	x2, x3, [x0, #8]
    2418:	90000002 	adrp	x2, 0 <memcpy>	2418: R_AARCH64_ADR_PREL_PG_HI21	.text+0x2348
    241c:	91000042 	add	x2, x2, #0x0	241c: R_AARCH64_ADD_ABS_LO12_NC	.text+0x2348
    2420:	a9018402 	stp	x2, x1, [x0, #24]
    2424:	f900141f 	str	xzr, [x0, #40]
    2428:	d65f03c0 	ret

000000000000242c <task_get_info>:
task_get_info():
    242c:	a9bf7bfd 	stp	x29, x30, [sp, #-16]!
    2430:	910003fd 	mov	x29, sp
    2434:	9273cba0 	and	x0, x29, #0xffffffffffffe000
    2438:	a8c17bfd 	ldp	x29, x30, [sp], #16
    243c:	f9400000 	ldr	x0, [x0]
    2440:	d65f03c0 	ret

0000000000002444 <__assert>:
__assert():
    2444:	d2800003 	mov	x3, #0x0                   	// #0
    2448:	f81f0ffe 	str	x30, [sp, #-16]!
    244c:	94000000 	bl	2e98 <_assert>	244c: R_AARCH64_CALL26	_assert
    2450:	94000000 	bl	2e68 <abort>	2450: R_AARCH64_CALL26	abort

0000000000002454 <__errno>:
__errno():
    2454:	a9bf7bfd 	stp	x29, x30, [sp, #-16]!
    2458:	d283ffe2 	mov	x2, #0x1fff                	// #8191
    245c:	90000000 	adrp	x0, 2c8 <memcmp+0x48>	245c: R_AARCH64_ADR_PREL_PG_HI21	.bss
    2460:	910003fd 	mov	x29, sp
    2464:	91000000 	add	x0, x0, #0x0	2464: R_AARCH64_ADD_ABS_LO12_NC	.bss
    2468:	9273cba1 	and	x1, x29, #0xffffffffffffe000
    246c:	eb0203bf 	cmp	x29, x2
    2470:	91003021 	add	x1, x1, #0xc
    2474:	9a819000 	csel	x0, x0, x1, ls	// ls = plast
    2478:	a8c17bfd 	ldp	x29, x30, [sp], #16
    247c:	d65f03c0 	ret

0000000000002480 <nxmutex_init>:
nxmutex_init():
    2480:	a9be4ffe 	stp	x30, x19, [sp, #-32]!
    2484:	52800022 	mov	w2, #0x1                   	// #1
    2488:	52800001 	mov	w1, #0x0                   	// #0
    248c:	f9000bf4 	str	x20, [sp, #16]
    2490:	aa0003f4 	mov	x20, x0
    2494:	94000000 	bl	2a94 <nxsem_init>	2494: R_AARCH64_CALL26	nxsem_init
    2498:	2a0003f3 	mov	w19, w0
    249c:	37f800c0 	tbnz	w0, #31, 24b4 <nxmutex_init+0x34>
    24a0:	12800000 	mov	w0, #0xffffffff            	// #-1
    24a4:	b9001a80 	str	w0, [x20, #24]
    24a8:	52800081 	mov	w1, #0x4                   	// #4
    24ac:	aa1403e0 	mov	x0, x20
    24b0:	94000000 	bl	2b04 <nxsem_set_protocol>	24b0: R_AARCH64_CALL26	nxsem_set_protocol
    24b4:	f9400bf4 	ldr	x20, [sp, #16]
    24b8:	2a1303e0 	mov	w0, w19
    24bc:	a8c24ffe 	ldp	x30, x19, [sp], #32
    24c0:	d65f03c0 	ret

00000000000024c4 <nxmutex_destroy>:
nxmutex_destroy():
    24c4:	a9bf4ffe 	stp	x30, x19, [sp, #-16]!
    24c8:	aa0003f3 	mov	x19, x0
    24cc:	94000000 	bl	2f40 <nxsem_destroy>	24cc: R_AARCH64_CALL26	nxsem_destroy
    24d0:	37f80060 	tbnz	w0, #31, 24dc <nxmutex_destroy+0x18>
    24d4:	12800001 	mov	w1, #0xffffffff            	// #-1
    24d8:	b9001a61 	str	w1, [x19, #24]
    24dc:	a8c14ffe 	ldp	x30, x19, [sp], #16
    24e0:	d65f03c0 	ret

00000000000024e4 <nxmutex_is_hold>:
nxmutex_is_hold():
    24e4:	a9bf4ffe 	stp	x30, x19, [sp, #-16]!
    24e8:	b9401813 	ldr	w19, [x0, #24]
    24ec:	94000000 	bl	2ef4 <gettid>	24ec: R_AARCH64_CALL26	gettid
    24f0:	6b00027f 	cmp	w19, w0
    24f4:	1a9f17e0 	cset	w0, eq	// eq = none
    24f8:	a8c14ffe 	ldp	x30, x19, [sp], #16
    24fc:	d65f03c0 	ret

0000000000002500 <nxmutex_get_holder>:
nxmutex_get_holder():
    2500:	b9401800 	ldr	w0, [x0, #24]
    2504:	d65f03c0 	ret

0000000000002508 <nxmutex_is_locked>:
nxmutex_is_locked():
    2508:	f81e0ffe 	str	x30, [sp, #-32]!
    250c:	910073e1 	add	x1, sp, #0x1c
    2510:	94000000 	bl	2b78 <nxsem_get_value>	2510: R_AARCH64_CALL26	nxsem_get_value
    2514:	37f800c0 	tbnz	w0, #31, 252c <nxmutex_is_locked+0x24>
    2518:	b9401fe0 	ldr	w0, [sp, #28]
    251c:	7100001f 	cmp	w0, #0x0
    2520:	1a9fc7e0 	cset	w0, le
    2524:	f84207fe 	ldr	x30, [sp], #32
    2528:	d65f03c0 	ret
    252c:	52800000 	mov	w0, #0x0                   	// #0
    2530:	17fffffd 	b	2524 <nxmutex_is_locked+0x1c>

0000000000002534 <nxmutex_lock>:
nxmutex_lock():
    2534:	a9be4ffe 	stp	x30, x19, [sp, #-32]!
    2538:	f9000bf4 	str	x20, [sp, #16]
    253c:	aa0003f4 	mov	x20, x0
    2540:	94000000 	bl	24e4 <nxmutex_is_hold>	2540: R_AARCH64_CALL26	nxmutex_is_hold
    2544:	36000140 	tbz	w0, #0, 256c <nxmutex_lock+0x38>
    2548:	90000002 	adrp	x2, ebb8 <_srodata>	2548: R_AARCH64_ADR_PREL_PG_HI21	.rodata+0x1a7
    254c:	90000000 	adrp	x0, ebb8 <_srodata>	254c: R_AARCH64_ADR_PREL_PG_HI21	.rodata+0x1bf
    2550:	91000042 	add	x2, x2, #0x0	2550: R_AARCH64_ADD_ABS_LO12_NC	.rodata+0x1a7
    2554:	91000000 	add	x0, x0, #0x0	2554: R_AARCH64_ADD_ABS_LO12_NC	.rodata+0x1bf
    2558:	52801f81 	mov	w1, #0xfc                  	// #252
    255c:	94000000 	bl	2444 <__assert>	255c: R_AARCH64_CALL26	__assert
    2560:	3101f41f 	cmn	w0, #0x7d
    2564:	3a441804 	ccmn	w0, #0x4, #0x4, ne	// ne = any
    2568:	540000e1 	b.ne	2584 <nxmutex_lock+0x50>  // b.any
    256c:	aa1403e0 	mov	x0, x20
    2570:	94000000 	bl	2f88 <nxsem_wait>	2570: R_AARCH64_CALL26	nxsem_wait
    2574:	2a0003f3 	mov	w19, w0
    2578:	37ffff40 	tbnz	w0, #31, 2560 <nxmutex_lock+0x2c>
    257c:	94000000 	bl	2ef4 <gettid>	257c: R_AARCH64_CALL26	gettid
    2580:	b9001a80 	str	w0, [x20, #24]
    2584:	f9400bf4 	ldr	x20, [sp, #16]
    2588:	2a1303e0 	mov	w0, w19
    258c:	a8c24ffe 	ldp	x30, x19, [sp], #32
    2590:	d65f03c0 	ret

0000000000002594 <nxmutex_trylock>:
nxmutex_trylock():
    2594:	a9be4ffe 	stp	x30, x19, [sp, #-32]!
    2598:	f9000bf4 	str	x20, [sp, #16]
    259c:	aa0003f4 	mov	x20, x0
    25a0:	94000000 	bl	2f70 <nxsem_trywait>	25a0: R_AARCH64_CALL26	nxsem_trywait
    25a4:	2a0003f3 	mov	w19, w0
    25a8:	37f80060 	tbnz	w0, #31, 25b4 <nxmutex_trylock+0x20>
    25ac:	94000000 	bl	2ef4 <gettid>	25ac: R_AARCH64_CALL26	gettid
    25b0:	b9001a80 	str	w0, [x20, #24]
    25b4:	f9400bf4 	ldr	x20, [sp, #16]
    25b8:	2a1303e0 	mov	w0, w19
    25bc:	a8c24ffe 	ldp	x30, x19, [sp], #32
    25c0:	d65f03c0 	ret

00000000000025c4 <nxmutex_clocklock>:
nxmutex_clocklock():
    25c4:	a9bd4ffe 	stp	x30, x19, [sp, #-48]!
    25c8:	a90157f4 	stp	x20, x21, [sp, #16]
    25cc:	aa0003f4 	mov	x20, x0
    25d0:	aa0203f5 	mov	x21, x2
    25d4:	f90013f6 	str	x22, [sp, #32]
    25d8:	2a0103f6 	mov	w22, w1
    25dc:	b4000235 	cbz	x21, 2620 <nxmutex_clocklock+0x5c>
    25e0:	aa1503e2 	mov	x2, x21
    25e4:	2a1603e1 	mov	w1, w22
    25e8:	aa1403e0 	mov	x0, x20
    25ec:	94000000 	bl	2f1c <nxsem_clockwait>	25ec: R_AARCH64_CALL26	nxsem_clockwait
    25f0:	3101f41f 	cmn	w0, #0x7d
    25f4:	2a0003f3 	mov	w19, w0
    25f8:	3a441804 	ccmn	w0, #0x4, #0x4, ne	// ne = any
    25fc:	54ffff00 	b.eq	25dc <nxmutex_clocklock+0x18>  // b.none
    2600:	37f80060 	tbnz	w0, #31, 260c <nxmutex_clocklock+0x48>
    2604:	94000000 	bl	2ef4 <gettid>	2604: R_AARCH64_CALL26	gettid
    2608:	b9001a80 	str	w0, [x20, #24]
    260c:	f94013f6 	ldr	x22, [sp, #32]
    2610:	2a1303e0 	mov	w0, w19
    2614:	a94157f4 	ldp	x20, x21, [sp, #16]
    2618:	a8c34ffe 	ldp	x30, x19, [sp], #48
    261c:	d65f03c0 	ret
    2620:	aa1403e0 	mov	x0, x20
    2624:	94000000 	bl	2f88 <nxsem_wait>	2624: R_AARCH64_CALL26	nxsem_wait
    2628:	17fffff2 	b	25f0 <nxmutex_clocklock+0x2c>

000000000000262c <nxmutex_timedlock>:
nxmutex_timedlock():
    262c:	a9bc4ffe 	stp	x30, x19, [sp, #-64]!
    2630:	2a0103f3 	mov	w19, w1
    2634:	910083e1 	add	x1, sp, #0x20
    2638:	f9000bf4 	str	x20, [sp, #16]
    263c:	aa0003f4 	mov	x20, x0
    2640:	52800020 	mov	w0, #0x1                   	// #1
    2644:	94000000 	bl	2ed4 <clock_gettime>	2644: R_AARCH64_CALL26	clock_gettime
    2648:	2a1303e1 	mov	w1, w19
    264c:	d2807d00 	mov	x0, #0x3e8                 	// #1000
    2650:	9ac00822 	udiv	x2, x1, x0
    2654:	9b008441 	msub	x1, x2, x0, x1
    2658:	a94203e3 	ldp	x3, x0, [sp, #32]
    265c:	8b030043 	add	x3, x2, x3
    2660:	52884802 	mov	w2, #0x4240                	// #16960
    2664:	72a001e2 	movk	w2, #0xf, lsl #16
    2668:	9b220021 	smaddl	x1, w1, w2, x0
    266c:	d2993fe0 	mov	x0, #0xc9ff                	// #51711
    2670:	f2a77340 	movk	x0, #0x3b9a, lsl #16
    2674:	eb00003f 	cmp	x1, x0
    2678:	540000ad 	b.le	268c <nxmutex_timedlock+0x60>
    267c:	92993fe0 	mov	x0, #0xffffffffffff3600    	// #-51712
    2680:	91000463 	add	x3, x3, #0x1
    2684:	f2b88ca0 	movk	x0, #0xc465, lsl #16
    2688:	8b000021 	add	x1, x1, x0
    268c:	9100c3e2 	add	x2, sp, #0x30
    2690:	aa1403e0 	mov	x0, x20
    2694:	a90307e3 	stp	x3, x1, [sp, #48]
    2698:	52800021 	mov	w1, #0x1                   	// #1
    269c:	94000000 	bl	25c4 <nxmutex_clocklock>	269c: R_AARCH64_CALL26	nxmutex_clocklock
    26a0:	f9400bf4 	ldr	x20, [sp, #16]
    26a4:	a8c44ffe 	ldp	x30, x19, [sp], #64
    26a8:	d65f03c0 	ret

00000000000026ac <nxmutex_unlock>:
nxmutex_unlock():
    26ac:	a9be4ffe 	stp	x30, x19, [sp, #-32]!
    26b0:	f9000bf4 	str	x20, [sp, #16]
    26b4:	b9401801 	ldr	w1, [x0, #24]
    26b8:	3100083f 	cmn	w1, #0x2
    26bc:	540002c0 	b.eq	2714 <nxmutex_unlock+0x68>  // b.none
    26c0:	aa0003f3 	mov	x19, x0
    26c4:	94000000 	bl	24e4 <nxmutex_is_hold>	26c4: R_AARCH64_CALL26	nxmutex_is_hold
    26c8:	370000e0 	tbnz	w0, #0, 26e4 <nxmutex_unlock+0x38>
    26cc:	90000002 	adrp	x2, ebb8 <_srodata>	26cc: R_AARCH64_ADR_PREL_PG_HI21	.rodata+0x1d0
    26d0:	90000000 	adrp	x0, ebb8 <_srodata>	26d0: R_AARCH64_ADR_PREL_PG_HI21	.rodata+0x1bf
    26d4:	91000042 	add	x2, x2, #0x0	26d4: R_AARCH64_ADD_ABS_LO12_NC	.rodata+0x1d0
    26d8:	91000000 	add	x0, x0, #0x0	26d8: R_AARCH64_ADD_ABS_LO12_NC	.rodata+0x1bf
    26dc:	52803601 	mov	w1, #0x1b0                 	// #432
    26e0:	94000000 	bl	2444 <__assert>	26e0: R_AARCH64_CALL26	__assert
    26e4:	12800000 	mov	w0, #0xffffffff            	// #-1
    26e8:	b9001a60 	str	w0, [x19, #24]
    26ec:	aa1303e0 	mov	x0, x19
    26f0:	94000000 	bl	2f58 <nxsem_post>	26f0: R_AARCH64_CALL26	nxsem_post
    26f4:	2a0003f4 	mov	w20, w0
    26f8:	36f80060 	tbz	w0, #31, 2704 <nxmutex_unlock+0x58>
    26fc:	94000000 	bl	2ef4 <gettid>	26fc: R_AARCH64_CALL26	gettid
    2700:	b9001a60 	str	w0, [x19, #24]
    2704:	2a1403e0 	mov	w0, w20
    2708:	f9400bf4 	ldr	x20, [sp, #16]
    270c:	a8c24ffe 	ldp	x30, x19, [sp], #32
    2710:	d65f03c0 	ret
    2714:	52800014 	mov	w20, #0x0                   	// #0
    2718:	17fffffb 	b	2704 <nxmutex_unlock+0x58>

000000000000271c <nxmutex_breaklock>:
nxmutex_breaklock():
    271c:	a9be4ffe 	stp	x30, x19, [sp, #-32]!
    2720:	aa0103f3 	mov	x19, x1
    2724:	f9000bf4 	str	x20, [sp, #16]
    2728:	aa0003f4 	mov	x20, x0
    272c:	b900003f 	str	wzr, [x1]
    2730:	94000000 	bl	24e4 <nxmutex_is_hold>	2730: R_AARCH64_CALL26	nxmutex_is_hold
    2734:	36000120 	tbz	w0, #0, 2758 <nxmutex_breaklock+0x3c>
    2738:	aa1403e0 	mov	x0, x20
    273c:	94000000 	bl	26ac <nxmutex_unlock>	273c: R_AARCH64_CALL26	nxmutex_unlock
    2740:	37f80060 	tbnz	w0, #31, 274c <nxmutex_breaklock+0x30>
    2744:	52800021 	mov	w1, #0x1                   	// #1
    2748:	b9000261 	str	w1, [x19]
    274c:	f9400bf4 	ldr	x20, [sp, #16]
    2750:	a8c24ffe 	ldp	x30, x19, [sp], #32
    2754:	d65f03c0 	ret
    2758:	52800000 	mov	w0, #0x0                   	// #0
    275c:	17fffffc 	b	274c <nxmutex_breaklock+0x30>

0000000000002760 <nxmutex_restorelock>:
nxmutex_restorelock():
    2760:	34000041 	cbz	w1, 2768 <nxmutex_restorelock+0x8>
    2764:	14000000 	b	2534 <nxmutex_lock>	2764: R_AARCH64_JUMP26	nxmutex_lock
    2768:	52800000 	mov	w0, #0x0                   	// #0
    276c:	d65f03c0 	ret

0000000000002770 <nxmutex_set_protocol>:
nxmutex_set_protocol():
    2770:	14000000 	b	2b04 <nxsem_set_protocol>	2770: R_AARCH64_JUMP26	nxsem_set_protocol

0000000000002774 <nxrmutex_init>:
nxrmutex_init():
    2774:	b900201f 	str	wzr, [x0, #32]
    2778:	14000000 	b	2480 <nxmutex_init>	2778: R_AARCH64_JUMP26	nxmutex_init

000000000000277c <nxrmutex_destroy>:
nxrmutex_destroy():
    277c:	a9bf4ffe 	stp	x30, x19, [sp, #-16]!
    2780:	aa0003f3 	mov	x19, x0
    2784:	94000000 	bl	24c4 <nxmutex_destroy>	2784: R_AARCH64_CALL26	nxmutex_destroy
    2788:	37f80040 	tbnz	w0, #31, 2790 <nxrmutex_destroy+0x14>
    278c:	b900227f 	str	wzr, [x19, #32]
    2790:	a8c14ffe 	ldp	x30, x19, [sp], #16
    2794:	d65f03c0 	ret

0000000000002798 <nxrmutex_is_hold>:
nxrmutex_is_hold():
    2798:	14000000 	b	24e4 <nxmutex_is_hold>	2798: R_AARCH64_JUMP26	nxmutex_is_hold

000000000000279c <nxrmutex_is_recursive>:
nxrmutex_is_recursive():
    279c:	b9402000 	ldr	w0, [x0, #32]
    27a0:	7100041f 	cmp	w0, #0x1
    27a4:	1a9f97e0 	cset	w0, hi	// hi = pmore
    27a8:	d65f03c0 	ret

00000000000027ac <nxrmutex_get_holder>:
nxrmutex_get_holder():
    27ac:	b9401800 	ldr	w0, [x0, #24]
    27b0:	d65f03c0 	ret

00000000000027b4 <nxrmutex_is_locked>:
nxrmutex_is_locked():
    27b4:	14000000 	b	2508 <nxmutex_is_locked>	27b4: R_AARCH64_JUMP26	nxmutex_is_locked

00000000000027b8 <nxrmutex_lock>:
nxrmutex_lock():
    27b8:	a9bf4ffe 	stp	x30, x19, [sp, #-16]!
    27bc:	aa0003f3 	mov	x19, x0
    27c0:	94000000 	bl	24e4 <nxmutex_is_hold>	27c0: R_AARCH64_CALL26	nxmutex_is_hold
    27c4:	370000c0 	tbnz	w0, #0, 27dc <nxrmutex_lock+0x24>
    27c8:	aa1303e0 	mov	x0, x19
    27cc:	94000000 	bl	2534 <nxmutex_lock>	27cc: R_AARCH64_CALL26	nxmutex_lock
    27d0:	36f80080 	tbz	w0, #31, 27e0 <nxrmutex_lock+0x28>
    27d4:	a8c14ffe 	ldp	x30, x19, [sp], #16
    27d8:	d65f03c0 	ret
    27dc:	52800000 	mov	w0, #0x0                   	// #0
    27e0:	b9402261 	ldr	w1, [x19, #32]
    27e4:	3100043f 	cmn	w1, #0x1
    27e8:	540000e1 	b.ne	2804 <nxrmutex_lock+0x4c>  // b.any
    27ec:	90000002 	adrp	x2, ebb8 <_srodata>	27ec: R_AARCH64_ADR_PREL_PG_HI21	.rodata+0x1e7
    27f0:	90000000 	adrp	x0, ebb8 <_srodata>	27f0: R_AARCH64_ADR_PREL_PG_HI21	.rodata+0x1bf
    27f4:	91000042 	add	x2, x2, #0x0	27f4: R_AARCH64_ADD_ABS_LO12_NC	.rodata+0x1e7
    27f8:	91000000 	add	x0, x0, #0x0	27f8: R_AARCH64_ADD_ABS_LO12_NC	.rodata+0x1bf
    27fc:	52805f21 	mov	w1, #0x2f9                 	// #761
    2800:	94000000 	bl	2444 <__assert>	2800: R_AARCH64_CALL26	__assert
    2804:	11000421 	add	w1, w1, #0x1
    2808:	b9002261 	str	w1, [x19, #32]
    280c:	17fffff2 	b	27d4 <nxrmutex_lock+0x1c>

0000000000002810 <nxrmutex_trylock>:
nxrmutex_trylock():
    2810:	a9bf4ffe 	stp	x30, x19, [sp, #-16]!
    2814:	aa0003f3 	mov	x19, x0
    2818:	94000000 	bl	24e4 <nxmutex_is_hold>	2818: R_AARCH64_CALL26	nxmutex_is_hold
    281c:	370000c0 	tbnz	w0, #0, 2834 <nxrmutex_trylock+0x24>
    2820:	aa1303e0 	mov	x0, x19
    2824:	94000000 	bl	2594 <nxmutex_trylock>	2824: R_AARCH64_CALL26	nxmutex_trylock
    2828:	36f80080 	tbz	w0, #31, 2838 <nxrmutex_trylock+0x28>
    282c:	a8c14ffe 	ldp	x30, x19, [sp], #16
    2830:	d65f03c0 	ret
    2834:	52800000 	mov	w0, #0x0                   	// #0
    2838:	b9402261 	ldr	w1, [x19, #32]
    283c:	3100043f 	cmn	w1, #0x1
    2840:	540000e1 	b.ne	285c <nxrmutex_trylock+0x4c>  // b.any
    2844:	90000002 	adrp	x2, ebb8 <_srodata>	2844: R_AARCH64_ADR_PREL_PG_HI21	.rodata+0x1e7
    2848:	90000000 	adrp	x0, ebb8 <_srodata>	2848: R_AARCH64_ADR_PREL_PG_HI21	.rodata+0x1bf
    284c:	91000042 	add	x2, x2, #0x0	284c: R_AARCH64_ADD_ABS_LO12_NC	.rodata+0x1e7
    2850:	91000000 	add	x0, x0, #0x0	2850: R_AARCH64_ADD_ABS_LO12_NC	.rodata+0x1bf
    2854:	52806441 	mov	w1, #0x322                 	// #802
    2858:	94000000 	bl	2444 <__assert>	2858: R_AARCH64_CALL26	__assert
    285c:	11000421 	add	w1, w1, #0x1
    2860:	b9002261 	str	w1, [x19, #32]
    2864:	17fffff2 	b	282c <nxrmutex_trylock+0x1c>

0000000000002868 <nxrmutex_clocklock>:
nxrmutex_clocklock():
    2868:	a9be4ffe 	stp	x30, x19, [sp, #-32]!
    286c:	aa0003f3 	mov	x19, x0
    2870:	a90157f4 	stp	x20, x21, [sp, #16]
    2874:	2a0103f4 	mov	w20, w1
    2878:	aa0203f5 	mov	x21, x2
    287c:	94000000 	bl	24e4 <nxmutex_is_hold>	287c: R_AARCH64_CALL26	nxmutex_is_hold
    2880:	37000120 	tbnz	w0, #0, 28a4 <nxrmutex_clocklock+0x3c>
    2884:	aa1503e2 	mov	x2, x21
    2888:	2a1403e1 	mov	w1, w20
    288c:	aa1303e0 	mov	x0, x19
    2890:	94000000 	bl	25c4 <nxmutex_clocklock>	2890: R_AARCH64_CALL26	nxmutex_clocklock
    2894:	36f800a0 	tbz	w0, #31, 28a8 <nxrmutex_clocklock+0x40>
    2898:	a94157f4 	ldp	x20, x21, [sp, #16]
    289c:	a8c24ffe 	ldp	x30, x19, [sp], #32
    28a0:	d65f03c0 	ret
    28a4:	52800000 	mov	w0, #0x0                   	// #0
    28a8:	b9402261 	ldr	w1, [x19, #32]
    28ac:	3100043f 	cmn	w1, #0x1
    28b0:	540000e1 	b.ne	28cc <nxrmutex_clocklock+0x64>  // b.any
    28b4:	90000002 	adrp	x2, ebb8 <_srodata>	28b4: R_AARCH64_ADR_PREL_PG_HI21	.rodata+0x1e7
    28b8:	90000000 	adrp	x0, ebb8 <_srodata>	28b8: R_AARCH64_ADR_PREL_PG_HI21	.rodata+0x1bf
    28bc:	91000042 	add	x2, x2, #0x0	28bc: R_AARCH64_ADD_ABS_LO12_NC	.rodata+0x1e7
    28c0:	91000000 	add	x0, x0, #0x0	28c0: R_AARCH64_ADD_ABS_LO12_NC	.rodata+0x1bf
    28c4:	528069c1 	mov	w1, #0x34e                 	// #846
    28c8:	94000000 	bl	2444 <__assert>	28c8: R_AARCH64_CALL26	__assert
    28cc:	11000421 	add	w1, w1, #0x1
    28d0:	b9002261 	str	w1, [x19, #32]
    28d4:	17fffff1 	b	2898 <nxrmutex_clocklock+0x30>

00000000000028d8 <nxrmutex_timedlock>:
nxrmutex_timedlock():
    28d8:	a9be4ffe 	stp	x30, x19, [sp, #-32]!
    28dc:	aa0003f3 	mov	x19, x0
    28e0:	f9000bf4 	str	x20, [sp, #16]
    28e4:	2a0103f4 	mov	w20, w1
    28e8:	94000000 	bl	24e4 <nxmutex_is_hold>	28e8: R_AARCH64_CALL26	nxmutex_is_hold
    28ec:	37000100 	tbnz	w0, #0, 290c <nxrmutex_timedlock+0x34>
    28f0:	2a1403e1 	mov	w1, w20
    28f4:	aa1303e0 	mov	x0, x19
    28f8:	94000000 	bl	262c <nxmutex_timedlock>	28f8: R_AARCH64_CALL26	nxmutex_timedlock
    28fc:	36f800a0 	tbz	w0, #31, 2910 <nxrmutex_timedlock+0x38>
    2900:	f9400bf4 	ldr	x20, [sp, #16]
    2904:	a8c24ffe 	ldp	x30, x19, [sp], #32
    2908:	d65f03c0 	ret
    290c:	52800000 	mov	w0, #0x0                   	// #0
    2910:	b9402261 	ldr	w1, [x19, #32]
    2914:	3100043f 	cmn	w1, #0x1
    2918:	540000e1 	b.ne	2934 <nxrmutex_timedlock+0x5c>  // b.any
    291c:	90000002 	adrp	x2, ebb8 <_srodata>	291c: R_AARCH64_ADR_PREL_PG_HI21	.rodata+0x1e7
    2920:	90000000 	adrp	x0, ebb8 <_srodata>	2920: R_AARCH64_ADR_PREL_PG_HI21	.rodata+0x1bf
    2924:	91000042 	add	x2, x2, #0x0	2924: R_AARCH64_ADD_ABS_LO12_NC	.rodata+0x1e7
    2928:	91000000 	add	x0, x0, #0x0	2928: R_AARCH64_ADD_ABS_LO12_NC	.rodata+0x1bf
    292c:	52806f21 	mov	w1, #0x379                 	// #889
    2930:	94000000 	bl	2444 <__assert>	2930: R_AARCH64_CALL26	__assert
    2934:	11000421 	add	w1, w1, #0x1
    2938:	b9002261 	str	w1, [x19, #32]
    293c:	17fffff1 	b	2900 <nxrmutex_timedlock+0x28>

0000000000002940 <nxrmutex_unlock>:
nxrmutex_unlock():
    2940:	a9bf4ffe 	stp	x30, x19, [sp, #-16]!
    2944:	b9402001 	ldr	w1, [x0, #32]
    2948:	350000e1 	cbnz	w1, 2964 <nxrmutex_unlock+0x24>
    294c:	90000002 	adrp	x2, ebb8 <_srodata>	294c: R_AARCH64_ADR_PREL_PG_HI21	.rodata+0x203
    2950:	90000000 	adrp	x0, ebb8 <_srodata>	2950: R_AARCH64_ADR_PREL_PG_HI21	.rodata+0x1bf
    2954:	91000042 	add	x2, x2, #0x0	2954: R_AARCH64_ADD_ABS_LO12_NC	.rodata+0x203
    2958:	91000000 	add	x0, x0, #0x0	2958: R_AARCH64_ADD_ABS_LO12_NC	.rodata+0x1bf
    295c:	52807321 	mov	w1, #0x399                 	// #921
    2960:	94000000 	bl	2444 <__assert>	2960: R_AARCH64_CALL26	__assert
    2964:	51000421 	sub	w1, w1, #0x1
    2968:	b9002001 	str	w1, [x0, #32]
    296c:	aa0003f3 	mov	x19, x0
    2970:	35000101 	cbnz	w1, 2990 <nxrmutex_unlock+0x50>
    2974:	94000000 	bl	26ac <nxmutex_unlock>	2974: R_AARCH64_CALL26	nxmutex_unlock
    2978:	36f80080 	tbz	w0, #31, 2988 <nxrmutex_unlock+0x48>
    297c:	b9402261 	ldr	w1, [x19, #32]
    2980:	11000421 	add	w1, w1, #0x1
    2984:	b9002261 	str	w1, [x19, #32]
    2988:	a8c14ffe 	ldp	x30, x19, [sp], #16
    298c:	d65f03c0 	ret
    2990:	52800000 	mov	w0, #0x0                   	// #0
    2994:	17fffffd 	b	2988 <nxrmutex_unlock+0x48>

0000000000002998 <nxrmutex_breaklock>:
nxrmutex_breaklock():
    2998:	a9be4ffe 	stp	x30, x19, [sp, #-32]!
    299c:	aa0003f3 	mov	x19, x0
    29a0:	f9000bf4 	str	x20, [sp, #16]
    29a4:	aa0103f4 	mov	x20, x1
    29a8:	b900003f 	str	wzr, [x1]
    29ac:	94000000 	bl	24e4 <nxmutex_is_hold>	29ac: R_AARCH64_CALL26	nxmutex_is_hold
    29b0:	36000180 	tbz	w0, #0, 29e0 <nxrmutex_breaklock+0x48>
    29b4:	b9402260 	ldr	w0, [x19, #32]
    29b8:	b9000280 	str	w0, [x20]
    29bc:	aa1303e0 	mov	x0, x19
    29c0:	b900227f 	str	wzr, [x19, #32]
    29c4:	94000000 	bl	26ac <nxmutex_unlock>	29c4: R_AARCH64_CALL26	nxmutex_unlock
    29c8:	36f80060 	tbz	w0, #31, 29d4 <nxrmutex_breaklock+0x3c>
    29cc:	b9400281 	ldr	w1, [x20]
    29d0:	b9002261 	str	w1, [x19, #32]
    29d4:	f9400bf4 	ldr	x20, [sp, #16]
    29d8:	a8c24ffe 	ldp	x30, x19, [sp], #32
    29dc:	d65f03c0 	ret
    29e0:	52800000 	mov	w0, #0x0                   	// #0
    29e4:	17fffffc 	b	29d4 <nxrmutex_breaklock+0x3c>

00000000000029e8 <nxrmutex_restorelock>:
nxrmutex_restorelock():
    29e8:	34000161 	cbz	w1, 2a14 <nxrmutex_restorelock+0x2c>
    29ec:	a9be4ffe 	stp	x30, x19, [sp, #-32]!
    29f0:	2a0103f3 	mov	w19, w1
    29f4:	f9000bf4 	str	x20, [sp, #16]
    29f8:	aa0003f4 	mov	x20, x0
    29fc:	94000000 	bl	2534 <nxmutex_lock>	29fc: R_AARCH64_CALL26	nxmutex_lock
    2a00:	37f80040 	tbnz	w0, #31, 2a08 <nxrmutex_restorelock+0x20>
    2a04:	b9002293 	str	w19, [x20, #32]
    2a08:	f9400bf4 	ldr	x20, [sp, #16]
    2a0c:	a8c24ffe 	ldp	x30, x19, [sp], #32
    2a10:	d65f03c0 	ret
    2a14:	52800000 	mov	w0, #0x0                   	// #0
    2a18:	d65f03c0 	ret

0000000000002a1c <task_setcancelstate>:
task_setcancelstate():
    2a1c:	a9bf7bfd 	stp	x29, x30, [sp, #-16]!
    2a20:	910003fd 	mov	x29, sp
    2a24:	9273cba2 	and	x2, x29, #0xffffffffffffe000
    2a28:	b4000081 	cbz	x1, 2a38 <task_setcancelstate+0x1c>
    2a2c:	39402043 	ldrb	w3, [x2, #8]
    2a30:	12000063 	and	w3, w3, #0x1
    2a34:	b9000023 	str	w3, [x1]
    2a38:	35000140 	cbnz	w0, 2a60 <task_setcancelstate+0x44>
    2a3c:	39402040 	ldrb	w0, [x2, #8]
    2a40:	121f7801 	and	w1, w0, #0xfffffffe
    2a44:	39002041 	strb	w1, [x2, #8]
    2a48:	36100160 	tbz	w0, #2, 2a74 <task_setcancelstate+0x58>
    2a4c:	128000a1 	mov	w1, #0xfffffffa            	// #-6
    2a50:	0a010000 	and	w0, w0, w1
    2a54:	39002040 	strb	w0, [x2, #8]
    2a58:	92800000 	mov	x0, #0xffffffffffffffff    	// #-1
    2a5c:	94000000 	bl	2e74 <pthread_exit>	2a5c: R_AARCH64_CALL26	pthread_exit
    2a60:	7100041f 	cmp	w0, #0x1
    2a64:	540000e1 	b.ne	2a80 <task_setcancelstate+0x64>  // b.any
    2a68:	39402040 	ldrb	w0, [x2, #8]
    2a6c:	32000000 	orr	w0, w0, #0x1
    2a70:	39002040 	strb	w0, [x2, #8]
    2a74:	52800000 	mov	w0, #0x0                   	// #0
    2a78:	a8c17bfd 	ldp	x29, x30, [sp], #16
    2a7c:	d65f03c0 	ret
    2a80:	94000000 	bl	2454 <__errno>	2a80: R_AARCH64_CALL26	__errno
    2a84:	528002c1 	mov	w1, #0x16                  	// #22
    2a88:	b9000001 	str	w1, [x0]
    2a8c:	12800000 	mov	w0, #0xffffffff            	// #-1
    2a90:	17fffffa 	b	2a78 <task_setcancelstate+0x5c>

0000000000002a94 <nxsem_init>:
nxsem_init():
    2a94:	f100001f 	cmp	x0, #0x0
    2a98:	7a401841 	ccmp	w2, #0x0, #0x1, ne	// ne = any
    2a9c:	5400010a 	b.ge	2abc <nxsem_init+0x28>  // b.tcont
    2aa0:	f81f0ffe 	str	x30, [sp, #-16]!
    2aa4:	90000002 	adrp	x2, ebb8 <_srodata>	2aa4: R_AARCH64_ADR_PREL_PG_HI21	.rodata+0x215
    2aa8:	90000000 	adrp	x0, ebb8 <_srodata>	2aa8: R_AARCH64_ADR_PREL_PG_HI21	.rodata+0x23e
    2aac:	91000042 	add	x2, x2, #0x0	2aac: R_AARCH64_ADD_ABS_LO12_NC	.rodata+0x215
    2ab0:	91000000 	add	x0, x0, #0x0	2ab0: R_AARCH64_ADD_ABS_LO12_NC	.rodata+0x23e
    2ab4:	528008a1 	mov	w1, #0x45                  	// #69
    2ab8:	94000000 	bl	2444 <__assert>	2ab8: R_AARCH64_CALL26	__assert
    2abc:	b9000002 	str	w2, [x0]
    2ac0:	3900101f 	strb	wzr, [x0, #4]
    2ac4:	a900fc1f 	stp	xzr, xzr, [x0, #8]
    2ac8:	52800000 	mov	w0, #0x0                   	// #0
    2acc:	d65f03c0 	ret

0000000000002ad0 <sem_init>:
sem_init():
    2ad0:	f81f0ffe 	str	x30, [sp, #-16]!
    2ad4:	f100001f 	cmp	x0, #0x0
    2ad8:	7a401841 	ccmp	w2, #0x0, #0x1, ne	// ne = any
    2adc:	540000ea 	b.ge	2af8 <sem_init+0x28>  // b.tcont
    2ae0:	94000000 	bl	2454 <__errno>	2ae0: R_AARCH64_CALL26	__errno
    2ae4:	528002c1 	mov	w1, #0x16                  	// #22
    2ae8:	b9000001 	str	w1, [x0]
    2aec:	12800000 	mov	w0, #0xffffffff            	// #-1
    2af0:	f84107fe 	ldr	x30, [sp], #16
    2af4:	d65f03c0 	ret
    2af8:	94000000 	bl	2a94 <nxsem_init>	2af8: R_AARCH64_CALL26	nxsem_init
    2afc:	52800000 	mov	w0, #0x0                   	// #0
    2b00:	17fffffc 	b	2af0 <sem_init+0x20>

0000000000002b04 <nxsem_set_protocol>:
nxsem_set_protocol():
    2b04:	b5000100 	cbnz	x0, 2b24 <nxsem_set_protocol+0x20>
    2b08:	f81f0ffe 	str	x30, [sp, #-16]!
    2b0c:	90000002 	adrp	x2, ebb8 <_srodata>	2b0c: R_AARCH64_ADR_PREL_PG_HI21	.rodata+0x253
    2b10:	90000000 	adrp	x0, ebb8 <_srodata>	2b10: R_AARCH64_ADR_PREL_PG_HI21	.rodata+0x265
    2b14:	91000042 	add	x2, x2, #0x0	2b14: R_AARCH64_ADD_ABS_LO12_NC	.rodata+0x253
    2b18:	91000000 	add	x0, x0, #0x0	2b18: R_AARCH64_ADD_ABS_LO12_NC	.rodata+0x265
    2b1c:	52800a01 	mov	w1, #0x50                  	// #80
    2b20:	94000000 	bl	2444 <__assert>	2b20: R_AARCH64_CALL26	__assert
    2b24:	aa0003e2 	mov	x2, x0
    2b28:	72000420 	ands	w0, w1, #0x3
    2b2c:	540000c0 	b.eq	2b44 <nxsem_set_protocol+0x40>  // b.none
    2b30:	71000c1f 	cmp	w0, #0x3
    2b34:	12801121 	mov	w1, #0xffffff76            	// #-138
    2b38:	128002a0 	mov	w0, #0xffffffea            	// #-22
    2b3c:	1a810000 	csel	w0, w0, w1, eq	// eq = none
    2b40:	d65f03c0 	ret
    2b44:	39001041 	strb	w1, [x2, #4]
    2b48:	d65f03c0 	ret

0000000000002b4c <sem_setprotocol>:
sem_setprotocol():
    2b4c:	a9bf4ffe 	stp	x30, x19, [sp, #-16]!
    2b50:	94000000 	bl	2b04 <nxsem_set_protocol>	2b50: R_AARCH64_CALL26	nxsem_set_protocol
    2b54:	2a0003f3 	mov	w19, w0
    2b58:	340000a0 	cbz	w0, 2b6c <sem_setprotocol+0x20>
    2b5c:	4b1303f3 	neg	w19, w19
    2b60:	94000000 	bl	2454 <__errno>	2b60: R_AARCH64_CALL26	__errno
    2b64:	b9000013 	str	w19, [x0]
    2b68:	12800013 	mov	w19, #0xffffffff            	// #-1
    2b6c:	2a1303e0 	mov	w0, w19
    2b70:	a8c14ffe 	ldp	x30, x19, [sp], #16
    2b74:	d65f03c0 	ret

0000000000002b78 <nxsem_get_value>:
nxsem_get_value():
    2b78:	f100001f 	cmp	x0, #0x0
    2b7c:	fa401824 	ccmp	x1, #0x0, #0x4, ne	// ne = any
    2b80:	540000a0 	b.eq	2b94 <nxsem_get_value+0x1c>  // b.none
    2b84:	b9400000 	ldr	w0, [x0]
    2b88:	b9000020 	str	w0, [x1]
    2b8c:	52800000 	mov	w0, #0x0                   	// #0
    2b90:	d65f03c0 	ret
    2b94:	128002a0 	mov	w0, #0xffffffea            	// #-22
    2b98:	17fffffe 	b	2b90 <nxsem_get_value+0x18>

0000000000002b9c <sem_getvalue>:
sem_getvalue():
    2b9c:	f81f0ffe 	str	x30, [sp, #-16]!
    2ba0:	94000000 	bl	2b78 <nxsem_get_value>	2ba0: R_AARCH64_CALL26	nxsem_get_value
    2ba4:	340000a0 	cbz	w0, 2bb8 <sem_getvalue+0x1c>
    2ba8:	94000000 	bl	2454 <__errno>	2ba8: R_AARCH64_CALL26	__errno
    2bac:	528002c1 	mov	w1, #0x16                  	// #22
    2bb0:	b9000001 	str	w1, [x0]
    2bb4:	12800000 	mov	w0, #0xffffffff            	// #-1
    2bb8:	f84107fe 	ldr	x30, [sp], #16
    2bbc:	d65f03c0 	ret

0000000000002bc0 <fflush_unlocked>:
fflush_unlocked():
    2bc0:	a9bf4ffe 	stp	x30, x19, [sp, #-16]!
    2bc4:	b5000180 	cbnz	x0, 2bf4 <fflush_unlocked+0x34>
    2bc8:	94000000 	bl	2e30 <lib_get_streams>	2bc8: R_AARCH64_CALL26	lib_get_streams
    2bcc:	94000000 	bl	2c38 <lib_flushall_unlocked>	2bcc: R_AARCH64_CALL26	lib_flushall_unlocked
    2bd0:	2a0003f3 	mov	w19, w0
    2bd4:	52800000 	mov	w0, #0x0                   	// #0
    2bd8:	36f800b3 	tbz	w19, #31, 2bec <fflush_unlocked+0x2c>
    2bdc:	94000000 	bl	2454 <__errno>	2bdc: R_AARCH64_CALL26	__errno
    2be0:	4b1303f3 	neg	w19, w19
    2be4:	b9000013 	str	w19, [x0]
    2be8:	12800000 	mov	w0, #0xffffffff            	// #-1
    2bec:	a8c14ffe 	ldp	x30, x19, [sp], #16
    2bf0:	d65f03c0 	ret
    2bf4:	94000000 	bl	2d34 <lib_fflush_unlocked>	2bf4: R_AARCH64_CALL26	lib_fflush_unlocked
    2bf8:	17fffff6 	b	2bd0 <fflush_unlocked+0x10>

0000000000002bfc <fflush>:
fflush():
    2bfc:	a9bf4ffe 	stp	x30, x19, [sp, #-16]!
    2c00:	b5000180 	cbnz	x0, 2c30 <fflush+0x34>
    2c04:	94000000 	bl	2e30 <lib_get_streams>	2c04: R_AARCH64_CALL26	lib_get_streams
    2c08:	94000000 	bl	2cb0 <lib_flushall>	2c08: R_AARCH64_CALL26	lib_flushall
    2c0c:	2a0003f3 	mov	w19, w0
    2c10:	52800000 	mov	w0, #0x0                   	// #0
    2c14:	36f800b3 	tbz	w19, #31, 2c28 <fflush+0x2c>
    2c18:	94000000 	bl	2454 <__errno>	2c18: R_AARCH64_CALL26	__errno
    2c1c:	4b1303f3 	neg	w19, w19
    2c20:	b9000013 	str	w19, [x0]
    2c24:	12800000 	mov	w0, #0xffffffff            	// #-1
    2c28:	a8c14ffe 	ldp	x30, x19, [sp], #16
    2c2c:	d65f03c0 	ret
    2c30:	94000000 	bl	2de4 <lib_fflush>	2c30: R_AARCH64_CALL26	lib_fflush
    2c34:	17fffff6 	b	2c0c <fflush+0x10>

0000000000002c38 <lib_flushall_unlocked>:
lib_flushall_unlocked():
    2c38:	a9be4ffe 	stp	x30, x19, [sp, #-32]!
    2c3c:	f9000bf4 	str	x20, [sp, #16]
    2c40:	b4000340 	cbz	x0, 2ca8 <lib_flushall_unlocked+0x70>
    2c44:	aa0003f3 	mov	x19, x0
    2c48:	91008000 	add	x0, x0, #0x20
    2c4c:	94000000 	bl	2d34 <lib_fflush_unlocked>	2c4c: R_AARCH64_CALL26	lib_fflush_unlocked
    2c50:	52800014 	mov	w20, #0x0                   	// #0
    2c54:	91038260 	add	x0, x19, #0xe0
    2c58:	94000000 	bl	2d34 <lib_fflush_unlocked>	2c58: R_AARCH64_CALL26	lib_fflush_unlocked
    2c5c:	91068260 	add	x0, x19, #0x1a0
    2c60:	94000000 	bl	2d34 <lib_fflush_unlocked>	2c60: R_AARCH64_CALL26	lib_fflush_unlocked
    2c64:	f9413273 	ldr	x19, [x19, #608]
    2c68:	b50000b3 	cbnz	x19, 2c7c <lib_flushall_unlocked+0x44>
    2c6c:	2a1403e0 	mov	w0, w20
    2c70:	f9400bf4 	ldr	x20, [sp, #16]
    2c74:	a8c24ffe 	ldp	x30, x19, [sp], #32
    2c78:	d65f03c0 	ret
    2c7c:	79417260 	ldrh	w0, [x19, #184]
    2c80:	370800a0 	tbnz	w0, #1, 2c94 <lib_flushall_unlocked+0x5c>
    2c84:	2a1403e1 	mov	w1, w20
    2c88:	f9400273 	ldr	x19, [x19]
    2c8c:	2a0103f4 	mov	w20, w1
    2c90:	17fffff6 	b	2c68 <lib_flushall_unlocked+0x30>
    2c94:	aa1303e0 	mov	x0, x19
    2c98:	94000000 	bl	2d34 <lib_fflush_unlocked>	2c98: R_AARCH64_CALL26	lib_fflush_unlocked
    2c9c:	2a0003e1 	mov	w1, w0
    2ca0:	36ffff20 	tbz	w0, #31, 2c84 <lib_flushall_unlocked+0x4c>
    2ca4:	17fffff9 	b	2c88 <lib_flushall_unlocked+0x50>
    2ca8:	52800014 	mov	w20, #0x0                   	// #0
    2cac:	17fffff0 	b	2c6c <lib_flushall_unlocked+0x34>

0000000000002cb0 <lib_flushall>:
lib_flushall():
    2cb0:	a9be4ffe 	stp	x30, x19, [sp, #-32]!
    2cb4:	a90157f4 	stp	x20, x21, [sp, #16]
    2cb8:	b40003a0 	cbz	x0, 2d2c <lib_flushall+0x7c>
    2cbc:	aa0003f3 	mov	x19, x0
    2cc0:	94000000 	bl	2534 <nxmutex_lock>	2cc0: R_AARCH64_CALL26	nxmutex_lock
    2cc4:	91008260 	add	x0, x19, #0x20
    2cc8:	94000000 	bl	2de4 <lib_fflush>	2cc8: R_AARCH64_CALL26	lib_fflush
    2ccc:	91038260 	add	x0, x19, #0xe0
    2cd0:	94000000 	bl	2de4 <lib_fflush>	2cd0: R_AARCH64_CALL26	lib_fflush
    2cd4:	91068260 	add	x0, x19, #0x1a0
    2cd8:	94000000 	bl	2de4 <lib_fflush>	2cd8: R_AARCH64_CALL26	lib_fflush
    2cdc:	f9413274 	ldr	x20, [x19, #608]
    2ce0:	52800015 	mov	w21, #0x0                   	// #0
    2ce4:	b50000f4 	cbnz	x20, 2d00 <lib_flushall+0x50>
    2ce8:	aa1303e0 	mov	x0, x19
    2cec:	94000000 	bl	26ac <nxmutex_unlock>	2cec: R_AARCH64_CALL26	nxmutex_unlock
    2cf0:	2a1503e0 	mov	w0, w21
    2cf4:	a94157f4 	ldp	x20, x21, [sp, #16]
    2cf8:	a8c24ffe 	ldp	x30, x19, [sp], #32
    2cfc:	d65f03c0 	ret
    2d00:	79417280 	ldrh	w0, [x20, #184]
    2d04:	370800a0 	tbnz	w0, #1, 2d18 <lib_flushall+0x68>
    2d08:	2a1503e1 	mov	w1, w21
    2d0c:	f9400294 	ldr	x20, [x20]
    2d10:	2a0103f5 	mov	w21, w1
    2d14:	17fffff4 	b	2ce4 <lib_flushall+0x34>
    2d18:	aa1403e0 	mov	x0, x20
    2d1c:	94000000 	bl	2de4 <lib_fflush>	2d1c: R_AARCH64_CALL26	lib_fflush
    2d20:	2a0003e1 	mov	w1, w0
    2d24:	36ffff20 	tbz	w0, #31, 2d08 <lib_flushall+0x58>
    2d28:	17fffff9 	b	2d0c <lib_flushall+0x5c>
    2d2c:	52800015 	mov	w21, #0x0                   	// #0
    2d30:	17fffff0 	b	2cf0 <lib_flushall+0x40>

0000000000002d34 <lib_fflush_unlocked>:
lib_fflush_unlocked():
    2d34:	a9be4ffe 	stp	x30, x19, [sp, #-32]!
    2d38:	aa0003f3 	mov	x19, x0
    2d3c:	a90157f4 	stp	x20, x21, [sp, #16]
    2d40:	79417000 	ldrh	w0, [x0, #184]
    2d44:	360804c0 	tbz	w0, #1, 2ddc <lib_fflush_unlocked+0xa8>
    2d48:	f9402e75 	ldr	x21, [x19, #88]
    2d4c:	b50000b5 	cbnz	x21, 2d60 <lib_fflush_unlocked+0x2c>
    2d50:	d2800000 	mov	x0, #0x0                   	// #0
    2d54:	a94157f4 	ldp	x20, x21, [sp, #16]
    2d58:	a8c24ffe 	ldp	x30, x19, [sp], #32
    2d5c:	d65f03c0 	ret
    2d60:	f9403674 	ldr	x20, [x19, #104]
    2d64:	eb1402bf 	cmp	x21, x20
    2d68:	54ffff40 	b.eq	2d50 <lib_fflush_unlocked+0x1c>  // b.none
    2d6c:	f9403a60 	ldr	x0, [x19, #112]
    2d70:	eb0002bf 	cmp	x21, x0
    2d74:	54fffee1 	b.ne	2d50 <lib_fflush_unlocked+0x1c>  // b.any
    2d78:	cb150294 	sub	x20, x20, x21
    2d7c:	f9401e63 	ldr	x3, [x19, #56]
    2d80:	aa1403e2 	mov	x2, x20
    2d84:	f9402a60 	ldr	x0, [x19, #80]
    2d88:	aa1503e1 	mov	x1, x21
    2d8c:	b4000163 	cbz	x3, 2db8 <lib_fflush_unlocked+0x84>
    2d90:	d63f0060 	blr	x3
    2d94:	b6f80160 	tbz	x0, #63, 2dc0 <lib_fflush_unlocked+0x8c>
    2d98:	3942ea60 	ldrb	w0, [x19, #186]
    2d9c:	321f0000 	orr	w0, w0, #0x2
    2da0:	3902ea60 	strb	w0, [x19, #186]
    2da4:	94000000 	bl	2454 <__errno>	2da4: R_AARCH64_CALL26	__errno
    2da8:	b9400000 	ldr	w0, [x0]
    2dac:	4b0003e0 	neg	w0, w0
    2db0:	93407c00 	sxtw	x0, w0
    2db4:	17ffffe8 	b	2d54 <lib_fflush_unlocked+0x20>
    2db8:	94000000 	bl	2fe0 <write>	2db8: R_AARCH64_CALL26	write
    2dbc:	17fffff6 	b	2d94 <lib_fflush_unlocked+0x60>
    2dc0:	cb000294 	sub	x20, x20, x0
    2dc4:	8b0002b5 	add	x21, x21, x0
    2dc8:	f100029f 	cmp	x20, #0x0
    2dcc:	54fffd8c 	b.gt	2d7c <lib_fflush_unlocked+0x48>
    2dd0:	f9402e60 	ldr	x0, [x19, #88]
    2dd4:	f9003660 	str	x0, [x19, #104]
    2dd8:	17ffffde 	b	2d50 <lib_fflush_unlocked+0x1c>
    2ddc:	92800100 	mov	x0, #0xfffffffffffffff7    	// #-9
    2de0:	17ffffdd 	b	2d54 <lib_fflush_unlocked+0x20>

0000000000002de4 <lib_fflush>:
lib_fflush():
    2de4:	a9be4ffe 	stp	x30, x19, [sp, #-32]!
    2de8:	aa0003f3 	mov	x19, x0
    2dec:	f9000bf4 	str	x20, [sp, #16]
    2df0:	94000000 	bl	2e18 <flockfile>	2df0: R_AARCH64_CALL26	flockfile
    2df4:	aa1303e0 	mov	x0, x19
    2df8:	94000000 	bl	2d34 <lib_fflush_unlocked>	2df8: R_AARCH64_CALL26	lib_fflush_unlocked
    2dfc:	aa0003f4 	mov	x20, x0
    2e00:	aa1303e0 	mov	x0, x19
    2e04:	94000000 	bl	2e28 <funlockfile>	2e04: R_AARCH64_CALL26	funlockfile
    2e08:	aa1403e0 	mov	x0, x20
    2e0c:	f9400bf4 	ldr	x20, [sp, #16]
    2e10:	a8c24ffe 	ldp	x30, x19, [sp], #32
    2e14:	d65f03c0 	ret

0000000000002e18 <flockfile>:
flockfile():
    2e18:	91002000 	add	x0, x0, #0x8
    2e1c:	14000000 	b	27b8 <nxrmutex_lock>	2e1c: R_AARCH64_JUMP26	nxrmutex_lock

0000000000002e20 <ftrylockfile>:
ftrylockfile():
    2e20:	91002000 	add	x0, x0, #0x8
    2e24:	14000000 	b	2810 <nxrmutex_trylock>	2e24: R_AARCH64_JUMP26	nxrmutex_trylock

0000000000002e28 <funlockfile>:
funlockfile():
    2e28:	91002000 	add	x0, x0, #0x8
    2e2c:	14000000 	b	2940 <nxrmutex_unlock>	2e2c: R_AARCH64_JUMP26	nxrmutex_unlock

0000000000002e30 <lib_get_streams>:
lib_get_streams():
    2e30:	f81f0ffe 	str	x30, [sp, #-16]!
    2e34:	94000000 	bl	242c <task_get_info>	2e34: R_AARCH64_CALL26	task_get_info
    2e38:	9106a000 	add	x0, x0, #0x1a8
    2e3c:	f84107fe 	ldr	x30, [sp], #16
    2e40:	d65f03c0 	ret

0000000000002e44 <lib_get_stream>:
lib_get_stream():
    2e44:	a9bf4ffe 	stp	x30, x19, [sp, #-16]!
    2e48:	2a0003f3 	mov	w19, w0
    2e4c:	94000000 	bl	242c <task_get_info>	2e4c: R_AARCH64_CALL26	task_get_info
    2e50:	52801802 	mov	w2, #0xc0                  	// #192
    2e54:	d2803901 	mov	x1, #0x1c8                 	// #456
    2e58:	9b220673 	smaddl	x19, w19, w2, x1
    2e5c:	8b130000 	add	x0, x0, x19
    2e60:	a8c14ffe 	ldp	x30, x19, [sp], #16
    2e64:	d65f03c0 	ret

0000000000002e68 <abort>:
abort():
    2e68:	f81f0ffe 	str	x30, [sp, #-16]!
    2e6c:	52800020 	mov	w0, #0x1                   	// #1
    2e70:	94000000 	bl	2ec0 <_exit>	2e70: R_AARCH64_CALL26	_exit

0000000000002e74 <pthread_exit>:
pthread_exit():
    2e74:	a9be7bfd 	stp	x29, x30, [sp, #-32]!
    2e78:	d2800001 	mov	x1, #0x0                   	// #0
    2e7c:	910003fd 	mov	x29, sp
    2e80:	f9000bf3 	str	x19, [sp, #16]
    2e84:	aa0003f3 	mov	x19, x0
    2e88:	52800020 	mov	w0, #0x1                   	// #1
    2e8c:	94000000 	bl	2a1c <task_setcancelstate>	2e8c: R_AARCH64_CALL26	task_setcancelstate
    2e90:	aa1303e0 	mov	x0, x19
    2e94:	94000000 	bl	2f08 <nx_pthread_exit>	2e94: R_AARCH64_CALL26	nx_pthread_exit

0000000000002e98 <_assert>:
_assert():
    2e98:	aa0003e5 	mov	x5, x0
    2e9c:	aa0303e4 	mov	x4, x3
    2ea0:	d28000e0 	mov	x0, #0x7                   	// #7
    2ea4:	aa0203e3 	mov	x3, x2
    2ea8:	93407c22 	sxtw	x2, w1
    2eac:	aa0503e1 	mov	x1, x5
    2eb0:	f81f0ffe 	str	x30, [sp, #-16]!
    2eb4:	d4000001 	svc	#0x0
    2eb8:	f84107fe 	ldr	x30, [sp], #16
    2ebc:	d65f03c0 	ret

0000000000002ec0 <_exit>:
_exit():
    2ec0:	93407c01 	sxtw	x1, w0
    2ec4:	d28000c0 	mov	x0, #0x6                   	// #6
    2ec8:	f81f0ffe 	str	x30, [sp, #-16]!
    2ecc:	d4000001 	svc	#0x0
    2ed0:	14000000 	b	2ed0 <_exit+0x10>

0000000000002ed4 <clock_gettime>:
clock_gettime():
    2ed4:	2a0003e3 	mov	w3, w0
    2ed8:	aa0103e2 	mov	x2, x1
    2edc:	d2800620 	mov	x0, #0x31                  	// #49
    2ee0:	f81f0ffe 	str	x30, [sp, #-16]!
    2ee4:	93407c61 	sxtw	x1, w3
    2ee8:	d4000001 	svc	#0x0
    2eec:	f84107fe 	ldr	x30, [sp], #16
    2ef0:	d65f03c0 	ret

0000000000002ef4 <gettid>:
gettid():
    2ef4:	d2800120 	mov	x0, #0x9                   	// #9
    2ef8:	f81f0ffe 	str	x30, [sp, #-16]!
    2efc:	d4000001 	svc	#0x0
    2f00:	f84107fe 	ldr	x30, [sp], #16
    2f04:	d65f03c0 	ret

0000000000002f08 <nx_pthread_exit>:
nx_pthread_exit():
    2f08:	aa0003e1 	mov	x1, x0
    2f0c:	d2800e00 	mov	x0, #0x70                  	// #112
    2f10:	f81f0ffe 	str	x30, [sp, #-16]!
    2f14:	d4000001 	svc	#0x0
    2f18:	14000000 	b	2f18 <nx_pthread_exit+0x10>

0000000000002f1c <nxsem_clockwait>:
nxsem_clockwait():
    2f1c:	aa0003e4 	mov	x4, x0
    2f20:	aa0203e3 	mov	x3, x2
    2f24:	d2800380 	mov	x0, #0x1c                  	// #28
    2f28:	93407c22 	sxtw	x2, w1
    2f2c:	aa0403e1 	mov	x1, x4
    2f30:	f81f0ffe 	str	x30, [sp, #-16]!
    2f34:	d4000001 	svc	#0x0
    2f38:	f84107fe 	ldr	x30, [sp], #16
    2f3c:	d65f03c0 	ret

0000000000002f40 <nxsem_destroy>:
nxsem_destroy():
    2f40:	aa0003e1 	mov	x1, x0
    2f44:	d2800340 	mov	x0, #0x1a                  	// #26
    2f48:	f81f0ffe 	str	x30, [sp, #-16]!
    2f4c:	d4000001 	svc	#0x0
    2f50:	f84107fe 	ldr	x30, [sp], #16
    2f54:	d65f03c0 	ret

0000000000002f58 <nxsem_post>:
nxsem_post():
    2f58:	aa0003e1 	mov	x1, x0
    2f5c:	d2800360 	mov	x0, #0x1b                  	// #27
    2f60:	f81f0ffe 	str	x30, [sp, #-16]!
    2f64:	d4000001 	svc	#0x0
    2f68:	f84107fe 	ldr	x30, [sp], #16
    2f6c:	d65f03c0 	ret

0000000000002f70 <nxsem_trywait>:
nxsem_trywait():
    2f70:	aa0003e1 	mov	x1, x0
    2f74:	d28003c0 	mov	x0, #0x1e                  	// #30
    2f78:	f81f0ffe 	str	x30, [sp, #-16]!
    2f7c:	d4000001 	svc	#0x0
    2f80:	f84107fe 	ldr	x30, [sp], #16
    2f84:	d65f03c0 	ret

0000000000002f88 <nxsem_wait>:
nxsem_wait():
    2f88:	aa0003e1 	mov	x1, x0
    2f8c:	d28003e0 	mov	x0, #0x1f                  	// #31
    2f90:	f81f0ffe 	str	x30, [sp, #-16]!
    2f94:	d4000001 	svc	#0x0
    2f98:	f84107fe 	ldr	x30, [sp], #16
    2f9c:	d65f03c0 	ret

0000000000002fa0 <sched_getparam>:
sched_getparam():
    2fa0:	2a0003e3 	mov	w3, w0
    2fa4:	aa0103e2 	mov	x2, x1
    2fa8:	d28001a0 	mov	x0, #0xd                   	// #13
    2fac:	f81f0ffe 	str	x30, [sp, #-16]!
    2fb0:	93407c61 	sxtw	x1, w3
    2fb4:	d4000001 	svc	#0x0
    2fb8:	f84107fe 	ldr	x30, [sp], #16
    2fbc:	d65f03c0 	ret

0000000000002fc0 <sched_setparam>:
sched_setparam():
    2fc0:	2a0003e3 	mov	w3, w0
    2fc4:	aa0103e2 	mov	x2, x1
    2fc8:	d2800240 	mov	x0, #0x12                  	// #18
    2fcc:	f81f0ffe 	str	x30, [sp, #-16]!
    2fd0:	93407c61 	sxtw	x1, w3
    2fd4:	d4000001 	svc	#0x0
    2fd8:	f84107fe 	ldr	x30, [sp], #16
    2fdc:	d65f03c0 	ret

0000000000002fe0 <write>:
write():
    2fe0:	2a0003e4 	mov	w4, w0
    2fe4:	aa0203e3 	mov	x3, x2
    2fe8:	d28007c0 	mov	x0, #0x3e                  	// #62
    2fec:	aa0103e2 	mov	x2, x1
    2ff0:	93407c81 	sxtw	x1, w4
    2ff4:	f81f0ffe 	str	x30, [sp, #-16]!
    2ff8:	d4000001 	svc	#0x0
    2ffc:	f84107fe 	ldr	x30, [sp], #16
    3000:	d65f03c0 	ret

0000000000003004 <nsh_consolemain>:
nsh_consolemain():
    3004:	a9be4ffe 	stp	x30, x19, [sp, #-32]!
    3008:	a90157f4 	stp	x20, x21, [sp, #16]
    300c:	2a0003f4 	mov	w20, w0
    3010:	aa0103f5 	mov	x21, x1
    3014:	52800020 	mov	w0, #0x1                   	// #1
    3018:	94000000 	bl	3700 <nsh_newconsole>	3018: R_AARCH64_CALL26	nsh_newconsole
    301c:	b50000e0 	cbnz	x0, 3038 <nsh_consolemain+0x34>
    3020:	90000002 	adrp	x2, ebb8 <_srodata>	3020: R_AARCH64_ADR_PREL_PG_HI21	.rodata+0x281
    3024:	90000000 	adrp	x0, ebb8 <_srodata>	3024: R_AARCH64_ADR_PREL_PG_HI21	.rodata+0x296
    3028:	91000042 	add	x2, x2, #0x0	3028: R_AARCH64_ADD_ABS_LO12_NC	.rodata+0x281
    302c:	91000000 	add	x0, x0, #0x0	302c: R_AARCH64_ADD_ABS_LO12_NC	.rodata+0x296
    3030:	528008a1 	mov	w1, #0x45                  	// #69
    3034:	94000000 	bl	2444 <__assert>	3034: R_AARCH64_CALL26	__assert
    3038:	aa0003f3 	mov	x19, x0
    303c:	2a1403e2 	mov	w2, w20
    3040:	52800021 	mov	w1, #0x1                   	// #1
    3044:	aa1503e3 	mov	x3, x21
    3048:	94000000 	bl	30ec <nsh_session>	3048: R_AARCH64_CALL26	nsh_session
    304c:	2a0003e1 	mov	w1, w0
    3050:	f9402e62 	ldr	x2, [x19, #88]
    3054:	aa1303e0 	mov	x0, x19
    3058:	d63f0040 	blr	x2

000000000000305c <nsh_initialize>:
nsh_initialize():
    305c:	f81f0ffe 	str	x30, [sp, #-16]!
    3060:	94000000 	bl	3074 <nsh_update_prompt>	3060: R_AARCH64_CALL26	nsh_update_prompt
    3064:	f84107fe 	ldr	x30, [sp], #16
    3068:	d2800001 	mov	x1, #0x0                   	// #0
    306c:	529fe020 	mov	w0, #0xff01                	// #65281
    3070:	14000000 	b	e7cc <boardctl>	3070: R_AARCH64_JUMP26	boardctl

0000000000003074 <nsh_update_prompt>:
nsh_update_prompt():
    3074:	a9be4ffe 	stp	x30, x19, [sp, #-32]!
    3078:	90000013 	adrp	x19, 50 <memcpy+0x50>	3078: R_AARCH64_ADR_PREL_PG_HI21	.data+0x8
    307c:	91000273 	add	x19, x19, #0x0	307c: R_AARCH64_ADD_ABS_LO12_NC	.data+0x8
    3080:	f9000bf4 	str	x20, [sp, #16]
    3084:	90000014 	adrp	x20, ebb8 <_srodata>	3084: R_AARCH64_ADR_PREL_PG_HI21	.rodata+0x2a8
    3088:	91000294 	add	x20, x20, #0x0	3088: R_AARCH64_ADD_ABS_LO12_NC	.rodata+0x2a8
    308c:	aa1403e0 	mov	x0, x20
    3090:	94000000 	bl	e860 <getenv>	3090: R_AARCH64_CALL26	getenv
    3094:	b40001a0 	cbz	x0, 30c8 <nsh_update_prompt+0x54>
    3098:	aa1403e0 	mov	x0, x20
    309c:	94000000 	bl	e860 <getenv>	309c: R_AARCH64_CALL26	getenv
    30a0:	d28003c2 	mov	x2, #0x1e                  	// #30
    30a4:	aa0003e1 	mov	x1, x0
    30a8:	aa1303e0 	mov	x0, x19
    30ac:	94000000 	bl	dc70 <strlcpy>	30ac: R_AARCH64_CALL26	strlcpy
    30b0:	f9400bf4 	ldr	x20, [sp, #16]
    30b4:	aa1303e0 	mov	x0, x19
    30b8:	a8c24ffe 	ldp	x30, x19, [sp], #32
    30bc:	90000001 	adrp	x1, ebb8 <_srodata>	30bc: R_AARCH64_ADR_PREL_PG_HI21	.rodata+0x2ac
    30c0:	91000021 	add	x1, x1, #0x0	30c0: R_AARCH64_ADD_ABS_LO12_NC	.rodata+0x2ac
    30c4:	14000000 	b	dcac <strcat>	30c4: R_AARCH64_JUMP26	strcat
    30c8:	f9400bf4 	ldr	x20, [sp, #16]
    30cc:	aa1303e0 	mov	x0, x19
    30d0:	a8c24ffe 	ldp	x30, x19, [sp], #32
    30d4:	90000001 	adrp	x1, ebb8 <_srodata>	30d4: R_AARCH64_ADR_PREL_PG_HI21	.rodata+0x2af
    30d8:	91000021 	add	x1, x1, #0x0	30d8: R_AARCH64_ADD_ABS_LO12_NC	.rodata+0x2af
    30dc:	14000000 	b	780 <strcpy>	30dc: R_AARCH64_JUMP26	strcpy

00000000000030e0 <nsh_prompt>:
nsh_prompt():
    30e0:	90000000 	adrp	x0, 50 <memcpy+0x50>	30e0: R_AARCH64_ADR_PREL_PG_HI21	.data+0x8
    30e4:	91000000 	add	x0, x0, #0x0	30e4: R_AARCH64_ADD_ABS_LO12_NC	.data+0x8
    30e8:	d65f03c0 	ret

00000000000030ec <nsh_session>:
nsh_session():
    30ec:	a9bd4ffe 	stp	x30, x19, [sp, #-48]!
    30f0:	a90157f4 	stp	x20, x21, [sp, #16]
    30f4:	f90013f6 	str	x22, [sp, #32]
    30f8:	b50000e0 	cbnz	x0, 3114 <nsh_session+0x28>
    30fc:	90000002 	adrp	x2, ebb8 <_srodata>	30fc: R_AARCH64_ADR_PREL_PG_HI21	.rodata+0x2b5
    3100:	90000000 	adrp	x0, ebb8 <_srodata>	3100: R_AARCH64_ADR_PREL_PG_HI21	.rodata+0x2bc
    3104:	91000042 	add	x2, x2, #0x0	3104: R_AARCH64_ADD_ABS_LO12_NC	.rodata+0x2b5
    3108:	91000000 	add	x0, x0, #0x0	3108: R_AARCH64_ADD_ABS_LO12_NC	.rodata+0x2bc
    310c:	528009a1 	mov	w1, #0x4d                  	// #77
    3110:	94000000 	bl	2444 <__assert>	3110: R_AARCH64_CALL26	__assert
    3114:	aa0003f3 	mov	x19, x0
    3118:	2a0203f6 	mov	w22, w2
    311c:	aa0303f4 	mov	x20, x3
    3120:	34000121 	cbz	w1, 3144 <nsh_session+0x58>
    3124:	90000015 	adrp	x21, f175 <g_nshgreeting>	3124: R_AARCH64_ADR_PREL_PG_HI21	g_nshgreeting
    3128:	910002b5 	add	x21, x21, #0x0	3128: R_AARCH64_ADD_ABS_LO12_NC	g_nshgreeting
    312c:	aa1503e0 	mov	x0, x21
    3130:	94000000 	bl	940 <strlen>	3130: R_AARCH64_CALL26	strlen
    3134:	aa0003e2 	mov	x2, x0
    3138:	b9432660 	ldr	w0, [x19, #804]
    313c:	aa1503e1 	mov	x1, x21
    3140:	94000000 	bl	2fe0 <write>	3140: R_AARCH64_CALL26	write
    3144:	710006df 	cmp	w22, #0x1
    3148:	540003cc 	b.gt	31c0 <nsh_session+0xd4>
    314c:	910cb275 	add	x21, x19, #0x32c
    3150:	b9432676 	ldr	w22, [x19, #804]
    3154:	94000000 	bl	30e0 <nsh_prompt>	3154: R_AARCH64_CALL26	nsh_prompt
    3158:	aa0003f4 	mov	x20, x0
    315c:	94000000 	bl	30e0 <nsh_prompt>	315c: R_AARCH64_CALL26	nsh_prompt
    3160:	94000000 	bl	940 <strlen>	3160: R_AARCH64_CALL26	strlen
    3164:	aa0003e2 	mov	x2, x0
    3168:	aa1403e1 	mov	x1, x20
    316c:	2a1603e0 	mov	w0, w22
    3170:	94000000 	bl	2fe0 <write>	3170: R_AARCH64_CALL26	write
    3174:	b9432262 	ldr	w2, [x19, #800]
    3178:	aa1503e0 	mov	x0, x21
    317c:	b9432663 	ldr	w3, [x19, #804]
    3180:	52800a01 	mov	w1, #0x50                  	// #80
    3184:	94000000 	bl	33b0 <readline_fd>	3184: R_AARCH64_CALL26	readline_fd
    3188:	3100041f 	cmn	w0, #0x1
    318c:	54000861 	b.ne	3298 <nsh_session+0x1ac>  // b.any
    3190:	b9432a73 	ldr	w19, [x19, #808]
    3194:	94000000 	bl	2454 <__errno>	3194: R_AARCH64_CALL26	__errno
    3198:	b9400004 	ldr	w4, [x0]
    319c:	90000003 	adrp	x3, ebb8 <_srodata>	319c: R_AARCH64_ADR_PREL_PG_HI21	.rodata+0x2f8
    31a0:	2a1303e0 	mov	w0, w19
    31a4:	91000063 	add	x3, x3, #0x0	31a4: R_AARCH64_ADD_ABS_LO12_NC	.rodata+0x2f8
    31a8:	90000002 	adrp	x2, ebb8 <_srodata>	31a8: R_AARCH64_ADR_PREL_PG_HI21	.rodata+0x301
    31ac:	90000001 	adrp	x1, f03d <g_fmtcmdfailed>	31ac: R_AARCH64_ADR_PREL_PG_HI21	g_fmtcmdfailed
    31b0:	91000042 	add	x2, x2, #0x0	31b0: R_AARCH64_ADD_ABS_LO12_NC	.rodata+0x301
    31b4:	91000021 	add	x1, x1, #0x0	31b4: R_AARCH64_ADD_ABS_LO12_NC	g_fmtcmdfailed
    31b8:	94000000 	bl	ef8 <dprintf>	31b8: R_AARCH64_CALL26	dprintf
    31bc:	1400000d 	b	31f0 <nsh_session+0x104>
    31c0:	f9400695 	ldr	x21, [x20, #8]
    31c4:	90000001 	adrp	x1, ebb8 <_srodata>	31c4: R_AARCH64_ADR_PREL_PG_HI21	.rodata+0x2ca
    31c8:	91000021 	add	x1, x1, #0x0	31c8: R_AARCH64_ADD_ABS_LO12_NC	.rodata+0x2ca
    31cc:	aa1503e0 	mov	x0, x21
    31d0:	94000000 	bl	680 <strcmp>	31d0: R_AARCH64_CALL26	strcmp
    31d4:	35000120 	cbnz	w0, 31f8 <nsh_session+0x10c>
    31d8:	f9400282 	ldr	x2, [x20]
    31dc:	90000001 	adrp	x1, ebb8 <_srodata>	31dc: R_AARCH64_ADR_PREL_PG_HI21	.rodata+0x2cd
    31e0:	f9401e63 	ldr	x3, [x19, #56]
    31e4:	91000021 	add	x1, x1, #0x0	31e4: R_AARCH64_ADD_ABS_LO12_NC	.rodata+0x2cd
    31e8:	aa1303e0 	mov	x0, x19
    31ec:	d63f0060 	blr	x3
    31f0:	52800000 	mov	w0, #0x0                   	// #0
    31f4:	14000015 	b	3248 <nsh_session+0x15c>
    31f8:	90000001 	adrp	x1, ebb8 <_srodata>	31f8: R_AARCH64_ADR_PREL_PG_HI21	.rodata+0x2f5
    31fc:	aa1503e0 	mov	x0, x21
    3200:	91000021 	add	x1, x1, #0x0	3200: R_AARCH64_ADD_ABS_LO12_NC	.rodata+0x2f5
    3204:	94000000 	bl	680 <strcmp>	3204: R_AARCH64_CALL26	strcmp
    3208:	35000280 	cbnz	w0, 3258 <nsh_session+0x16c>
    320c:	71000adf 	cmp	w22, #0x2
    3210:	540000e0 	b.eq	322c <nsh_session+0x140>  // b.none
    3214:	f9400a81 	ldr	x1, [x20, #16]
    3218:	aa1303e0 	mov	x0, x19
    321c:	f94013f6 	ldr	x22, [sp, #32]
    3220:	a94157f4 	ldp	x20, x21, [sp, #16]
    3224:	a8c34ffe 	ldp	x30, x19, [sp], #48
    3228:	14000000 	b	4c98 <nsh_parse>	3228: R_AARCH64_JUMP26	nsh_parse
    322c:	f9400282 	ldr	x2, [x20]
    3230:	90000001 	adrp	x1, f137 <g_fmtargrequired>	3230: R_AARCH64_ADR_PREL_PG_HI21	g_fmtargrequired
    3234:	f9401a63 	ldr	x3, [x19, #48]
    3238:	91000021 	add	x1, x1, #0x0	3238: R_AARCH64_ADD_ABS_LO12_NC	g_fmtargrequired
    323c:	aa1303e0 	mov	x0, x19
    3240:	d63f0060 	blr	x3
    3244:	52800020 	mov	w0, #0x1                   	// #1
    3248:	f94013f6 	ldr	x22, [sp, #32]
    324c:	a94157f4 	ldp	x20, x21, [sp, #16]
    3250:	a8c34ffe 	ldp	x30, x19, [sp], #48
    3254:	d65f03c0 	ret
    3258:	394002a0 	ldrb	w0, [x21]
    325c:	f9400281 	ldr	x1, [x20]
    3260:	7100b41f 	cmp	w0, #0x2d
    3264:	540000c1 	b.ne	327c <nsh_session+0x190>  // b.any
    3268:	f9401a63 	ldr	x3, [x19, #48]
    326c:	aa0103e2 	mov	x2, x1
    3270:	90000001 	adrp	x1, f15e <g_fmtsyntax>	3270: R_AARCH64_ADR_PREL_PG_HI21	g_fmtsyntax
    3274:	91000021 	add	x1, x1, #0x0	3274: R_AARCH64_ADD_ABS_LO12_NC	g_fmtsyntax
    3278:	17fffff1 	b	323c <nsh_session+0x150>
    327c:	f94013f6 	ldr	x22, [sp, #32]
    3280:	aa1503e2 	mov	x2, x21
    3284:	aa1303e0 	mov	x0, x19
    3288:	52800023 	mov	w3, #0x1                   	// #1
    328c:	a94157f4 	ldp	x20, x21, [sp, #16]
    3290:	a8c34ffe 	ldp	x30, x19, [sp], #48
    3294:	14000000 	b	4e10 <nsh_script>	3294: R_AARCH64_JUMP26	nsh_script
    3298:	aa1503e1 	mov	x1, x21
    329c:	aa1303e0 	mov	x0, x19
    32a0:	94000000 	bl	4c98 <nsh_parse>	32a0: R_AARCH64_CALL26	nsh_parse
    32a4:	94000000 	bl	3074 <nsh_update_prompt>	32a4: R_AARCH64_CALL26	nsh_update_prompt
    32a8:	17ffffaa 	b	3150 <nsh_session+0x64>
    32ac:	f100001f 	cmp	x0, #0x0
    32b0:	fa401824 	ccmp	x1, #0x0, #0x4, ne	// ne = any
    32b4:	54000040 	b.eq	32bc <nsh_session+0x1d0>  // b.none
    32b8:	b5000102 	cbnz	x2, 32d8 <nsh_session+0x1ec>
    32bc:	f81f0ffe 	str	x30, [sp, #-16]!
    32c0:	90000002 	adrp	x2, ebb8 <_srodata>	32c0: R_AARCH64_ADR_PREL_PG_HI21	.rodata+0x30d
    32c4:	90000000 	adrp	x0, ebb8 <_srodata>	32c4: R_AARCH64_ADR_PREL_PG_HI21	.rodata+0x32a
    32c8:	91000042 	add	x2, x2, #0x0	32c8: R_AARCH64_ADD_ABS_LO12_NC	.rodata+0x30d
    32cc:	91000000 	add	x0, x0, #0x0	32cc: R_AARCH64_ADD_ABS_LO12_NC	.rodata+0x32a
    32d0:	52801401 	mov	w1, #0xa0                  	// #160
    32d4:	94000000 	bl	2444 <__assert>	32d4: R_AARCH64_CALL26	__assert
    32d8:	b9401c00 	ldr	w0, [x0, #28]
    32dc:	37f80040 	tbnz	w0, #31, 32e4 <nsh_session+0x1f8>
    32e0:	14000000 	b	2fe0 <write>	32e0: R_AARCH64_JUMP26	write
    32e4:	d65f03c0 	ret
    32e8:	a9be4ffe 	stp	x30, x19, [sp, #-32]!
    32ec:	39007fe1 	strb	w1, [sp, #31]
    32f0:	b50000e0 	cbnz	x0, 330c <nsh_session+0x220>
    32f4:	90000002 	adrp	x2, ebb8 <_srodata>	32f4: R_AARCH64_ADR_PREL_PG_HI21	.rodata+0x338
    32f8:	90000000 	adrp	x0, ebb8 <_srodata>	32f8: R_AARCH64_ADR_PREL_PG_HI21	.rodata+0x32a
    32fc:	91000042 	add	x2, x2, #0x0	32fc: R_AARCH64_ADD_ABS_LO12_NC	.rodata+0x338
    3300:	91000000 	add	x0, x0, #0x0	3300: R_AARCH64_ADD_ABS_LO12_NC	.rodata+0x32a
    3304:	52800f21 	mov	w1, #0x79                  	// #121
    3308:	94000000 	bl	2444 <__assert>	3308: R_AARCH64_CALL26	__assert
    330c:	aa0003f3 	mov	x19, x0
    3310:	b9401c00 	ldr	w0, [x0, #28]
    3314:	37f80100 	tbnz	w0, #31, 3334 <nsh_session+0x248>
    3318:	b9401e60 	ldr	w0, [x19, #28]
    331c:	91007fe1 	add	x1, sp, #0x1f
    3320:	d2800022 	mov	x2, #0x1                   	// #1
    3324:	94000000 	bl	2fe0 <write>	3324: R_AARCH64_CALL26	write
    3328:	f100001f 	cmp	x0, #0x0
    332c:	5400008b 	b.lt	333c <nsh_session+0x250>  // b.tstop
    3330:	54ffff40 	b.eq	3318 <nsh_session+0x22c>  // b.none
    3334:	a8c24ffe 	ldp	x30, x19, [sp], #32
    3338:	d65f03c0 	ret
    333c:	94000000 	bl	2454 <__errno>	333c: R_AARCH64_CALL26	__errno
    3340:	b9400000 	ldr	w0, [x0]
    3344:	7100101f 	cmp	w0, #0x4
    3348:	17fffffa 	b	3330 <nsh_session+0x244>
    334c:	a9be4ffe 	stp	x30, x19, [sp, #-32]!
    3350:	b50000e0 	cbnz	x0, 336c <nsh_session+0x280>
    3354:	90000002 	adrp	x2, ebb8 <_srodata>	3354: R_AARCH64_ADR_PREL_PG_HI21	.rodata+0x338
    3358:	90000000 	adrp	x0, ebb8 <_srodata>	3358: R_AARCH64_ADR_PREL_PG_HI21	.rodata+0x32a
    335c:	91000042 	add	x2, x2, #0x0	335c: R_AARCH64_ADD_ABS_LO12_NC	.rodata+0x338
    3360:	91000000 	add	x0, x0, #0x0	3360: R_AARCH64_ADD_ABS_LO12_NC	.rodata+0x32a
    3364:	52800821 	mov	w1, #0x41                  	// #65
    3368:	94000000 	bl	2444 <__assert>	3368: R_AARCH64_CALL26	__assert
    336c:	aa0003f3 	mov	x19, x0
    3370:	b9401a60 	ldr	w0, [x19, #24]
    3374:	91007fe1 	add	x1, sp, #0x1f
    3378:	d2800022 	mov	x2, #0x1                   	// #1
    337c:	94000000 	bl	ea70 <read>	337c: R_AARCH64_CALL26	read
    3380:	f100001f 	cmp	x0, #0x0
    3384:	b4000120 	cbz	x0, 33a8 <nsh_session+0x2bc>
    3388:	5400008b 	b.lt	3398 <nsh_session+0x2ac>  // b.tstop
    338c:	39407fe0 	ldrb	w0, [sp, #31]
    3390:	a8c24ffe 	ldp	x30, x19, [sp], #32
    3394:	d65f03c0 	ret
    3398:	94000000 	bl	2454 <__errno>	3398: R_AARCH64_CALL26	__errno
    339c:	b9400000 	ldr	w0, [x0]
    33a0:	7100101f 	cmp	w0, #0x4
    33a4:	54fffe60 	b.eq	3370 <nsh_session+0x284>  // b.none
    33a8:	12800000 	mov	w0, #0xffffffff            	// #-1
    33ac:	17fffff9 	b	3390 <nsh_session+0x2a4>

00000000000033b0 <readline_fd>:
readline_fd():
    33b0:	a9b84ffe 	stp	x30, x19, [sp, #-128]!
    33b4:	2a0203f3 	mov	w19, w2
    33b8:	a90157f4 	stp	x20, x21, [sp, #16]
    33bc:	aa0003f4 	mov	x20, x0
    33c0:	2a0103f5 	mov	w21, w1
    33c4:	2a0203e0 	mov	w0, w2
    33c8:	f90013f6 	str	x22, [sp, #32]
    33cc:	2a0303f6 	mov	w22, w3
    33d0:	94000000 	bl	dda0 <isatty>	33d0: R_AARCH64_CALL26	isatty
    33d4:	340001e0 	cbz	w0, 3410 <readline_fd+0x60>
    33d8:	910163e1 	add	x1, sp, #0x58
    33dc:	2a1303e0 	mov	w0, w19
    33e0:	94000000 	bl	ddbc <tcgetattr>	33e0: R_AARCH64_CALL26	tcgetattr
    33e4:	b94067e4 	ldr	w4, [sp, #100]
    33e8:	36080144 	tbz	w4, #1, 3410 <readline_fd+0x60>
    33ec:	121e7884 	and	w4, w4, #0xfffffffd
    33f0:	910163e2 	add	x2, sp, #0x58
    33f4:	2a1303e0 	mov	w0, w19
    33f8:	52800001 	mov	w1, #0x0                   	// #0
    33fc:	b90067e4 	str	w4, [sp, #100]
    3400:	94000000 	bl	ddc8 <tcsetattr>	3400: R_AARCH64_CALL26	tcsetattr
    3404:	b94067e0 	ldr	w0, [sp, #100]
    3408:	321f0000 	orr	w0, w0, #0x2
    340c:	b90067e0 	str	w0, [sp, #100]
    3410:	90000000 	adrp	x0, 0 <memcpy>	3410: R_AARCH64_ADR_PREL_PG_HI21	.text+0x334c
    3414:	91000000 	add	x0, x0, #0x0	3414: R_AARCH64_ADD_ABS_LO12_NC	.text+0x334c
    3418:	aa1403e1 	mov	x1, x20
    341c:	2a1503e2 	mov	w2, w21
    3420:	f9001fe0 	str	x0, [sp, #56]
    3424:	90000000 	adrp	x0, 0 <memcpy>	3424: R_AARCH64_ADR_PREL_PG_HI21	.text+0x32e8
    3428:	91000000 	add	x0, x0, #0x0	3428: R_AARCH64_ADD_ABS_LO12_NC	.text+0x32e8
    342c:	f90023e0 	str	x0, [sp, #64]
    3430:	90000000 	adrp	x0, 0 <memcpy>	3430: R_AARCH64_ADR_PREL_PG_HI21	.text+0x32ac
    3434:	91000000 	add	x0, x0, #0x0	3434: R_AARCH64_ADD_ABS_LO12_NC	.text+0x32ac
    3438:	f90027e0 	str	x0, [sp, #72]
    343c:	9100e3e0 	add	x0, sp, #0x38
    3440:	290a5bf3 	stp	w19, w22, [sp, #80]
    3444:	94000000 	bl	4fa0 <readline_common>	3444: R_AARCH64_CALL26	readline_common
    3448:	aa0003f4 	mov	x20, x0
    344c:	2a1303e0 	mov	w0, w19
    3450:	94000000 	bl	dda0 <isatty>	3450: R_AARCH64_CALL26	isatty
    3454:	340000e0 	cbz	w0, 3470 <readline_fd+0xc0>
    3458:	b94067e0 	ldr	w0, [sp, #100]
    345c:	360800a0 	tbz	w0, #1, 3470 <readline_fd+0xc0>
    3460:	910163e2 	add	x2, sp, #0x58
    3464:	2a1303e0 	mov	w0, w19
    3468:	52800001 	mov	w1, #0x0                   	// #0
    346c:	94000000 	bl	ddc8 <tcsetattr>	346c: R_AARCH64_CALL26	tcsetattr
    3470:	f94013f6 	ldr	x22, [sp, #32]
    3474:	aa1403e0 	mov	x0, x20
    3478:	a94157f4 	ldp	x20, x21, [sp, #16]
    347c:	a8c84ffe 	ldp	x30, x19, [sp], #128
    3480:	d65f03c0 	ret
    3484:	910cb000 	add	x0, x0, #0x32c
    3488:	d65f03c0 	ret
    348c:	b40000e3 	cbz	x3, 34a8 <readline_fd+0xf8>
    3490:	b9432804 	ldr	w4, [x0, #808]
    3494:	b9000464 	str	w4, [x3, #4]
    3498:	b9432404 	ldr	w4, [x0, #804]
    349c:	b9000864 	str	w4, [x3, #8]
    34a0:	b9432004 	ldr	w4, [x0, #800]
    34a4:	b9000064 	str	w4, [x3]
    34a8:	b9032001 	str	w1, [x0, #800]
    34ac:	b9032402 	str	w2, [x0, #804]
    34b0:	d65f03c0 	ret
    34b4:	a9bf4ffe 	stp	x30, x19, [sp, #-16]!
    34b8:	aa0003f3 	mov	x19, x0
    34bc:	b9432400 	ldr	w0, [x0, #804]
    34c0:	7100001f 	cmp	w0, #0x0
    34c4:	7a41a804 	ccmp	w0, #0x1, #0x4, ge	// ge = tcont
    34c8:	54000040 	b.eq	34d0 <readline_fd+0x120>  // b.none
    34cc:	94000000 	bl	e814 <close>	34cc: R_AARCH64_CALL26	close
    34d0:	b9432a60 	ldr	w0, [x19, #808]
    34d4:	7100001f 	cmp	w0, #0x0
    34d8:	7a42a804 	ccmp	w0, #0x2, #0x4, ge	// ge = tcont
    34dc:	540000a0 	b.eq	34f0 <readline_fd+0x140>  // b.none
    34e0:	b9432661 	ldr	w1, [x19, #804]
    34e4:	6b00003f 	cmp	w1, w0
    34e8:	54000040 	b.eq	34f0 <readline_fd+0x140>  // b.none
    34ec:	94000000 	bl	e814 <close>	34ec: R_AARCH64_CALL26	close
    34f0:	b9432260 	ldr	w0, [x19, #800]
    34f4:	7100001f 	cmp	w0, #0x0
    34f8:	5400004d 	b.le	3500 <readline_fd+0x150>
    34fc:	94000000 	bl	e814 <close>	34fc: R_AARCH64_CALL26	close
    3500:	92800000 	mov	x0, #0xffffffffffffffff    	// #-1
    3504:	f9019260 	str	x0, [x19, #800]
    3508:	b9032a60 	str	w0, [x19, #808]
    350c:	a8c14ffe 	ldp	x30, x19, [sp], #16
    3510:	d65f03c0 	ret
    3514:	a9be4ffe 	stp	x30, x19, [sp, #-32]!
    3518:	aa0003f3 	mov	x19, x0
    351c:	f9000bf4 	str	x20, [sp, #16]
    3520:	aa0103f4 	mov	x20, x1
    3524:	94000000 	bl	0 <memcpy>	3524: R_AARCH64_CALL26	.text+0x34b4
    3528:	b9400680 	ldr	w0, [x20, #4]
    352c:	b9032a60 	str	w0, [x19, #808]
    3530:	b9400a80 	ldr	w0, [x20, #8]
    3534:	b9032660 	str	w0, [x19, #804]
    3538:	b9400280 	ldr	w0, [x20]
    353c:	b9032260 	str	w0, [x19, #800]
    3540:	f9400bf4 	ldr	x20, [sp, #16]
    3544:	a8c24ffe 	ldp	x30, x19, [sp], #32
    3548:	d65f03c0 	ret
    354c:	d10403ff 	sub	sp, sp, #0x100
    3550:	a90d0fe2 	stp	x2, x3, [sp, #208]
    3554:	910403e2 	add	x2, sp, #0x100
    3558:	a9030be2 	stp	x2, x2, [sp, #48]
    355c:	910343e2 	add	x2, sp, #0xd0
    3560:	3dc00fff 	ldr	q31, [sp, #48]
    3564:	f90023e2 	str	x2, [sp, #64]
    3568:	128005e2 	mov	w2, #0xffffffd0            	// #-48
    356c:	b9004be2 	str	w2, [sp, #72]
    3570:	12800fe2 	mov	w2, #0xffffff80            	// #-128
    3574:	b9004fe2 	str	w2, [sp, #76]
    3578:	3d8007ff 	str	q31, [sp, #16]
    357c:	910043e2 	add	x2, sp, #0x10
    3580:	3dc013ff 	ldr	q31, [sp, #64]
    3584:	f90003fe 	str	x30, [sp]
    3588:	a90e17e4 	stp	x4, x5, [sp, #224]
    358c:	a90f1fe6 	stp	x6, x7, [sp, #240]
    3590:	3d800bff 	str	q31, [sp, #32]
    3594:	ad0287e0 	stp	q0, q1, [sp, #80]
    3598:	ad038fe2 	stp	q2, q3, [sp, #112]
    359c:	ad0497e4 	stp	q4, q5, [sp, #144]
    35a0:	ad059fe6 	stp	q6, q7, [sp, #176]
    35a4:	b9432800 	ldr	w0, [x0, #808]
    35a8:	94000000 	bl	f60 <vdprintf>	35a8: R_AARCH64_CALL26	vdprintf
    35ac:	f94003fe 	ldr	x30, [sp]
    35b0:	910403ff 	add	sp, sp, #0x100
    35b4:	d65f03c0 	ret
    35b8:	d10403ff 	sub	sp, sp, #0x100
    35bc:	a90d0fe2 	stp	x2, x3, [sp, #208]
    35c0:	910403e2 	add	x2, sp, #0x100
    35c4:	a9030be2 	stp	x2, x2, [sp, #48]
    35c8:	910343e2 	add	x2, sp, #0xd0
    35cc:	3dc00fff 	ldr	q31, [sp, #48]
    35d0:	f90023e2 	str	x2, [sp, #64]
    35d4:	128005e2 	mov	w2, #0xffffffd0            	// #-48
    35d8:	b9004be2 	str	w2, [sp, #72]
    35dc:	12800fe2 	mov	w2, #0xffffff80            	// #-128
    35e0:	b9004fe2 	str	w2, [sp, #76]
    35e4:	3d8007ff 	str	q31, [sp, #16]
    35e8:	910043e2 	add	x2, sp, #0x10
    35ec:	3dc013ff 	ldr	q31, [sp, #64]
    35f0:	f90003fe 	str	x30, [sp]
    35f4:	a90e17e4 	stp	x4, x5, [sp, #224]
    35f8:	a90f1fe6 	stp	x6, x7, [sp, #240]
    35fc:	3d800bff 	str	q31, [sp, #32]
    3600:	ad0287e0 	stp	q0, q1, [sp, #80]
    3604:	ad038fe2 	stp	q2, q3, [sp, #112]
    3608:	ad0497e4 	stp	q4, q5, [sp, #144]
    360c:	ad059fe6 	stp	q6, q7, [sp, #176]
    3610:	b9432400 	ldr	w0, [x0, #804]
    3614:	94000000 	bl	f60 <vdprintf>	3614: R_AARCH64_CALL26	vdprintf
    3618:	f94003fe 	ldr	x30, [sp]
    361c:	910403ff 	add	sp, sp, #0x100
    3620:	d65f03c0 	ret
    3624:	b9432400 	ldr	w0, [x0, #804]
    3628:	14000000 	b	e8ac <ioctl>	3628: R_AARCH64_JUMP26	ioctl
    362c:	a9bf4ffe 	stp	x30, x19, [sp, #-16]!
    3630:	aa0003f3 	mov	x19, x0
    3634:	94000000 	bl	0 <memcpy>	3634: R_AARCH64_CALL26	.text+0x34b4
    3638:	aa1303e0 	mov	x0, x19
    363c:	a8c14ffe 	ldp	x30, x19, [sp], #16
    3640:	14000000 	b	b598 <free>	3640: R_AARCH64_JUMP26	free
    3644:	a9bf4ffe 	stp	x30, x19, [sp, #-16]!
    3648:	2a0103f3 	mov	w19, w1
    364c:	94000000 	bl	0 <memcpy>	364c: R_AARCH64_CALL26	.text+0x362c
    3650:	2a1303e0 	mov	w0, w19
    3654:	94000000 	bl	206c <exit>	3654: R_AARCH64_CALL26	exit
    3658:	a9be4ffe 	stp	x30, x19, [sp, #-32]!
    365c:	f9000bf4 	str	x20, [sp, #16]
    3660:	aa0003f4 	mov	x20, x0
    3664:	b9432000 	ldr	w0, [x0, #800]
    3668:	94000000 	bl	ea70 <read>	3668: R_AARCH64_CALL26	read
    366c:	aa0003f3 	mov	x19, x0
    3670:	b6f80160 	tbz	x0, #63, 369c <readline_fd+0x2ec>
    3674:	b9432294 	ldr	w20, [x20, #800]
    3678:	94000000 	bl	2454 <__errno>	3678: R_AARCH64_CALL26	__errno
    367c:	b9400004 	ldr	w4, [x0]
    3680:	90000002 	adrp	x2, ebb8 <_srodata>	3680: R_AARCH64_ADR_PREL_PG_HI21	.rodata+0x3a4
    3684:	90000001 	adrp	x1, ebb8 <_srodata>	3684: R_AARCH64_ADR_PREL_PG_HI21	.rodata+0x33d
    3688:	2a1403e3 	mov	w3, w20
    368c:	91000042 	add	x2, x2, #0x0	368c: R_AARCH64_ADD_ABS_LO12_NC	.rodata+0x3a4
    3690:	91000021 	add	x1, x1, #0x0	3690: R_AARCH64_ADD_ABS_LO12_NC	.rodata+0x33d
    3694:	52800060 	mov	w0, #0x3                   	// #3
    3698:	94000000 	bl	dd24 <syslog>	3698: R_AARCH64_CALL26	syslog
    369c:	f9400bf4 	ldr	x20, [sp, #16]
    36a0:	aa1303e0 	mov	x0, x19
    36a4:	a8c24ffe 	ldp	x30, x19, [sp], #32
    36a8:	d65f03c0 	ret
    36ac:	a9be4ffe 	stp	x30, x19, [sp, #-32]!
    36b0:	f9000bf4 	str	x20, [sp, #16]
    36b4:	aa0003f4 	mov	x20, x0
    36b8:	b9432400 	ldr	w0, [x0, #804]
    36bc:	94000000 	bl	2fe0 <write>	36bc: R_AARCH64_CALL26	write
    36c0:	aa0003f3 	mov	x19, x0
    36c4:	b6f80160 	tbz	x0, #63, 36f0 <readline_fd+0x340>
    36c8:	b9432694 	ldr	w20, [x20, #804]
    36cc:	94000000 	bl	2454 <__errno>	36cc: R_AARCH64_CALL26	__errno
    36d0:	b9400004 	ldr	w4, [x0]
    36d4:	90000002 	adrp	x2, ebb8 <_srodata>	36d4: R_AARCH64_ADR_PREL_PG_HI21	.rodata+0x393
    36d8:	90000001 	adrp	x1, ebb8 <_srodata>	36d8: R_AARCH64_ADR_PREL_PG_HI21	.rodata+0x368
    36dc:	2a1403e3 	mov	w3, w20
    36e0:	91000042 	add	x2, x2, #0x0	36e0: R_AARCH64_ADD_ABS_LO12_NC	.rodata+0x393
    36e4:	91000021 	add	x1, x1, #0x0	36e4: R_AARCH64_ADD_ABS_LO12_NC	.rodata+0x368
    36e8:	52800060 	mov	w0, #0x3                   	// #3
    36ec:	94000000 	bl	dd24 <syslog>	36ec: R_AARCH64_CALL26	syslog
    36f0:	f9400bf4 	ldr	x20, [sp, #16]
    36f4:	aa1303e0 	mov	x0, x19
    36f8:	a8c24ffe 	ldp	x30, x19, [sp], #32
    36fc:	d65f03c0 	ret

0000000000003700 <nsh_newconsole>:
nsh_newconsole():
    3700:	a9bf4ffe 	stp	x30, x19, [sp, #-16]!
    3704:	12001c13 	and	w19, w0, #0xff
    3708:	d2807000 	mov	x0, #0x380                 	// #896
    370c:	94000000 	bl	b66c <zalloc>	370c: R_AARCH64_CALL26	zalloc
    3710:	b4000480 	cbz	x0, 37a0 <nsh_newconsole+0xa0>
    3714:	90000001 	adrp	x1, 0 <memcpy>	3714: R_AARCH64_ADR_PREL_PG_HI21	.text+0x37a8
    3718:	91000021 	add	x1, x1, #0x0	3718: R_AARCH64_ADD_ABS_LO12_NC	.text+0x37a8
    371c:	f9000001 	str	x1, [x0]
    3720:	90000001 	adrp	x1, 0 <memcpy>	3720: R_AARCH64_ADR_PREL_PG_HI21	.text+0x362c
    3724:	91000021 	add	x1, x1, #0x0	3724: R_AARCH64_ADD_ABS_LO12_NC	.text+0x362c
    3728:	90000002 	adrp	x2, 0 <memcpy>	3728: R_AARCH64_ADR_PREL_PG_HI21	.text+0x36ac
    372c:	91000042 	add	x2, x2, #0x0	372c: R_AARCH64_ADD_ABS_LO12_NC	.text+0x36ac
    3730:	a9010801 	stp	x1, x2, [x0, #16]
    3734:	90000001 	adrp	x1, 0 <memcpy>	3734: R_AARCH64_ADR_PREL_PG_HI21	.text+0x3658
    3738:	91000021 	add	x1, x1, #0x0	3738: R_AARCH64_ADD_ABS_LO12_NC	.text+0x3658
    373c:	90000002 	adrp	x2, 0 <memcpy>	373c: R_AARCH64_ADR_PREL_PG_HI21	.text+0x3624
    3740:	91000042 	add	x2, x2, #0x0	3740: R_AARCH64_ADD_ABS_LO12_NC	.text+0x3624
    3744:	a9020801 	stp	x1, x2, [x0, #32]
    3748:	90000001 	adrp	x1, 0 <memcpy>	3748: R_AARCH64_ADR_PREL_PG_HI21	.text+0x354c
    374c:	91000021 	add	x1, x1, #0x0	374c: R_AARCH64_ADD_ABS_LO12_NC	.text+0x354c
    3750:	90000002 	adrp	x2, 0 <memcpy>	3750: R_AARCH64_ADR_PREL_PG_HI21	.text+0x35b8
    3754:	91000042 	add	x2, x2, #0x0	3754: R_AARCH64_ADD_ABS_LO12_NC	.text+0x35b8
    3758:	a9030801 	stp	x1, x2, [x0, #48]
    375c:	52800041 	mov	w1, #0x2                   	// #2
    3760:	390b2001 	strb	w1, [x0, #712]
    3764:	90000001 	adrp	x1, 0 <memcpy>	3764: R_AARCH64_ADR_PREL_PG_HI21	.text+0x3484
    3768:	91000021 	add	x1, x1, #0x0	3768: R_AARCH64_ADD_ABS_LO12_NC	.text+0x3484
    376c:	90000002 	adrp	x2, 0 <memcpy>	376c: R_AARCH64_ADR_PREL_PG_HI21	.text+0x348c
    3770:	91000042 	add	x2, x2, #0x0	3770: R_AARCH64_ADD_ABS_LO12_NC	.text+0x348c
    3774:	a9040801 	stp	x1, x2, [x0, #64]
    3778:	90000001 	adrp	x1, 0 <memcpy>	3778: R_AARCH64_ADR_PREL_PG_HI21	.text+0x3514
    377c:	91000021 	add	x1, x1, #0x0	377c: R_AARCH64_ADD_ABS_LO12_NC	.text+0x3514
    3780:	90000002 	adrp	x2, 0 <memcpy>	3780: R_AARCH64_ADR_PREL_PG_HI21	.text+0x3644
    3784:	91000042 	add	x2, x2, #0x0	3784: R_AARCH64_ADD_ABS_LO12_NC	.text+0x3644
    3788:	a9050801 	stp	x1, x2, [x0, #80]
    378c:	d2c00021 	mov	x1, #0x100000000           	// #4294967296
    3790:	390c6013 	strb	w19, [x0, #792]
    3794:	f9019001 	str	x1, [x0, #800]
    3798:	52800041 	mov	w1, #0x2                   	// #2
    379c:	b9032801 	str	w1, [x0, #808]
    37a0:	a8c14ffe 	ldp	x30, x19, [sp], #16
    37a4:	d65f03c0 	ret
    37a8:	f81f0ffe 	str	x30, [sp, #-16]!
    37ac:	394c6000 	ldrb	w0, [x0, #792]
    37b0:	94000000 	bl	3700 <nsh_newconsole>	37b0: R_AARCH64_CALL26	nsh_newconsole
    37b4:	f84107fe 	ldr	x30, [sp], #16
    37b8:	d65f03c0 	ret
    37bc:	910a8002 	add	x2, x0, #0x2a0
    37c0:	394b8c00 	ldrb	w0, [x0, #739]
    37c4:	12001c21 	and	w1, w1, #0xff
    37c8:	91001000 	add	x0, x0, #0x4
    37cc:	8b001040 	add	x0, x2, x0, lsl #4
    37d0:	f9400403 	ldr	x3, [x0, #8]
    37d4:	53061c63 	ubfx	w3, w3, #6, #2
    37d8:	7100047f 	cmp	w3, #0x1
    37dc:	54000101 	b.ne	37fc <nsh_newconsole+0xfc>  // b.any
    37e0:	52000021 	eor	w1, w1, #0x1
    37e4:	39000c5f 	strb	wzr, [x2, #3]
    37e8:	39402002 	ldrb	w2, [x0, #8]
    37ec:	33000022 	bfxil	w2, w1, #0, #1
    37f0:	39002002 	strb	w2, [x0, #8]
    37f4:	52800000 	mov	w0, #0x0                   	// #0
    37f8:	d65f03c0 	ret
    37fc:	7100087f 	cmp	w3, #0x2
    3800:	54000061 	b.ne	380c <nsh_newconsole+0x10c>  // b.any
    3804:	39000c5f 	strb	wzr, [x2, #3]
    3808:	17fffff8 	b	37e8 <nsh_newconsole+0xe8>
    380c:	39411040 	ldrb	w0, [x2, #68]
    3810:	8b000040 	add	x0, x2, x0
    3814:	91010000 	add	x0, x0, #0x40
    3818:	79400803 	ldrh	w3, [x0, #4]
    381c:	d34e3c63 	ubfx	x3, x3, #14, #2
    3820:	7100047f 	cmp	w3, #0x1
    3824:	54000121 	b.ne	3848 <nsh_newconsole+0x148>  // b.any
    3828:	39000c5f 	strb	wzr, [x2, #3]
    382c:	79400802 	ldrh	w2, [x0, #4]
    3830:	d34a2842 	ubfx	x2, x2, #10, #1
    3834:	4a020021 	eor	w1, w1, w2
    3838:	39401402 	ldrb	w2, [x0, #5]
    383c:	33000022 	bfxil	w2, w1, #0, #1
    3840:	39001402 	strb	w2, [x0, #5]
    3844:	17ffffec 	b	37f4 <nsh_newconsole+0xf4>
    3848:	4b0103e0 	neg	w0, w1
    384c:	39000c41 	strb	w1, [x2, #3]
    3850:	17ffffea 	b	37f8 <nsh_newconsole+0xf8>
    3854:	52800002 	mov	w2, #0x0                   	// #0
    3858:	39400003 	ldrb	w3, [x0]
    385c:	7101707f 	cmp	w3, #0x5c
    3860:	54000041 	b.ne	3868 <nsh_newconsole+0x168>  // b.any
    3864:	34000102 	cbz	w2, 3884 <nsh_newconsole+0x184>
    3868:	6b01007f 	cmp	w3, w1
    386c:	54000061 	b.ne	3878 <nsh_newconsole+0x178>  // b.any
    3870:	35000062 	cbnz	w2, 387c <nsh_newconsole+0x17c>
    3874:	d65f03c0 	ret
    3878:	340000c3 	cbz	w3, 3890 <nsh_newconsole+0x190>
    387c:	52800002 	mov	w2, #0x0                   	// #0
    3880:	14000002 	b	3888 <nsh_newconsole+0x188>
    3884:	52800022 	mov	w2, #0x1                   	// #1
    3888:	91000400 	add	x0, x0, #0x1
    388c:	17fffff3 	b	3858 <nsh_newconsole+0x158>
    3890:	d2800000 	mov	x0, #0x0                   	// #0
    3894:	17fffff8 	b	3874 <nsh_newconsole+0x174>
    3898:	52800001 	mov	w1, #0x0                   	// #0
    389c:	39400002 	ldrb	w2, [x0]
    38a0:	35000042 	cbnz	w2, 38a8 <nsh_newconsole+0x1a8>
    38a4:	d65f03c0 	ret
    38a8:	91000403 	add	x3, x0, #0x1
    38ac:	7101705f 	cmp	w2, #0x5c
    38b0:	54000141 	b.ne	38d8 <nsh_newconsole+0x1d8>  // b.any
    38b4:	35000121 	cbnz	w1, 38d8 <nsh_newconsole+0x1d8>
    38b8:	aa0003e1 	mov	x1, x0
    38bc:	39400422 	ldrb	w2, [x1, #1]
    38c0:	38001422 	strb	w2, [x1], #1
    38c4:	35ffffc2 	cbnz	w2, 38bc <nsh_newconsole+0x1bc>
    38c8:	aa0003e3 	mov	x3, x0
    38cc:	52800021 	mov	w1, #0x1                   	// #1
    38d0:	aa0303e0 	mov	x0, x3
    38d4:	17fffff2 	b	389c <nsh_newconsole+0x19c>
    38d8:	52800001 	mov	w1, #0x0                   	// #0
    38dc:	17fffffd 	b	38d0 <nsh_newconsole+0x1d0>
    38e0:	910a8001 	add	x1, x0, #0x2a0
    38e4:	394b8c00 	ldrb	w0, [x0, #739]
    38e8:	8b001020 	add	x0, x1, x0, lsl #4
    38ec:	f9402400 	ldr	x0, [x0, #72]
    38f0:	53061c02 	ubfx	w2, w0, #6, #2
    38f4:	71000c5f 	cmp	w2, #0x3
    38f8:	54000041 	b.ne	3900 <nsh_newconsole+0x200>  // b.any
    38fc:	36000260 	tbz	w0, #0, 3948 <nsh_newconsole+0x248>
    3900:	39411020 	ldrb	w0, [x1, #68]
    3904:	8b000021 	add	x1, x1, x0
    3908:	79408820 	ldrh	w0, [x1, #68]
    390c:	374801e0 	tbnz	w0, #9, 3948 <nsh_newconsole+0x248>
    3910:	d34e3c01 	ubfx	x1, x0, #14, #2
    3914:	7100083f 	cmp	w1, #0x2
    3918:	540000c0 	b.eq	3930 <nsh_newconsole+0x230>  // b.none
    391c:	71000c3f 	cmp	w1, #0x3
    3920:	54000100 	b.eq	3940 <nsh_newconsole+0x240>  // b.none
    3924:	52800020 	mov	w0, #0x1                   	// #1
    3928:	12000000 	and	w0, w0, #0x1
    392c:	d65f03c0 	ret
    3930:	d3482000 	ubfx	x0, x0, #8, #1
    3934:	52000000 	eor	w0, w0, #0x1
    3938:	12001c00 	and	w0, w0, #0xff
    393c:	17fffffb 	b	3928 <nsh_newconsole+0x228>
    3940:	d3482000 	ubfx	x0, x0, #8, #1
    3944:	17fffff9 	b	3928 <nsh_newconsole+0x228>
    3948:	52800000 	mov	w0, #0x0                   	// #0
    394c:	17fffff7 	b	3928 <nsh_newconsole+0x228>
    3950:	a9bc4ffe 	stp	x30, x19, [sp, #-64]!
    3954:	a90157f4 	stp	x20, x21, [sp, #16]
    3958:	aa0103f5 	mov	x21, x1
    395c:	a9025ff6 	stp	x22, x23, [sp, #32]
    3960:	aa0203f7 	mov	x23, x2
    3964:	f9001bf8 	str	x24, [sp, #48]
    3968:	aa0003f8 	mov	x24, x0
    396c:	b4000381 	cbz	x1, 39dc <nsh_newconsole+0x2dc>
    3970:	aa0103e0 	mov	x0, x1
    3974:	94000000 	bl	940 <strlen>	3974: R_AARCH64_CALL26	strlen
    3978:	2a0003f6 	mov	w22, w0
    397c:	aa1703e0 	mov	x0, x23
    3980:	94000000 	bl	940 <strlen>	3980: R_AARCH64_CALL26	strlen
    3984:	0b0002d3 	add	w19, w22, w0
    3988:	aa1503e0 	mov	x0, x21
    398c:	11000673 	add	w19, w19, #0x1
    3990:	93407e73 	sxtw	x19, w19
    3994:	aa1303e1 	mov	x1, x19
    3998:	94000000 	bl	b610 <realloc>	3998: R_AARCH64_CALL26	realloc
    399c:	aa0003f4 	mov	x20, x0
    39a0:	b5000220 	cbnz	x0, 39e4 <nsh_newconsole+0x2e4>
    39a4:	f9401b03 	ldr	x3, [x24, #48]
    39a8:	90000002 	adrp	x2, ebb8 <_srodata>	39a8: R_AARCH64_ADR_PREL_PG_HI21	.rodata+0x3b4
    39ac:	90000001 	adrp	x1, f025 <g_fmtcmdoutofmemory>	39ac: R_AARCH64_ADR_PREL_PG_HI21	g_fmtcmdoutofmemory
    39b0:	91000042 	add	x2, x2, #0x0	39b0: R_AARCH64_ADD_ABS_LO12_NC	.rodata+0x3b4
    39b4:	91000021 	add	x1, x1, #0x0	39b4: R_AARCH64_ADD_ABS_LO12_NC	g_fmtcmdoutofmemory
    39b8:	aa1803e0 	mov	x0, x24
    39bc:	aa1503f4 	mov	x20, x21
    39c0:	d63f0060 	blr	x3
    39c4:	f9401bf8 	ldr	x24, [sp, #48]
    39c8:	aa1403e0 	mov	x0, x20
    39cc:	a94157f4 	ldp	x20, x21, [sp, #16]
    39d0:	a9425ff6 	ldp	x22, x23, [sp, #32]
    39d4:	a8c44ffe 	ldp	x30, x19, [sp], #64
    39d8:	d65f03c0 	ret
    39dc:	52800016 	mov	w22, #0x0                   	// #0
    39e0:	17ffffe7 	b	397c <nsh_newconsole+0x27c>
    39e4:	3836c81f 	strb	wzr, [x0, w22, sxtw]
    39e8:	aa1303e2 	mov	x2, x19
    39ec:	aa1703e1 	mov	x1, x23
    39f0:	94000000 	bl	dbf4 <strlcat>	39f0: R_AARCH64_CALL26	strlcat
    39f4:	17fffff4 	b	39c4 <nsh_newconsole+0x2c4>
    39f8:	f100001f 	cmp	x0, #0x0
    39fc:	fa401824 	ccmp	x1, #0x0, #0x4, ne	// ne = any
    3a00:	54000100 	b.eq	3a20 <nsh_newconsole+0x320>  // b.none
    3a04:	b9400002 	ldr	w2, [x0]
    3a08:	71003c5f 	cmp	w2, #0xf
    3a0c:	540000ac 	b.gt	3a20 <nsh_newconsole+0x320>
    3a10:	8b22cc03 	add	x3, x0, w2, sxtw #3
    3a14:	11000442 	add	w2, w2, #0x1
    3a18:	f9000461 	str	x1, [x3, #8]
    3a1c:	b9000002 	str	w2, [x0]
    3a20:	d65f03c0 	ret
    3a24:	a9b94ffe 	stp	x30, x19, [sp, #-112]!
    3a28:	aa0003f3 	mov	x19, x0
    3a2c:	a90157f4 	stp	x20, x21, [sp, #16]
    3a30:	aa0303f5 	mov	x21, x3
    3a34:	a9025ff6 	stp	x22, x23, [sp, #32]
    3a38:	aa0203f7 	mov	x23, x2
    3a3c:	a90367f8 	stp	x24, x25, [sp, #48]
    3a40:	2a0103f8 	mov	w24, w1
    3a44:	a9046ffa 	stp	x26, x27, [sp, #64]
    3a48:	f9400041 	ldr	x1, [x2]
    3a4c:	94000000 	bl	6fb8 <nsh_fileapp>	3a4c: R_AARCH64_CALL26	nsh_fileapp
    3a50:	7100001f 	cmp	w0, #0x0
    3a54:	5400012b 	b.lt	3a78 <nsh_newconsole+0x378>  // b.tstop
    3a58:	a94157f4 	ldp	x20, x21, [sp, #16]
    3a5c:	aa1303e0 	mov	x0, x19
    3a60:	a9425ff6 	ldp	x22, x23, [sp, #32]
    3a64:	1a9f07e1 	cset	w1, ne	// ne = any
    3a68:	a94367f8 	ldp	x24, x25, [sp, #48]
    3a6c:	a9446ffa 	ldp	x26, x27, [sp, #64]
    3a70:	a8c74ffe 	ldp	x30, x19, [sp], #112
    3a74:	14000000 	b	0 <memcpy>	3a74: R_AARCH64_JUMP26	.text+0x37bc
    3a78:	394a8260 	ldrb	w0, [x19, #672]
    3a7c:	36000840 	tbz	w0, #0, 3b84 <nsh_newconsole+0x484>
    3a80:	f94002e0 	ldr	x0, [x23]
    3a84:	90000016 	adrp	x22, ebb8 <_srodata>	3a84: R_AARCH64_ADR_PREL_PG_HI21	.rodata+0x3b6
    3a88:	910002d6 	add	x22, x22, #0x0	3a88: R_AARCH64_ADD_ABS_LO12_NC	.rodata+0x3b6
    3a8c:	aa1603e1 	mov	x1, x22
    3a90:	94000000 	bl	680 <strcmp>	3a90: R_AARCH64_CALL26	strcmp
    3a94:	350000e0 	cbnz	w0, 3ab0 <nsh_newconsole+0x3b0>
    3a98:	90000002 	adrp	x2, ebb8 <_srodata>	3a98: R_AARCH64_ADR_PREL_PG_HI21	.rodata+0x3b9
    3a9c:	90000000 	adrp	x0, ebb8 <_srodata>	3a9c: R_AARCH64_ADR_PREL_PG_HI21	.rodata+0x3da
    3aa0:	91000042 	add	x2, x2, #0x0	3aa0: R_AARCH64_ADD_ABS_LO12_NC	.rodata+0x3b9
    3aa4:	91000000 	add	x0, x0, #0x0	3aa4: R_AARCH64_ADD_ABS_LO12_NC	.rodata+0x3da
    3aa8:	52804c81 	mov	w1, #0x264                 	// #612
    3aac:	94000000 	bl	2444 <__assert>	3aac: R_AARCH64_CALL26	__assert
    3ab0:	d2800a00 	mov	x0, #0x50                  	// #80
    3ab4:	94000000 	bl	ccfc <lib_get_tempbuffer>	3ab4: R_AARCH64_CALL26	lib_get_tempbuffer
    3ab8:	aa0003f4 	mov	x20, x0
    3abc:	b5000180 	cbnz	x0, 3aec <nsh_newconsole+0x3ec>
    3ac0:	f9401a63 	ldr	x3, [x19, #48]
    3ac4:	aa1603e2 	mov	x2, x22
    3ac8:	90000001 	adrp	x1, f025 <g_fmtcmdoutofmemory>	3ac8: R_AARCH64_ADR_PREL_PG_HI21	g_fmtcmdoutofmemory
    3acc:	91000021 	add	x1, x1, #0x0	3acc: R_AARCH64_ADD_ABS_LO12_NC	g_fmtcmdoutofmemory
    3ad0:	aa1303e0 	mov	x0, x19
    3ad4:	d63f0060 	blr	x3
    3ad8:	94000000 	bl	2454 <__errno>	3ad8: R_AARCH64_CALL26	__errno
    3adc:	b9400015 	ldr	w21, [x0]
    3ae0:	4b1503f5 	neg	w21, w21
    3ae4:	710002bf 	cmp	w21, #0x0
    3ae8:	17ffffdc 	b	3a58 <nsh_newconsole+0x358>
    3aec:	9000001a 	adrp	x26, ebb8 <_srodata>	3aec: R_AARCH64_ADR_PREL_PG_HI21	.rodata+0x3e6
    3af0:	5100071b 	sub	w27, w24, #0x1
    3af4:	9100035a 	add	x26, x26, #0x0	3af4: R_AARCH64_ADD_ABS_LO12_NC	.rodata+0x3e6
    3af8:	d2800019 	mov	x25, #0x0                   	// #0
    3afc:	3900001f 	strb	wzr, [x0]
    3b00:	6b18033f 	cmp	w25, w24
    3b04:	540002ab 	b.lt	3b58 <nsh_newconsole+0x458>  // b.tstop
    3b08:	910143e2 	add	x2, sp, #0x50
    3b0c:	f9002bf6 	str	x22, [sp, #80]
    3b10:	aa1503e3 	mov	x3, x21
    3b14:	90000000 	adrp	x0, ebb8 <_srodata>	3b14: R_AARCH64_ADR_PREL_PG_HI21	.rodata+0x3e8
    3b18:	91000000 	add	x0, x0, #0x0	3b18: R_AARCH64_ADD_ABS_LO12_NC	.rodata+0x3e8
    3b1c:	52800081 	mov	w1, #0x4                   	// #4
    3b20:	a900d040 	stp	x0, x20, [x2, #8]
    3b24:	aa1303e0 	mov	x0, x19
    3b28:	f9000c5f 	str	xzr, [x2, #24]
    3b2c:	97ffffbe 	bl	3a24 <nsh_newconsole+0x324>
    3b30:	2a0003f3 	mov	w19, w0
    3b34:	aa1403e0 	mov	x0, x20
    3b38:	94000000 	bl	cd8c <lib_put_tempbuffer>	3b38: R_AARCH64_CALL26	lib_put_tempbuffer
    3b3c:	2a1303e0 	mov	w0, w19
    3b40:	a94157f4 	ldp	x20, x21, [sp, #16]
    3b44:	a9425ff6 	ldp	x22, x23, [sp, #32]
    3b48:	a94367f8 	ldp	x24, x25, [sp, #48]
    3b4c:	a9446ffa 	ldp	x26, x27, [sp, #64]
    3b50:	a8c74ffe 	ldp	x30, x19, [sp], #112
    3b54:	d65f03c0 	ret
    3b58:	f8797ae1 	ldr	x1, [x23, x25, lsl #3]
    3b5c:	aa1403e0 	mov	x0, x20
    3b60:	d2800a02 	mov	x2, #0x50                  	// #80
    3b64:	94000000 	bl	dbf4 <strlcat>	3b64: R_AARCH64_CALL26	strlcat
    3b68:	6b19037f 	cmp	w27, w25
    3b6c:	5400008d 	b.le	3b7c <nsh_newconsole+0x47c>
    3b70:	aa1a03e1 	mov	x1, x26
    3b74:	aa1403e0 	mov	x0, x20
    3b78:	94000000 	bl	dcac <strcat>	3b78: R_AARCH64_CALL26	strcat
    3b7c:	91000739 	add	x25, x25, #0x1
    3b80:	17ffffe0 	b	3b00 <nsh_newconsole+0x400>
    3b84:	394a8660 	ldrb	w0, [x19, #673]
    3b88:	36000640 	tbz	w0, #0, 3c50 <nsh_newconsole+0x550>
    3b8c:	f9400ea0 	ldr	x0, [x21, #24]
    3b90:	b4000280 	cbz	x0, 3be0 <nsh_newconsole+0x4e0>
    3b94:	b9400ea1 	ldr	w1, [x21, #12]
    3b98:	528036c2 	mov	w2, #0x1b6                 	// #438
    3b9c:	94000000 	bl	e9c0 <open>	3b9c: R_AARCH64_CALL26	open
    3ba0:	2a0003f4 	mov	w20, w0
    3ba4:	36f80200 	tbz	w0, #31, 3be4 <nsh_newconsole+0x4e4>
    3ba8:	f94002f5 	ldr	x21, [x23]
    3bac:	f9401a74 	ldr	x20, [x19, #48]
    3bb0:	94000000 	bl	2454 <__errno>	3bb0: R_AARCH64_CALL26	__errno
    3bb4:	b9400004 	ldr	w4, [x0]
    3bb8:	aa1503e2 	mov	x2, x21
    3bbc:	90000003 	adrp	x3, ebb8 <_srodata>	3bbc: R_AARCH64_ADR_PREL_PG_HI21	.rodata+0x3eb
    3bc0:	90000001 	adrp	x1, f03d <g_fmtcmdfailed>	3bc0: R_AARCH64_ADR_PREL_PG_HI21	g_fmtcmdfailed
    3bc4:	91000063 	add	x3, x3, #0x0	3bc4: R_AARCH64_ADD_ABS_LO12_NC	.rodata+0x3eb
    3bc8:	91000021 	add	x1, x1, #0x0	3bc8: R_AARCH64_ADD_ABS_LO12_NC	g_fmtcmdfailed
    3bcc:	aa1303e0 	mov	x0, x19
    3bd0:	d63f0280 	blr	x20
    3bd4:	94000000 	bl	2454 <__errno>	3bd4: R_AARCH64_CALL26	__errno
    3bd8:	b9400015 	ldr	w21, [x0]
    3bdc:	17ffffc2 	b	3ae4 <nsh_newconsole+0x3e4>
    3be0:	b94006b4 	ldr	w20, [x21, #4]
    3be4:	394a8a60 	ldrb	w0, [x19, #674]
    3be8:	36000720 	tbz	w0, #0, 3ccc <nsh_newconsole+0x5cc>
    3bec:	f9400aa0 	ldr	x0, [x21, #16]
    3bf0:	b4000340 	cbz	x0, 3c58 <nsh_newconsole+0x558>
    3bf4:	b9400aa1 	ldr	w1, [x21, #8]
    3bf8:	52800002 	mov	w2, #0x0                   	// #0
    3bfc:	94000000 	bl	e9c0 <open>	3bfc: R_AARCH64_CALL26	open
    3c00:	2a0003f6 	mov	w22, w0
    3c04:	36f802c0 	tbz	w0, #31, 3c5c <nsh_newconsole+0x55c>
    3c08:	f94002f7 	ldr	x23, [x23]
    3c0c:	f9401a75 	ldr	x21, [x19, #48]
    3c10:	94000000 	bl	2454 <__errno>	3c10: R_AARCH64_CALL26	__errno
    3c14:	b9400004 	ldr	w4, [x0]
    3c18:	aa1703e2 	mov	x2, x23
    3c1c:	90000003 	adrp	x3, ebb8 <_srodata>	3c1c: R_AARCH64_ADR_PREL_PG_HI21	.rodata+0x3eb
    3c20:	90000001 	adrp	x1, f03d <g_fmtcmdfailed>	3c20: R_AARCH64_ADR_PREL_PG_HI21	g_fmtcmdfailed
    3c24:	91000063 	add	x3, x3, #0x0	3c24: R_AARCH64_ADD_ABS_LO12_NC	.rodata+0x3eb
    3c28:	91000021 	add	x1, x1, #0x0	3c28: R_AARCH64_ADD_ABS_LO12_NC	g_fmtcmdfailed
    3c2c:	aa1303e0 	mov	x0, x19
    3c30:	d63f02a0 	blr	x21
    3c34:	94000000 	bl	2454 <__errno>	3c34: R_AARCH64_CALL26	__errno
    3c38:	b9400015 	ldr	w21, [x0]
    3c3c:	7100069f 	cmp	w20, #0x1
    3c40:	54fff52d 	b.le	3ae4 <nsh_newconsole+0x3e4>
    3c44:	2a1403e0 	mov	w0, w20
    3c48:	94000000 	bl	e814 <close>	3c48: R_AARCH64_CALL26	close
    3c4c:	1400001b 	b	3cb8 <nsh_newconsole+0x5b8>
    3c50:	52800034 	mov	w20, #0x1                   	// #1
    3c54:	17ffffe4 	b	3be4 <nsh_newconsole+0x4e4>
    3c58:	b94002b6 	ldr	w22, [x21]
    3c5c:	f9415260 	ldr	x0, [x19, #672]
    3c60:	f2783c1f 	tst	x0, #0xffff00
    3c64:	540000e0 	b.eq	3c80 <nsh_newconsole+0x580>  // b.none
    3c68:	f9402664 	ldr	x4, [x19, #72]
    3c6c:	910143e3 	add	x3, sp, #0x50
    3c70:	2a1403e2 	mov	w2, w20
    3c74:	2a1603e1 	mov	w1, w22
    3c78:	aa1303e0 	mov	x0, x19
    3c7c:	d63f0080 	blr	x4
    3c80:	aa1703e2 	mov	x2, x23
    3c84:	2a1803e1 	mov	w1, w24
    3c88:	aa1303e0 	mov	x0, x19
    3c8c:	94000000 	bl	5cb0 <nsh_command>	3c8c: R_AARCH64_CALL26	nsh_command
    3c90:	2a0003f5 	mov	w21, w0
    3c94:	f9415260 	ldr	x0, [x19, #672]
    3c98:	f2783c1f 	tst	x0, #0xffff00
    3c9c:	540000a0 	b.eq	3cb0 <nsh_newconsole+0x5b0>  // b.none
    3ca0:	f9402a62 	ldr	x2, [x19, #80]
    3ca4:	910143e1 	add	x1, sp, #0x50
    3ca8:	aa1303e0 	mov	x0, x19
    3cac:	d63f0040 	blr	x2
    3cb0:	7100069f 	cmp	w20, #0x1
    3cb4:	54fffc8c 	b.gt	3c44 <nsh_newconsole+0x544>
    3cb8:	710002df 	cmp	w22, #0x0
    3cbc:	54fff14d 	b.le	3ae4 <nsh_newconsole+0x3e4>
    3cc0:	2a1603e0 	mov	w0, w22
    3cc4:	94000000 	bl	e814 <close>	3cc4: R_AARCH64_CALL26	close
    3cc8:	17ffff87 	b	3ae4 <nsh_newconsole+0x3e4>
    3ccc:	52800016 	mov	w22, #0x0                   	// #0
    3cd0:	17ffffe3 	b	3c5c <nsh_newconsole+0x55c>
    3cd4:	a9b84ffe 	stp	x30, x19, [sp, #-128]!
    3cd8:	a90157f4 	stp	x20, x21, [sp, #16]
    3cdc:	aa0003f4 	mov	x20, x0
    3ce0:	aa0103f5 	mov	x21, x1
    3ce4:	a9025ff6 	stp	x22, x23, [sp, #32]
    3ce8:	aa0303f6 	mov	x22, x3
    3cec:	a90367f8 	stp	x24, x25, [sp, #48]
    3cf0:	aa0403f8 	mov	x24, x4
    3cf4:	a9046ffa 	stp	x26, x27, [sp, #64]
    3cf8:	9000001a 	adrp	x26, ebb8 <_srodata>	3cf8: R_AARCH64_ADR_PREL_PG_HI21	.rodata+0x5f7
    3cfc:	9100035a 	add	x26, x26, #0x0	3cfc: R_AARCH64_ADD_ABS_LO12_NC	.rodata+0x5f7
    3d00:	f9002bfc 	str	x28, [sp, #80]
    3d04:	f90037e2 	str	x2, [sp, #104]
    3d08:	f9400033 	ldr	x19, [x1]
    3d0c:	3940027b 	ldrb	w27, [x19]
    3d10:	3400071b 	cbz	w27, 3df0 <nsh_newconsole+0x6f0>
    3d14:	2a1b03e1 	mov	w1, w27
    3d18:	aa1a03e0 	mov	x0, x26
    3d1c:	94000000 	bl	59c <strchr>	3d1c: R_AARCH64_CALL26	strchr
    3d20:	aa0003f7 	mov	x23, x0
    3d24:	b5000280 	cbnz	x0, 3d74 <nsh_newconsole+0x674>
    3d28:	7100fb7f 	cmp	w27, #0x3e
    3d2c:	540000e1 	b.ne	3d48 <nsh_newconsole+0x648>  // b.any
    3d30:	aa1303e1 	mov	x1, x19
    3d34:	91000a60 	add	x0, x19, #0x2
    3d38:	38401c22 	ldrb	w2, [x1, #1]!
    3d3c:	7100f85f 	cmp	w2, #0x3e
    3d40:	9a810000 	csel	x0, x0, x1, eq	// eq = none
    3d44:	f90002a0 	str	x0, [x21]
    3d48:	39400260 	ldrb	w0, [x19]
    3d4c:	7100f01f 	cmp	w0, #0x3c
    3d50:	54000161 	b.ne	3d7c <nsh_newconsole+0x67c>  // b.any
    3d54:	91000673 	add	x19, x19, #0x1
    3d58:	f90002b3 	str	x19, [x21]
    3d5c:	90000013 	adrp	x19, ebb8 <_srodata>	3d5c: R_AARCH64_ADR_PREL_PG_HI21	.rodata+0x5e5
    3d60:	91000273 	add	x19, x19, #0x0	3d60: R_AARCH64_ADD_ABS_LO12_NC	.rodata+0x5e5
    3d64:	f94037e0 	ldr	x0, [sp, #104]
    3d68:	aa1703e1 	mov	x1, x23
    3d6c:	94000000 	bl	0 <memcpy>	3d6c: R_AARCH64_CALL26	.text+0x39f8
    3d70:	14000021 	b	3df4 <nsh_newconsole+0x6f4>
    3d74:	91000673 	add	x19, x19, #0x1
    3d78:	17ffffe5 	b	3d0c <nsh_newconsole+0x60c>
    3d7c:	71008c1f 	cmp	w0, #0x23
    3d80:	54001181 	b.ne	3fb0 <nsh_newconsole+0x8b0>  // b.any
    3d84:	f90002b3 	str	x19, [x21]
    3d88:	d2800013 	mov	x19, #0x0                   	// #0
    3d8c:	17fffff6 	b	3d64 <nsh_newconsole+0x664>
    3d90:	b40000a3 	cbz	x3, 3da4 <nsh_newconsole+0x6a4>
    3d94:	39400060 	ldrb	w0, [x3]
    3d98:	7101701f 	cmp	w0, #0x5c
    3d9c:	54000041 	b.ne	3da4 <nsh_newconsole+0x6a4>  // b.any
    3da0:	340006c2 	cbz	w2, 3e78 <nsh_newconsole+0x778>
    3da4:	710170df 	cmp	w6, #0x5c
    3da8:	54000640 	b.eq	3e70 <nsh_newconsole+0x770>  // b.none
    3dac:	2a0603e1 	mov	w1, w6
    3db0:	aa0703e0 	mov	x0, x7
    3db4:	91000485 	add	x5, x4, #0x1
    3db8:	94000000 	bl	0 <memcpy>	3db8: R_AARCH64_CALL26	.text+0x3854
    3dbc:	b4000520 	cbz	x0, 3e60 <nsh_newconsole+0x760>
    3dc0:	aa0503e0 	mov	x0, x5
    3dc4:	94000000 	bl	0 <memcpy>	3dc4: R_AARCH64_CALL26	.text+0x3854
    3dc8:	b5000260 	cbnz	x0, 3e14 <nsh_newconsole+0x714>
    3dcc:	f9401a84 	ldr	x4, [x20, #48]
    3dd0:	9101e3e3 	add	x3, sp, #0x78
    3dd4:	90000001 	adrp	x1, f11e <g_fmtnomatching>	3dd4: R_AARCH64_ADR_PREL_PG_HI21	g_fmtnomatching
    3dd8:	aa0303e2 	mov	x2, x3
    3ddc:	91000021 	add	x1, x1, #0x0	3ddc: R_AARCH64_ADD_ABS_LO12_NC	g_fmtnomatching
    3de0:	aa1403e0 	mov	x0, x20
    3de4:	3901e3e6 	strb	w6, [sp, #120]
    3de8:	3901e7ff 	strb	wzr, [sp, #121]
    3dec:	d63f0080 	blr	x4
    3df0:	d2800013 	mov	x19, #0x0                   	// #0
    3df4:	f9402bfc 	ldr	x28, [sp, #80]
    3df8:	aa1303e0 	mov	x0, x19
    3dfc:	a94157f4 	ldp	x20, x21, [sp, #16]
    3e00:	a9425ff6 	ldp	x22, x23, [sp, #32]
    3e04:	a94367f8 	ldp	x24, x25, [sp, #48]
    3e08:	a9446ffa 	ldp	x26, x27, [sp, #64]
    3e0c:	a8c84ffe 	ldp	x30, x19, [sp], #128
    3e10:	d65f03c0 	ret
    3e14:	71009cdf 	cmp	w6, #0x27
    3e18:	540001c0 	b.eq	3e50 <nsh_newconsole+0x750>  // b.none
    3e1c:	710088df 	cmp	w6, #0x22
    3e20:	540001c0 	b.eq	3e58 <nsh_newconsole+0x758>  // b.none
    3e24:	710180df 	cmp	w6, #0x60
    3e28:	54000c00 	b.eq	3fa8 <nsh_newconsole+0x8a8>  // b.none
    3e2c:	91000402 	add	x2, x0, #0x1
    3e30:	eb05001f 	cmp	x0, x5
    3e34:	9a850045 	csel	x5, x2, x5, eq	// eq = none
    3e38:	384014a1 	ldrb	w1, [x5], #1
    3e3c:	38001481 	strb	w1, [x4], #1
    3e40:	35ffff81 	cbnz	w1, 3e30 <nsh_newconsole+0x730>
    3e44:	d1000804 	sub	x4, x0, #0x2
    3e48:	52800021 	mov	w1, #0x1                   	// #1
    3e4c:	14000009 	b	3e70 <nsh_newconsole+0x770>
    3e50:	5280003c 	mov	w28, #0x1                   	// #1
    3e54:	17fffff6 	b	3e2c <nsh_newconsole+0x72c>
    3e58:	d2800018 	mov	x24, #0x0                   	// #0
    3e5c:	17fffff4 	b	3e2c <nsh_newconsole+0x72c>
    3e60:	aa1a03e0 	mov	x0, x26
    3e64:	94000000 	bl	0 <memcpy>	3e64: R_AARCH64_CALL26	.text+0x3854
    3e68:	b5000b40 	cbnz	x0, 3fd0 <nsh_newconsole+0x8d0>
    3e6c:	52800001 	mov	w1, #0x0                   	// #0
    3e70:	52800002 	mov	w2, #0x0                   	// #0
    3e74:	14000002 	b	3e7c <nsh_newconsole+0x77c>
    3e78:	52800022 	mov	w2, #0x1                   	// #1
    3e7c:	aa0403e3 	mov	x3, x4
    3e80:	91000484 	add	x4, x4, #0x1
    3e84:	39400086 	ldrb	w6, [x4]
    3e88:	35fff846 	cbnz	w6, 3d90 <nsh_newconsole+0x690>
    3e8c:	f10002df 	cmp	x22, #0x0
    3e90:	52000021 	eor	w1, w1, #0x1
    3e94:	1a9f07e0 	cset	w0, ne	// ne = any
    3e98:	f90002a4 	str	x4, [x21]
    3e9c:	6a01001f 	tst	w0, w1
    3ea0:	54000560 	b.eq	3f4c <nsh_newconsole+0x84c>  // b.none
    3ea4:	aa1303e1 	mov	x1, x19
    3ea8:	aa1403e0 	mov	x0, x20
    3eac:	94000000 	bl	5400 <nsh_aliasfind>	3eac: R_AARCH64_CALL26	nsh_aliasfind
    3eb0:	aa0003fb 	mov	x27, x0
    3eb4:	b40004c0 	cbz	x0, 3f4c <nsh_newconsole+0x84c>
    3eb8:	b94002c0 	ldr	w0, [x22]
    3ebc:	f9400b73 	ldr	x19, [x27, #16]
    3ec0:	7100001f 	cmp	w0, #0x0
    3ec4:	5400010c 	b.gt	3ee4 <nsh_newconsole+0x7e4>
    3ec8:	39406361 	ldrb	w1, [x27, #24]
    3ecc:	32000021 	orr	w1, w1, #0x1
    3ed0:	39006361 	strb	w1, [x27, #24]
    3ed4:	8b20cec1 	add	x1, x22, w0, sxtw #3
    3ed8:	11000400 	add	w0, w0, #0x1
    3edc:	f900043b 	str	x27, [x1, #8]
    3ee0:	b90002c0 	str	w0, [x22]
    3ee4:	aa1a03e1 	mov	x1, x26
    3ee8:	aa1303e0 	mov	x0, x19
    3eec:	94000000 	bl	dab8 <strcspn>	3eec: R_AARCH64_CALL26	strcspn
    3ef0:	aa0003f6 	mov	x22, x0
    3ef4:	38606a60 	ldrb	w0, [x19, x0]
    3ef8:	340002a0 	cbz	w0, 3f4c <nsh_newconsole+0x84c>
    3efc:	f9400b60 	ldr	x0, [x27, #16]
    3f00:	94000000 	bl	daf8 <strdup>	3f00: R_AARCH64_CALL26	strdup
    3f04:	aa0003e1 	mov	x1, x0
    3f08:	b4000220 	cbz	x0, 3f4c <nsh_newconsole+0x84c>
    3f0c:	aa1403e0 	mov	x0, x20
    3f10:	90000002 	adrp	x2, ebb8 <_srodata>	3f10: R_AARCH64_ADR_PREL_PG_HI21	.rodata+0x3e6
    3f14:	91000042 	add	x2, x2, #0x0	3f14: R_AARCH64_ADD_ABS_LO12_NC	.rodata+0x3e6
    3f18:	94000000 	bl	0 <memcpy>	3f18: R_AARCH64_CALL26	.text+0x3950
    3f1c:	f94002a2 	ldr	x2, [x21]
    3f20:	aa0003e1 	mov	x1, x0
    3f24:	aa1403e0 	mov	x0, x20
    3f28:	94000000 	bl	0 <memcpy>	3f28: R_AARCH64_CALL26	.text+0x3950
    3f2c:	aa0003f3 	mov	x19, x0
    3f30:	aa0003e1 	mov	x1, x0
    3f34:	f94037e0 	ldr	x0, [sp, #104]
    3f38:	94000000 	bl	0 <memcpy>	3f38: R_AARCH64_CALL26	.text+0x39f8
    3f3c:	8b160260 	add	x0, x19, x22
    3f40:	38366a7f 	strb	wzr, [x19, x22]
    3f44:	91000400 	add	x0, x0, #0x1
    3f48:	f90002a0 	str	x0, [x21]
    3f4c:	35fff0dc 	cbnz	w28, 3d64 <nsh_newconsole+0x664>
    3f50:	9000001b 	adrp	x27, ebb8 <_srodata>	3f50: R_AARCH64_ADR_PREL_PG_HI21	.rodata+0x5ea
    3f54:	aa1303f5 	mov	x21, x19
    3f58:	9100037b 	add	x27, x27, #0x0	3f58: R_AARCH64_ADD_ABS_LO12_NC	.rodata+0x5ea
    3f5c:	d280001a 	mov	x26, #0x0                   	// #0
    3f60:	aa1b03e1 	mov	x1, x27
    3f64:	aa1503e0 	mov	x0, x21
    3f68:	94000000 	bl	dab8 <strcspn>	3f68: R_AARCH64_CALL26	strcspn
    3f6c:	aa0003f6 	mov	x22, x0
    3f70:	8b1602b9 	add	x25, x21, x22
    3f74:	91000726 	add	x6, x25, #0x1
    3f78:	39400322 	ldrb	w2, [x25]
    3f7c:	b4000616 	cbz	x22, 403c <nsh_newconsole+0x93c>
    3f80:	35000342 	cbnz	w2, 3fe8 <nsh_newconsole+0x8e8>
    3f84:	b40009da 	cbz	x26, 40bc <nsh_newconsole+0x9bc>
    3f88:	aa1503e2 	mov	x2, x21
    3f8c:	aa1a03e1 	mov	x1, x26
    3f90:	aa1403e0 	mov	x0, x20
    3f94:	94000000 	bl	0 <memcpy>	3f94: R_AARCH64_CALL26	.text+0x3950
    3f98:	aa0003f3 	mov	x19, x0
    3f9c:	aa1303f7 	mov	x23, x19
    3fa0:	94000000 	bl	0 <memcpy>	3fa0: R_AARCH64_CALL26	.text+0x3898
    3fa4:	17ffff70 	b	3d64 <nsh_newconsole+0x664>
    3fa8:	aa0003e4 	mov	x4, x0
    3fac:	17ffffa7 	b	3e48 <nsh_newconsole+0x748>
    3fb0:	90000007 	adrp	x7, ebb8 <_srodata>	3fb0: R_AARCH64_ADR_PREL_PG_HI21	.rodata+0x5f3
    3fb4:	aa1303e4 	mov	x4, x19
    3fb8:	910000e7 	add	x7, x7, #0x0	3fb8: R_AARCH64_ADD_ABS_LO12_NC	.rodata+0x5f3
    3fbc:	d2800003 	mov	x3, #0x0                   	// #0
    3fc0:	52800001 	mov	w1, #0x0                   	// #0
    3fc4:	5280001c 	mov	w28, #0x0                   	// #0
    3fc8:	52800002 	mov	w2, #0x0                   	// #0
    3fcc:	17ffffae 	b	3e84 <nsh_newconsole+0x784>
    3fd0:	52800001 	mov	w1, #0x0                   	// #0
    3fd4:	3900009f 	strb	wzr, [x4]
    3fd8:	aa0503e4 	mov	x4, x5
    3fdc:	17ffffac 	b	3e8c <nsh_newconsole+0x78c>
    3fe0:	aa0603f5 	mov	x21, x6
    3fe4:	17ffffdf 	b	3f60 <nsh_newconsole+0x860>
    3fe8:	d10006c4 	sub	x4, x22, #0x1
    3fec:	2a1c03e0 	mov	w0, w28
    3ff0:	8b0402a4 	add	x4, x21, x4
    3ff4:	d2800001 	mov	x1, #0x0                   	// #0
    3ff8:	38616885 	ldrb	w5, [x4, x1]
    3ffc:	710170bf 	cmp	w5, #0x5c
    4000:	54000101 	b.ne	4020 <nsh_newconsole+0x920>  // b.any
    4004:	52000000 	eor	w0, w0, #0x1
    4008:	52800023 	mov	w3, #0x1                   	// #1
    400c:	4b010065 	sub	w5, w3, w1
    4010:	12001c00 	and	w0, w0, #0xff
    4014:	eb0502df 	cmp	x22, x5
    4018:	d1000421 	sub	x1, x1, #0x1
    401c:	54fffee8 	b.hi	3ff8 <nsh_newconsole+0x8f8>  // b.pmore
    4020:	36000100 	tbz	w0, #0, 4040 <nsh_newconsole+0x940>
    4024:	910006d6 	add	x22, x22, #0x1
    4028:	aa1b03e1 	mov	x1, x27
    402c:	91000720 	add	x0, x25, #0x1
    4030:	94000000 	bl	dab8 <strcspn>	4030: R_AARCH64_CALL26	strcspn
    4034:	8b160016 	add	x22, x0, x22
    4038:	17ffffce 	b	3f70 <nsh_newconsole+0x870>
    403c:	34fffa42 	cbz	w2, 3f84 <nsh_newconsole+0x884>
    4040:	7100905f 	cmp	w2, #0x24
    4044:	54fffce1 	b.ne	3fe0 <nsh_newconsole+0x8e0>  // b.any
    4048:	aa1903f6 	mov	x22, x25
    404c:	aa1a03e1 	mov	x1, x26
    4050:	aa1503e2 	mov	x2, x21
    4054:	aa1403e0 	mov	x0, x20
    4058:	380016df 	strb	wzr, [x22], #1
    405c:	94000000 	bl	0 <memcpy>	405c: R_AARCH64_CALL26	.text+0x3950
    4060:	aa0003fa 	mov	x26, x0
    4064:	39400720 	ldrb	w0, [x25, #1]
    4068:	7101ec1f 	cmp	w0, #0x7b
    406c:	540006c1 	b.ne	4144 <nsh_newconsole+0xa44>  // b.any
    4070:	91000b36 	add	x22, x25, #0x2
    4074:	52800fa1 	mov	w1, #0x7d                  	// #125
    4078:	aa1603e0 	mov	x0, x22
    407c:	94000000 	bl	0 <memcpy>	407c: R_AARCH64_CALL26	.text+0x3854
    4080:	aa0003f5 	mov	x21, x0
    4084:	b5000220 	cbnz	x0, 40c8 <nsh_newconsole+0x9c8>
    4088:	f9401a84 	ldr	x4, [x20, #48]
    408c:	aa1403e0 	mov	x0, x20
    4090:	aa1a03f7 	mov	x23, x26
    4094:	90000003 	adrp	x3, ebb8 <_srodata>	4094: R_AARCH64_ADR_PREL_PG_HI21	.rodata+0x3f0
    4098:	90000002 	adrp	x2, ebb8 <_srodata>	4098: R_AARCH64_ADR_PREL_PG_HI21	.rodata+0x3f2
    409c:	91000063 	add	x3, x3, #0x0	409c: R_AARCH64_ADD_ABS_LO12_NC	.rodata+0x3f0
    40a0:	91000042 	add	x2, x2, #0x0	40a0: R_AARCH64_ADD_ABS_LO12_NC	.rodata+0x3f2
    40a4:	90000001 	adrp	x1, f11e <g_fmtnomatching>	40a4: R_AARCH64_ADR_PREL_PG_HI21	g_fmtnomatching
    40a8:	90000013 	adrp	x19, ebb8 <_srodata>	40a8: R_AARCH64_ADR_PREL_PG_HI21	.rodata+0x5dc
    40ac:	91000021 	add	x1, x1, #0x0	40ac: R_AARCH64_ADD_ABS_LO12_NC	g_fmtnomatching
    40b0:	91000273 	add	x19, x19, #0x0	40b0: R_AARCH64_ADD_ABS_LO12_NC	.rodata+0x5dc
    40b4:	d63f0080 	blr	x4
    40b8:	17ffff2b 	b	3d64 <nsh_newconsole+0x664>
    40bc:	aa1303e0 	mov	x0, x19
    40c0:	94000000 	bl	0 <memcpy>	40c0: R_AARCH64_CALL26	.text+0x3898
    40c4:	17ffff28 	b	3d64 <nsh_newconsole+0x664>
    40c8:	380016bf 	strb	wzr, [x21], #1
    40cc:	b4000078 	cbz	x24, 40d8 <nsh_newconsole+0x9d8>
    40d0:	52800020 	mov	w0, #0x1                   	// #1
    40d4:	b9000300 	str	w0, [x24]
    40d8:	90000001 	adrp	x1, ebb8 <_srodata>	40d8: R_AARCH64_ADR_PREL_PG_HI21	.rodata+0x5e3
    40dc:	aa1603e0 	mov	x0, x22
    40e0:	91000021 	add	x1, x1, #0x0	40e0: R_AARCH64_ADD_ABS_LO12_NC	.rodata+0x5e3
    40e4:	94000000 	bl	680 <strcmp>	40e4: R_AARCH64_CALL26	strcmp
    40e8:	35000360 	cbnz	w0, 4154 <nsh_newconsole+0xa54>
    40ec:	394a8e81 	ldrb	w1, [x20, #675]
    40f0:	90000000 	adrp	x0, ebb8 <_srodata>	40f0: R_AARCH64_ADR_PREL_PG_HI21	.rodata+0x5dd
    40f4:	90000003 	adrp	x3, ebb8 <_srodata>	40f4: R_AARCH64_ADR_PREL_PG_HI21	.rodata+0x5df
    40f8:	91000000 	add	x0, x0, #0x0	40f8: R_AARCH64_ADD_ABS_LO12_NC	.rodata+0x5dd
    40fc:	91000063 	add	x3, x3, #0x0	40fc: R_AARCH64_ADD_ABS_LO12_NC	.rodata+0x5df
    4100:	f240003f 	tst	x1, #0x1
    4104:	9a800079 	csel	x25, x3, x0, eq	// eq = none
    4108:	394b2280 	ldrb	w0, [x20, #712]
    410c:	37080100 	tbnz	w0, #1, 412c <nsh_newconsole+0xa2c>
    4110:	f9401e84 	ldr	x4, [x20, #56]
    4114:	90000001 	adrp	x1, ebb8 <_srodata>	4114: R_AARCH64_ADR_PREL_PG_HI21	.rodata+0x3f5
    4118:	aa1903e3 	mov	x3, x25
    411c:	aa1603e2 	mov	x2, x22
    4120:	91000021 	add	x1, x1, #0x0	4120: R_AARCH64_ADD_ABS_LO12_NC	.rodata+0x3f5
    4124:	aa1403e0 	mov	x0, x20
    4128:	d63f0080 	blr	x4
    412c:	aa1a03e1 	mov	x1, x26
    4130:	aa1903e2 	mov	x2, x25
    4134:	aa1403e0 	mov	x0, x20
    4138:	94000000 	bl	0 <memcpy>	4138: R_AARCH64_CALL26	.text+0x3950
    413c:	aa0003fa 	mov	x26, x0
    4140:	17ffff88 	b	3f60 <nsh_newconsole+0x860>
    4144:	aa1603e0 	mov	x0, x22
    4148:	94000000 	bl	940 <strlen>	4148: R_AARCH64_CALL26	strlen
    414c:	8b0002d5 	add	x21, x22, x0
    4150:	17ffffdf 	b	40cc <nsh_newconsole+0x9cc>
    4154:	90000001 	adrp	x1, ebb8 <_srodata>	4154: R_AARCH64_ADR_PREL_PG_HI21	.rodata+0x5e1
    4158:	aa1603e0 	mov	x0, x22
    415c:	91000021 	add	x1, x1, #0x0	415c: R_AARCH64_ADD_ABS_LO12_NC	.rodata+0x5e1
    4160:	94000000 	bl	680 <strcmp>	4160: R_AARCH64_CALL26	strcmp
    4164:	350000e0 	cbnz	w0, 4180 <nsh_newconsole+0xa80>
    4168:	b942a680 	ldr	w0, [x20, #676]
    416c:	910aa299 	add	x25, x20, #0x2a8
    4170:	aa1903e1 	mov	x1, x25
    4174:	52800142 	mov	w2, #0xa                   	// #10
    4178:	94000000 	bl	d2e8 <itoa>	4178: R_AARCH64_CALL26	itoa
    417c:	17ffffe3 	b	4108 <nsh_newconsole+0xa08>
    4180:	aa1603e0 	mov	x0, x22
    4184:	94000000 	bl	e860 <getenv>	4184: R_AARCH64_CALL26	getenv
    4188:	aa0003f9 	mov	x25, x0
    418c:	b5fffbe0 	cbnz	x0, 4108 <nsh_newconsole+0xa08>
    4190:	90000003 	adrp	x3, ebb8 <_srodata>	4190: R_AARCH64_ADR_PREL_PG_HI21	.rodata+0x5dc
    4194:	91000079 	add	x25, x3, #0x0	4194: R_AARCH64_ADD_ABS_LO12_NC	.rodata+0x5dc
    4198:	17ffffdc 	b	4108 <nsh_newconsole+0xa08>
    419c:	a9a64ffe 	stp	x30, x19, [sp, #-416]!
    41a0:	aa0003f3 	mov	x19, x0
    41a4:	90000000 	adrp	x0, ebb8 <_srodata>	41a4: R_AARCH64_ADR_PREL_PG_HI21	.rodata
    41a8:	91000000 	add	x0, x0, #0x0	41a8: R_AARCH64_ADD_ABS_LO12_NC	.rodata
    41ac:	a90157f4 	stp	x20, x21, [sp, #16]
    41b0:	d2801102 	mov	x2, #0x88                  	// #136
    41b4:	a9025ff6 	stp	x22, x23, [sp, #32]
    41b8:	aa0103f4 	mov	x20, x1
    41bc:	52800001 	mov	w1, #0x0                   	// #0
    41c0:	ad40781f 	ldp	q31, q30, [x0]
    41c4:	910263e0 	add	x0, sp, #0x98
    41c8:	a90367f8 	stp	x24, x25, [sp, #48]
    41cc:	9102e3f9 	add	x25, sp, #0xb8
    41d0:	a9046ffa 	stp	x26, x27, [sp, #64]
    41d4:	f9002bfc 	str	x28, [sp, #80]
    41d8:	ad00781f 	stp	q31, q30, [x0]
    41dc:	910463e0 	add	x0, sp, #0x118
    41e0:	4f00041f 	movi	v31.4s, #0x0
    41e4:	ad007f3f 	stp	q31, q31, [x25]
    41e8:	ad017f3f 	stp	q31, q31, [x25, #32]
    41ec:	ad027f3f 	stp	q31, q31, [x25, #64]
    41f0:	94000000 	bl	3c0 <memset>	41f0: R_AARCH64_CALL26	memset
    41f4:	910223e3 	add	x3, sp, #0x88
    41f8:	7905427f 	strh	wzr, [x19, #672]
    41fc:	910463e2 	add	x2, sp, #0x118
    4200:	390a8a7f 	strb	wzr, [x19, #674]
    4204:	9101e3e1 	add	x1, sp, #0x78
    4208:	aa1303e0 	mov	x0, x19
    420c:	d2800004 	mov	x4, #0x0                   	// #0
    4210:	f9003ff4 	str	x20, [sp, #120]
    4214:	a908ffff 	stp	xzr, xzr, [sp, #136]
    4218:	94000000 	bl	0 <memcpy>	4218: R_AARCH64_CALL26	.text+0x3cd4
    421c:	b9408bf7 	ldr	w23, [sp, #136]
    4220:	f9404bf6 	ldr	x22, [sp, #144]
    4224:	b40013c0 	cbz	x0, 449c <nsh_newconsole+0xd9c>
    4228:	aa0003f4 	mov	x20, x0
    422c:	90000001 	adrp	x1, ebb8 <_srodata>	422c: R_AARCH64_ADR_PREL_PG_HI21	.rodata+0x3fe
    4230:	91000021 	add	x1, x1, #0x0	4230: R_AARCH64_ADD_ABS_LO12_NC	.rodata+0x3fe
    4234:	94000000 	bl	680 <strcmp>	4234: R_AARCH64_CALL26	strcmp
    4238:	90000001 	adrp	x1, ebb8 <_srodata>	4238: R_AARCH64_ADR_PREL_PG_HI21	.rodata+0x404
    423c:	2a0003f8 	mov	w24, w0
    4240:	91000021 	add	x1, x1, #0x0	4240: R_AARCH64_ADD_ABS_LO12_NC	.rodata+0x404
    4244:	aa1403e0 	mov	x0, x20
    4248:	94000000 	bl	680 <strcmp>	4248: R_AARCH64_CALL26	strcmp
    424c:	910a8275 	add	x21, x19, #0x2a0
    4250:	7100031f 	cmp	w24, #0x0
    4254:	7a401804 	ccmp	w0, #0x0, #0x4, ne	// ne = any
    4258:	54000e01 	b.ne	4418 <nsh_newconsole+0xd18>  // b.any
    425c:	910223e3 	add	x3, sp, #0x88
    4260:	910463e2 	add	x2, sp, #0x118
    4264:	9101e3e1 	add	x1, sp, #0x78
    4268:	aa1303e0 	mov	x0, x19
    426c:	d2800004 	mov	x4, #0x0                   	// #0
    4270:	94000000 	bl	0 <memcpy>	4270: R_AARCH64_CALL26	.text+0x3cd4
    4274:	f9404bf6 	ldr	x22, [sp, #144]
    4278:	aa0003e5 	mov	x5, x0
    427c:	b9408bf7 	ldr	w23, [sp, #136]
    4280:	b4000060 	cbz	x0, 428c <nsh_newconsole+0xb8c>
    4284:	39400000 	ldrb	w0, [x0]
    4288:	350000c0 	cbnz	w0, 42a0 <nsh_newconsole+0xba0>
    428c:	f9401a63 	ldr	x3, [x19, #48]
    4290:	aa1403e2 	mov	x2, x20
    4294:	90000001 	adrp	x1, f103 <g_fmtarginvalid>	4294: R_AARCH64_ADR_PREL_PG_HI21	g_fmtarginvalid
    4298:	91000021 	add	x1, x1, #0x0	4298: R_AARCH64_ADD_ABS_LO12_NC	g_fmtarginvalid
    429c:	1400001e 	b	4314 <nsh_newconsole+0xc14>
    42a0:	394112a0 	ldrb	w0, [x21, #68]
    42a4:	394112a6 	ldrb	w6, [x21, #68]
    42a8:	8b0002a0 	add	x0, x21, x0
    42ac:	79408800 	ldrh	w0, [x0, #68]
    42b0:	d34e3c00 	ubfx	x0, x0, #14, #2
    42b4:	7100041f 	cmp	w0, #0x1
    42b8:	540001c0 	b.eq	42f0 <nsh_newconsole+0xbf0>  // b.none
    42bc:	39410ea0 	ldrb	w0, [x21, #67]
    42c0:	39410ea3 	ldrb	w3, [x21, #67]
    42c4:	8b0012a0 	add	x0, x21, x0, lsl #4
    42c8:	f9402401 	ldr	x1, [x0, #72]
    42cc:	d3461c21 	ubfx	x1, x1, #6, #2
    42d0:	11000c21 	add	w1, w1, #0x3
    42d4:	12000421 	and	w1, w1, #0x3
    42d8:	7100043f 	cmp	w1, #0x1
    42dc:	540000a9 	b.ls	42f0 <nsh_newconsole+0xbf0>  // b.plast
    42e0:	b94032a0 	ldr	w0, [x21, #48]
    42e4:	37f80060 	tbnz	w0, #31, 42f0 <nsh_newconsole+0xbf0>
    42e8:	f9401ea8 	ldr	x8, [x21, #56]
    42ec:	b6f80088 	tbz	x8, #63, 42fc <nsh_newconsole+0xbfc>
    42f0:	f9401a63 	ldr	x3, [x19, #48]
    42f4:	aa1403e2 	mov	x2, x20
    42f8:	14000062 	b	4480 <nsh_newconsole+0xd80>
    42fc:	7100047f 	cmp	w3, #0x1
    4300:	54000289 	b.ls	4350 <nsh_newconsole+0xc50>  // b.plast
    4304:	f9401a63 	ldr	x3, [x19, #48]
    4308:	90000001 	adrp	x1, f079 <g_fmtdeepnesting>	4308: R_AARCH64_ADR_PREL_PG_HI21	g_fmtdeepnesting
    430c:	aa1403e2 	mov	x2, x20
    4310:	91000021 	add	x1, x1, #0x0	4310: R_AARCH64_ADD_ABS_LO12_NC	g_fmtdeepnesting
    4314:	aa1303e0 	mov	x0, x19
    4318:	d63f0060 	blr	x3
    431c:	394ba260 	ldrb	w0, [x19, #744]
    4320:	7905c67f 	strh	wzr, [x19, #738]
    4324:	121f1000 	and	w0, w0, #0x3e
    4328:	32000000 	orr	w0, w0, #0x1
    432c:	390ba260 	strb	w0, [x19, #744]
    4330:	f9002abf 	str	xzr, [x21, #80]
    4334:	aa1303e0 	mov	x0, x19
    4338:	52800021 	mov	w1, #0x1                   	// #1
    433c:	94000000 	bl	0 <memcpy>	433c: R_AARCH64_CALL26	.text+0x37bc
    4340:	2a0003f5 	mov	w21, w0
    4344:	5280001b 	mov	w27, #0x0                   	// #0
    4348:	52800018 	mov	w24, #0x0                   	// #0
    434c:	140001f3 	b	4b18 <nsh_newconsole+0x1418>
    4350:	7100031f 	cmp	w24, #0x0
    4354:	aa1303e0 	mov	x0, x19
    4358:	1a9f07e4 	cset	w4, ne	// ne = any
    435c:	aa0503f4 	mov	x20, x5
    4360:	11000484 	add	w4, w4, #0x1
    4364:	94000000 	bl	0 <memcpy>	4364: R_AARCH64_CALL26	.text+0x38e0
    4368:	39010abf 	strb	wzr, [x21, #66]
    436c:	11000461 	add	w1, w3, #0x1
    4370:	12001c00 	and	w0, w0, #0xff
    4374:	12001c21 	and	w1, w1, #0xff
    4378:	39010ea1 	strb	w1, [x21, #67]
    437c:	2a041804 	orr	w4, w0, w4, lsl #6
    4380:	794082a7 	ldrh	w7, [x21, #64]
    4384:	d37c1c22 	ubfiz	x2, x1, #4, #8
    4388:	8b211261 	add	x1, x19, w1, uxtb #4
    438c:	91010042 	add	x2, x2, #0x40
    4390:	121a6884 	and	w4, w4, #0xffffffc1
    4394:	8b020262 	add	x2, x19, x2
    4398:	8b0800e7 	add	x7, x7, x8
    439c:	394aa040 	ldrb	w0, [x2, #680]
    43a0:	121f1000 	and	w0, w0, #0x3e
    43a4:	2a000084 	orr	w4, w4, w0
    43a8:	390aa044 	strb	w4, [x2, #680]
    43ac:	390ba426 	strb	w6, [x1, #745]
    43b0:	f9017827 	str	x7, [x1, #752]
    43b4:	90000018 	adrp	x24, ebb8 <_srodata>	43b4: R_AARCH64_ADR_PREL_PG_HI21	.rodata+0x418
    43b8:	91000318 	add	x24, x24, #0x0	43b8: R_AARCH64_ADD_ABS_LO12_NC	.rodata+0x418
    43bc:	aa1803e1 	mov	x1, x24
    43c0:	aa1403e0 	mov	x0, x20
    43c4:	94000000 	bl	680 <strcmp>	43c4: R_AARCH64_CALL26	strcmp
    43c8:	35001e60 	cbnz	w0, 4794 <nsh_newconsole+0x1094>
    43cc:	910223e3 	add	x3, sp, #0x88
    43d0:	910463e2 	add	x2, sp, #0x118
    43d4:	9101e3e1 	add	x1, sp, #0x78
    43d8:	aa1303e0 	mov	x0, x19
    43dc:	d2800004 	mov	x4, #0x0                   	// #0
    43e0:	b9008bf7 	str	w23, [sp, #136]
    43e4:	f9004bf6 	str	x22, [sp, #144]
    43e8:	94000000 	bl	0 <memcpy>	43e8: R_AARCH64_CALL26	.text+0x3cd4
    43ec:	f9404bf6 	ldr	x22, [sp, #144]
    43f0:	aa0003f4 	mov	x20, x0
    43f4:	b9408bf7 	ldr	w23, [sp, #136]
    43f8:	b4000060 	cbz	x0, 4404 <nsh_newconsole+0xd04>
    43fc:	39400001 	ldrb	w1, [x0]
    4400:	35000e41 	cbnz	w1, 45c8 <nsh_newconsole+0xec8>
    4404:	f9401a63 	ldr	x3, [x19, #48]
    4408:	aa1803e2 	mov	x2, x24
    440c:	90000001 	adrp	x1, f103 <g_fmtarginvalid>	440c: R_AARCH64_ADR_PREL_PG_HI21	g_fmtarginvalid
    4410:	91000021 	add	x1, x1, #0x0	4410: R_AARCH64_ADD_ABS_LO12_NC	g_fmtarginvalid
    4414:	14000092 	b	465c <nsh_newconsole+0xf5c>
    4418:	90000018 	adrp	x24, ebb8 <_srodata>	4418: R_AARCH64_ADR_PREL_PG_HI21	.rodata+0x40a
    441c:	91000318 	add	x24, x24, #0x0	441c: R_AARCH64_ADD_ABS_LO12_NC	.rodata+0x40a
    4420:	aa1803e1 	mov	x1, x24
    4424:	aa1403e0 	mov	x0, x20
    4428:	94000000 	bl	680 <strcmp>	4428: R_AARCH64_CALL26	strcmp
    442c:	350003c0 	cbnz	w0, 44a4 <nsh_newconsole+0xda4>
    4430:	9101e3e1 	add	x1, sp, #0x78
    4434:	910223e3 	add	x3, sp, #0x88
    4438:	910463e2 	add	x2, sp, #0x118
    443c:	aa1303e0 	mov	x0, x19
    4440:	d2800004 	mov	x4, #0x0                   	// #0
    4444:	94000000 	bl	0 <memcpy>	4444: R_AARCH64_CALL26	.text+0x3cd4
    4448:	aa0003f4 	mov	x20, x0
    444c:	39410ea0 	ldrb	w0, [x21, #67]
    4450:	f9404bf6 	ldr	x22, [sp, #144]
    4454:	91001000 	add	x0, x0, #0x4
    4458:	b9408bf7 	ldr	w23, [sp, #136]
    445c:	8b0012a0 	add	x0, x21, x0, lsl #4
    4460:	f9400401 	ldr	x1, [x0, #8]
    4464:	d3461c21 	ubfx	x1, x1, #6, #2
    4468:	11000c21 	add	w1, w1, #0x3
    446c:	12000421 	and	w1, w1, #0x3
    4470:	7100043f 	cmp	w1, #0x1
    4474:	540000c9 	b.ls	448c <nsh_newconsole+0xd8c>  // b.plast
    4478:	f9401a63 	ldr	x3, [x19, #48]
    447c:	aa1803e2 	mov	x2, x24
    4480:	90000001 	adrp	x1, f055 <g_fmtcontext>	4480: R_AARCH64_ADR_PREL_PG_HI21	g_fmtcontext
    4484:	91000021 	add	x1, x1, #0x0	4484: R_AARCH64_ADD_ABS_LO12_NC	g_fmtcontext
    4488:	17ffffa3 	b	4314 <nsh_newconsole+0xc14>
    448c:	39402001 	ldrb	w1, [x0, #8]
    4490:	321a6421 	orr	w1, w1, #0xffffffc0
    4494:	39002001 	strb	w1, [x0, #8]
    4498:	b5fff8f4 	cbnz	x20, 43b4 <nsh_newconsole+0xcb4>
    449c:	b902ce7f 	str	wzr, [x19, #716]
    44a0:	140000de 	b	4818 <nsh_newconsole+0x1118>
    44a4:	90000018 	adrp	x24, ebb8 <_srodata>	44a4: R_AARCH64_ADR_PREL_PG_HI21	.rodata+0x40d
    44a8:	91000318 	add	x24, x24, #0x0	44a8: R_AARCH64_ADD_ABS_LO12_NC	.rodata+0x40d
    44ac:	aa1803e1 	mov	x1, x24
    44b0:	aa1403e0 	mov	x0, x20
    44b4:	94000000 	bl	680 <strcmp>	44b4: R_AARCH64_CALL26	strcmp
    44b8:	35000760 	cbnz	w0, 45a4 <nsh_newconsole+0xea4>
    44bc:	910223e3 	add	x3, sp, #0x88
    44c0:	910463e2 	add	x2, sp, #0x118
    44c4:	9101e3e1 	add	x1, sp, #0x78
    44c8:	aa1303e0 	mov	x0, x19
    44cc:	d2800004 	mov	x4, #0x0                   	// #0
    44d0:	94000000 	bl	0 <memcpy>	44d0: R_AARCH64_CALL26	.text+0x3cd4
    44d4:	f9404bf6 	ldr	x22, [sp, #144]
    44d8:	b9408bf7 	ldr	w23, [sp, #136]
    44dc:	b4000080 	cbz	x0, 44ec <nsh_newconsole+0xdec>
    44e0:	f9401a63 	ldr	x3, [x19, #48]
    44e4:	aa1803e2 	mov	x2, x24
    44e8:	17ffff6b 	b	4294 <nsh_newconsole+0xb94>
    44ec:	39410ea0 	ldrb	w0, [x21, #67]
    44f0:	39410ea2 	ldrb	w2, [x21, #67]
    44f4:	91001000 	add	x0, x0, #0x4
    44f8:	8b0012a0 	add	x0, x21, x0, lsl #4
    44fc:	f9400401 	ldr	x1, [x0, #8]
    4500:	53061c23 	ubfx	w3, w1, #6, #2
    4504:	71000c7f 	cmp	w3, #0x3
    4508:	54fffb81 	b.ne	4478 <nsh_newconsole+0xd78>  // b.any
    450c:	350000c2 	cbnz	w2, 4524 <nsh_newconsole+0xe24>
    4510:	f9401a63 	ldr	x3, [x19, #48]
    4514:	90000001 	adrp	x1, f00c <g_fmtinternalerror>	4514: R_AARCH64_ADR_PREL_PG_HI21	g_fmtinternalerror
    4518:	aa1803e2 	mov	x2, x24
    451c:	91000021 	add	x1, x1, #0x0	451c: R_AARCH64_ADD_ABS_LO12_NC	g_fmtinternalerror
    4520:	17ffff7d 	b	4314 <nsh_newconsole+0xc14>
    4524:	36000381 	tbz	w1, #0, 4594 <nsh_newconsole+0xe94>
    4528:	b9401001 	ldr	w1, [x0, #16]
    452c:	52800002 	mov	w2, #0x0                   	// #0
    4530:	b94032a0 	ldr	w0, [x21, #48]
    4534:	94000000 	bl	e90c <lseek>	4534: R_AARCH64_CALL26	lseek
    4538:	36f80160 	tbz	w0, #31, 4564 <nsh_newconsole+0xe64>
    453c:	f9401a74 	ldr	x20, [x19, #48]
    4540:	94000000 	bl	2454 <__errno>	4540: R_AARCH64_CALL26	__errno
    4544:	b9400004 	ldr	w4, [x0]
    4548:	90000003 	adrp	x3, ebb8 <_srodata>	4548: R_AARCH64_ADR_PREL_PG_HI21	.rodata+0x412
    454c:	90000001 	adrp	x1, f03d <g_fmtcmdfailed>	454c: R_AARCH64_ADR_PREL_PG_HI21	g_fmtcmdfailed
    4550:	91000063 	add	x3, x3, #0x0	4550: R_AARCH64_ADD_ABS_LO12_NC	.rodata+0x412
    4554:	aa1803e2 	mov	x2, x24
    4558:	91000021 	add	x1, x1, #0x0	4558: R_AARCH64_ADD_ABS_LO12_NC	g_fmtcmdfailed
    455c:	aa1303e0 	mov	x0, x19
    4560:	d63f0280 	blr	x20
    4564:	52800020 	mov	w0, #0x1                   	// #1
    4568:	39010aa0 	strb	w0, [x21, #66]
    456c:	39410ea0 	ldrb	w0, [x21, #67]
    4570:	39410ea1 	ldrb	w1, [x21, #67]
    4574:	91001000 	add	x0, x0, #0x4
    4578:	8b0012a0 	add	x0, x21, x0, lsl #4
    457c:	39402002 	ldrb	w2, [x0, #8]
    4580:	12001442 	and	w2, w2, #0x3f
    4584:	39002002 	strb	w2, [x0, #8]
    4588:	51000420 	sub	w0, w1, #0x1
    458c:	39010ea0 	strb	w0, [x21, #67]
    4590:	17ffffc3 	b	449c <nsh_newconsole+0xd9c>
    4594:	39402001 	ldrb	w1, [x0, #8]
    4598:	32000021 	orr	w1, w1, #0x1
    459c:	39002001 	strb	w1, [x0, #8]
    45a0:	17fffff3 	b	456c <nsh_newconsole+0xe6c>
    45a4:	39410ea0 	ldrb	w0, [x21, #67]
    45a8:	8b0012a0 	add	x0, x21, x0, lsl #4
    45ac:	f9402400 	ldr	x0, [x0, #72]
    45b0:	d3461c00 	ubfx	x0, x0, #6, #2
    45b4:	11000c00 	add	w0, w0, #0x3
    45b8:	12000400 	and	w0, w0, #0x3
    45bc:	7100041f 	cmp	w0, #0x1
    45c0:	54ffefa8 	b.hi	43b4 <nsh_newconsole+0xcb4>  // b.pmore
    45c4:	17ffff4b 	b	42f0 <nsh_newconsole+0xbf0>
    45c8:	90000001 	adrp	x1, ebb8 <_srodata>	45c8: R_AARCH64_ADR_PREL_PG_HI21	.rodata+0x41b
    45cc:	91000021 	add	x1, x1, #0x0	45cc: R_AARCH64_ADD_ABS_LO12_NC	.rodata+0x41b
    45d0:	94000000 	bl	680 <strcmp>	45d0: R_AARCH64_CALL26	strcmp
    45d4:	35000340 	cbnz	w0, 463c <nsh_newconsole+0xf3c>
    45d8:	910223e3 	add	x3, sp, #0x88
    45dc:	910463e2 	add	x2, sp, #0x118
    45e0:	9101e3e1 	add	x1, sp, #0x78
    45e4:	aa1303e0 	mov	x0, x19
    45e8:	d2800004 	mov	x4, #0x0                   	// #0
    45ec:	94000000 	bl	0 <memcpy>	45ec: R_AARCH64_CALL26	.text+0x3cd4
    45f0:	f9404bf6 	ldr	x22, [sp, #144]
    45f4:	aa0003f4 	mov	x20, x0
    45f8:	b9408bf7 	ldr	w23, [sp, #136]
    45fc:	b4fff040 	cbz	x0, 4404 <nsh_newconsole+0xd04>
    4600:	39400000 	ldrb	w0, [x0]
    4604:	52800024 	mov	w4, #0x1                   	// #1
    4608:	34ffefe0 	cbz	w0, 4404 <nsh_newconsole+0xd04>
    460c:	394112a0 	ldrb	w0, [x21, #68]
    4610:	394112a3 	ldrb	w3, [x21, #68]
    4614:	8b0002a0 	add	x0, x21, x0
    4618:	79408800 	ldrh	w0, [x0, #68]
    461c:	d34e3c00 	ubfx	x0, x0, #14, #2
    4620:	7100041f 	cmp	w0, #0x1
    4624:	54000101 	b.ne	4644 <nsh_newconsole+0xf44>  // b.any
    4628:	f9401a63 	ldr	x3, [x19, #48]
    462c:	aa1803e2 	mov	x2, x24
    4630:	90000001 	adrp	x1, f055 <g_fmtcontext>	4630: R_AARCH64_ADR_PREL_PG_HI21	g_fmtcontext
    4634:	91000021 	add	x1, x1, #0x0	4634: R_AARCH64_ADD_ABS_LO12_NC	g_fmtcontext
    4638:	14000009 	b	465c <nsh_newconsole+0xf5c>
    463c:	52800004 	mov	w4, #0x0                   	// #0
    4640:	17fffff3 	b	460c <nsh_newconsole+0xf0c>
    4644:	7100047f 	cmp	w3, #0x1
    4648:	54000169 	b.ls	4674 <nsh_newconsole+0xf74>  // b.plast
    464c:	f9401a63 	ldr	x3, [x19, #48]
    4650:	90000001 	adrp	x1, f079 <g_fmtdeepnesting>	4650: R_AARCH64_ADR_PREL_PG_HI21	g_fmtdeepnesting
    4654:	aa1803e2 	mov	x2, x24
    4658:	91000021 	add	x1, x1, #0x0	4658: R_AARCH64_ADD_ABS_LO12_NC	g_fmtdeepnesting
    465c:	aa1303e0 	mov	x0, x19
    4660:	d63f0060 	blr	x3
    4664:	7945ca60 	ldrh	w0, [x19, #740]
    4668:	12150800 	and	w0, w0, #0x3800
    466c:	7905ca60 	strh	w0, [x19, #740]
    4670:	17ffff31 	b	4334 <nsh_newconsole+0xc34>
    4674:	11000463 	add	w3, w3, #0x1
    4678:	aa1303e0 	mov	x0, x19
    467c:	12001c63 	and	w3, w3, #0xff
    4680:	94000000 	bl	0 <memcpy>	4680: R_AARCH64_CALL26	.text+0x38e0
    4684:	12001c00 	and	w0, w0, #0xff
    4688:	390112a3 	strb	w3, [x21, #68]
    468c:	52000000 	eor	w0, w0, #0x1
    4690:	8b234263 	add	x3, x19, w3, uxtw
    4694:	531f1800 	ubfiz	w0, w0, #1, #7
    4698:	321a0000 	orr	w0, w0, #0x40
    469c:	2a040804 	orr	w4, w0, w4, lsl #2
    46a0:	394b9460 	ldrb	w0, [x3, #741]
    46a4:	121a7084 	and	w4, w4, #0xffffffc7
    46a8:	121d0800 	and	w0, w0, #0x38
    46ac:	2a000084 	orr	w4, w4, w0
    46b0:	390b9464 	strb	w4, [x3, #741]
    46b4:	b902ce7f 	str	wzr, [x19, #716]
    46b8:	90000018 	adrp	x24, ebb8 <_srodata>	46b8: R_AARCH64_ADR_PREL_PG_HI21	.rodata+0x42a
    46bc:	91000318 	add	x24, x24, #0x0	46bc: R_AARCH64_ADD_ABS_LO12_NC	.rodata+0x42a
    46c0:	aa1803e1 	mov	x1, x24
    46c4:	aa1403e0 	mov	x0, x20
    46c8:	94000000 	bl	680 <strcmp>	46c8: R_AARCH64_CALL26	strcmp
    46cc:	2a0003f5 	mov	w21, w0
    46d0:	35001500 	cbnz	w0, 4970 <nsh_newconsole+0x1270>
    46d4:	52800140 	mov	w0, #0xa                   	// #10
    46d8:	b902ce60 	str	w0, [x19, #716]
    46dc:	910223e3 	add	x3, sp, #0x88
    46e0:	910463e2 	add	x2, sp, #0x118
    46e4:	9101e3e1 	add	x1, sp, #0x78
    46e8:	aa1303e0 	mov	x0, x19
    46ec:	d2800004 	mov	x4, #0x0                   	// #0
    46f0:	b9008bf7 	str	w23, [sp, #136]
    46f4:	f9004bf6 	str	x22, [sp, #144]
    46f8:	94000000 	bl	0 <memcpy>	46f8: R_AARCH64_CALL26	.text+0x3cd4
    46fc:	f9404bf6 	ldr	x22, [sp, #144]
    4700:	aa0003f4 	mov	x20, x0
    4704:	b9408bf7 	ldr	w23, [sp, #136]
    4708:	b4ffe1e0 	cbz	x0, 4344 <nsh_newconsole+0xc44>
    470c:	90000001 	adrp	x1, ebb8 <_srodata>	470c: R_AARCH64_ADR_PREL_PG_HI21	.rodata+0x42f
    4710:	91000021 	add	x1, x1, #0x0	4710: R_AARCH64_ADD_ABS_LO12_NC	.rodata+0x42f
    4714:	94000000 	bl	680 <strcmp>	4714: R_AARCH64_CALL26	strcmp
    4718:	2a0003f5 	mov	w21, w0
    471c:	350012a0 	cbnz	w0, 4970 <nsh_newconsole+0x1270>
    4720:	910223e3 	add	x3, sp, #0x88
    4724:	910463e2 	add	x2, sp, #0x118
    4728:	9101e3e1 	add	x1, sp, #0x78
    472c:	aa1303e0 	mov	x0, x19
    4730:	d2800004 	mov	x4, #0x0                   	// #0
    4734:	94000000 	bl	0 <memcpy>	4734: R_AARCH64_CALL26	.text+0x3cd4
    4738:	f9404bf6 	ldr	x22, [sp, #144]
    473c:	aa0003fb 	mov	x27, x0
    4740:	b9408bf7 	ldr	w23, [sp, #136]
    4744:	b4001160 	cbz	x0, 4970 <nsh_newconsole+0x1270>
    4748:	910203e1 	add	x1, sp, #0x80
    474c:	52800002 	mov	w2, #0x0                   	// #0
    4750:	94000000 	bl	d574 <strtol>	4750: R_AARCH64_CALL26	strtol
    4754:	b902ce60 	str	w0, [x19, #716]
    4758:	11005000 	add	w0, w0, #0x14
    475c:	71009c1f 	cmp	w0, #0x27
    4760:	540000c8 	b.hi	4778 <nsh_newconsole+0x1078>  // b.pmore
    4764:	f94043e0 	ldr	x0, [sp, #128]
    4768:	eb00037f 	cmp	x27, x0
    476c:	54000060 	b.eq	4778 <nsh_newconsole+0x1078>  // b.none
    4770:	39400000 	ldrb	w0, [x0]
    4774:	34000ea0 	cbz	w0, 4948 <nsh_newconsole+0x1248>
    4778:	f9401a63 	ldr	x3, [x19, #48]
    477c:	aa1803e2 	mov	x2, x24
    4780:	aa1303e0 	mov	x0, x19
    4784:	90000001 	adrp	x1, f103 <g_fmtarginvalid>	4784: R_AARCH64_ADR_PREL_PG_HI21	g_fmtarginvalid
    4788:	91000021 	add	x1, x1, #0x0	4788: R_AARCH64_ADD_ABS_LO12_NC	g_fmtarginvalid
    478c:	d63f0060 	blr	x3
    4790:	17fffee9 	b	4334 <nsh_newconsole+0xc34>
    4794:	9000001b 	adrp	x27, ebb8 <_srodata>	4794: R_AARCH64_ADR_PREL_PG_HI21	.rodata+0x41d
    4798:	9100037b 	add	x27, x27, #0x0	4798: R_AARCH64_ADD_ABS_LO12_NC	.rodata+0x41d
    479c:	aa1b03e1 	mov	x1, x27
    47a0:	aa1403e0 	mov	x0, x20
    47a4:	94000000 	bl	680 <strcmp>	47a4: R_AARCH64_CALL26	strcmp
    47a8:	35000400 	cbnz	w0, 4828 <nsh_newconsole+0x1128>
    47ac:	9101e3e1 	add	x1, sp, #0x78
    47b0:	910223e3 	add	x3, sp, #0x88
    47b4:	910463e2 	add	x2, sp, #0x118
    47b8:	aa1303e0 	mov	x0, x19
    47bc:	d2800004 	mov	x4, #0x0                   	// #0
    47c0:	b9008bf7 	str	w23, [sp, #136]
    47c4:	f9004bf6 	str	x22, [sp, #144]
    47c8:	94000000 	bl	0 <memcpy>	47c8: R_AARCH64_CALL26	.text+0x3cd4
    47cc:	aa0003f4 	mov	x20, x0
    47d0:	394112a0 	ldrb	w0, [x21, #68]
    47d4:	f9404bf6 	ldr	x22, [sp, #144]
    47d8:	8b0002a0 	add	x0, x21, x0
    47dc:	91010000 	add	x0, x0, #0x40
    47e0:	b9408bf7 	ldr	w23, [sp, #136]
    47e4:	79400801 	ldrh	w1, [x0, #4]
    47e8:	d34e3c21 	ubfx	x1, x1, #14, #2
    47ec:	7100043f 	cmp	w1, #0x1
    47f0:	54000080 	b.eq	4800 <nsh_newconsole+0x1100>  // b.none
    47f4:	f9401a63 	ldr	x3, [x19, #48]
    47f8:	aa1b03e2 	mov	x2, x27
    47fc:	17ffff8d 	b	4630 <nsh_newconsole+0xf30>
    4800:	39401401 	ldrb	w1, [x0, #5]
    4804:	52800042 	mov	w2, #0x2                   	// #2
    4808:	331a0441 	bfi	w1, w2, #6, #2
    480c:	39001401 	strb	w1, [x0, #5]
    4810:	b902ce7f 	str	wzr, [x19, #716]
    4814:	b5fff534 	cbnz	x20, 46b8 <nsh_newconsole+0xfb8>
    4818:	5280001b 	mov	w27, #0x0                   	// #0
    481c:	52800018 	mov	w24, #0x0                   	// #0
    4820:	52800015 	mov	w21, #0x0                   	// #0
    4824:	140000bd 	b	4b18 <nsh_newconsole+0x1418>
    4828:	9000001b 	adrp	x27, ebb8 <_srodata>	4828: R_AARCH64_ADR_PREL_PG_HI21	.rodata+0x422
    482c:	9100037b 	add	x27, x27, #0x0	482c: R_AARCH64_ADD_ABS_LO12_NC	.rodata+0x422
    4830:	aa1b03e1 	mov	x1, x27
    4834:	aa1403e0 	mov	x0, x20
    4838:	94000000 	bl	680 <strcmp>	4838: R_AARCH64_CALL26	strcmp
    483c:	350002c0 	cbnz	w0, 4894 <nsh_newconsole+0x1194>
    4840:	9101e3e1 	add	x1, sp, #0x78
    4844:	910223e3 	add	x3, sp, #0x88
    4848:	910463e2 	add	x2, sp, #0x118
    484c:	aa1303e0 	mov	x0, x19
    4850:	d2800004 	mov	x4, #0x0                   	// #0
    4854:	b9008bf7 	str	w23, [sp, #136]
    4858:	f9004bf6 	str	x22, [sp, #144]
    485c:	94000000 	bl	0 <memcpy>	485c: R_AARCH64_CALL26	.text+0x3cd4
    4860:	aa0003f4 	mov	x20, x0
    4864:	394112a0 	ldrb	w0, [x21, #68]
    4868:	f9404bf6 	ldr	x22, [sp, #144]
    486c:	8b0002a0 	add	x0, x21, x0
    4870:	91010000 	add	x0, x0, #0x40
    4874:	b9408bf7 	ldr	w23, [sp, #136]
    4878:	79400801 	ldrh	w1, [x0, #4]
    487c:	d34e3c21 	ubfx	x1, x1, #14, #2
    4880:	7100083f 	cmp	w1, #0x2
    4884:	54fffb81 	b.ne	47f4 <nsh_newconsole+0x10f4>  // b.any
    4888:	39401401 	ldrb	w1, [x0, #5]
    488c:	321a6421 	orr	w1, w1, #0xffffffc0
    4890:	17ffffdf 	b	480c <nsh_newconsole+0x110c>
    4894:	9000001b 	adrp	x27, ebb8 <_srodata>	4894: R_AARCH64_ADR_PREL_PG_HI21	.rodata+0x427
    4898:	9100037b 	add	x27, x27, #0x0	4898: R_AARCH64_ADD_ABS_LO12_NC	.rodata+0x427
    489c:	aa1b03e1 	mov	x1, x27
    48a0:	aa1403e0 	mov	x0, x20
    48a4:	94000000 	bl	680 <strcmp>	48a4: R_AARCH64_CALL26	strcmp
    48a8:	350003e0 	cbnz	w0, 4924 <nsh_newconsole+0x1224>
    48ac:	910223e3 	add	x3, sp, #0x88
    48b0:	910463e2 	add	x2, sp, #0x118
    48b4:	9101e3e1 	add	x1, sp, #0x78
    48b8:	aa1303e0 	mov	x0, x19
    48bc:	d2800004 	mov	x4, #0x0                   	// #0
    48c0:	b9008bf7 	str	w23, [sp, #136]
    48c4:	f9004bf6 	str	x22, [sp, #144]
    48c8:	94000000 	bl	0 <memcpy>	48c8: R_AARCH64_CALL26	.text+0x3cd4
    48cc:	f9404bf6 	ldr	x22, [sp, #144]
    48d0:	b9408bf7 	ldr	w23, [sp, #136]
    48d4:	b4000080 	cbz	x0, 48e4 <nsh_newconsole+0x11e4>
    48d8:	f9401a63 	ldr	x3, [x19, #48]
    48dc:	aa1b03e2 	mov	x2, x27
    48e0:	17fffecb 	b	440c <nsh_newconsole+0xd0c>
    48e4:	394112a1 	ldrb	w1, [x21, #68]
    48e8:	394112a0 	ldrb	w0, [x21, #68]
    48ec:	8b0102a1 	add	x1, x21, x1
    48f0:	79408821 	ldrh	w1, [x1, #68]
    48f4:	d34e3c21 	ubfx	x1, x1, #14, #2
    48f8:	7100043f 	cmp	w1, #0x1
    48fc:	54fff7c9 	b.ls	47f4 <nsh_newconsole+0x10f4>  // b.plast
    4900:	350000c0 	cbnz	w0, 4918 <nsh_newconsole+0x1218>
    4904:	f9401a63 	ldr	x3, [x19, #48]
    4908:	90000001 	adrp	x1, f00c <g_fmtinternalerror>	4908: R_AARCH64_ADR_PREL_PG_HI21	g_fmtinternalerror
    490c:	aa1803e2 	mov	x2, x24
    4910:	91000021 	add	x1, x1, #0x0	4910: R_AARCH64_ADD_ABS_LO12_NC	g_fmtinternalerror
    4914:	17ffff52 	b	465c <nsh_newconsole+0xf5c>
    4918:	51000400 	sub	w0, w0, #0x1
    491c:	390112a0 	strb	w0, [x21, #68]
    4920:	17fffedf 	b	449c <nsh_newconsole+0xd9c>
    4924:	394112a0 	ldrb	w0, [x21, #68]
    4928:	8b0002b5 	add	x21, x21, x0
    492c:	79408aa0 	ldrh	w0, [x21, #68]
    4930:	d34e3c00 	ubfx	x0, x0, #14, #2
    4934:	7100041f 	cmp	w0, #0x1
    4938:	54ffebe1 	b.ne	46b4 <nsh_newconsole+0xfb4>  // b.any
    493c:	f9401a63 	ldr	x3, [x19, #48]
    4940:	aa1403e2 	mov	x2, x20
    4944:	17ffff3b 	b	4630 <nsh_newconsole+0xf30>
    4948:	910223e3 	add	x3, sp, #0x88
    494c:	910463e2 	add	x2, sp, #0x118
    4950:	9101e3e1 	add	x1, sp, #0x78
    4954:	aa1303e0 	mov	x0, x19
    4958:	d2800004 	mov	x4, #0x0                   	// #0
    495c:	94000000 	bl	0 <memcpy>	495c: R_AARCH64_CALL26	.text+0x3cd4
    4960:	f9404bf6 	ldr	x22, [sp, #144]
    4964:	aa0003f4 	mov	x20, x0
    4968:	b9408bf7 	ldr	w23, [sp, #136]
    496c:	b4ffcec0 	cbz	x0, 4344 <nsh_newconsole+0xc44>
    4970:	aa1303e0 	mov	x0, x19
    4974:	94000000 	bl	0 <memcpy>	4974: R_AARCH64_CALL26	.text+0x38e0
    4978:	12001c18 	and	w24, w0, #0xff
    497c:	360016c0 	tbz	w0, #0, 4c54 <nsh_newconsole+0x1554>
    4980:	9000001c 	adrp	x28, ebb8 <_srodata>	4980: R_AARCH64_ADR_PREL_PG_HI21	.rodata+0x5f7
    4984:	5280001b 	mov	w27, #0x0                   	// #0
    4988:	91000380 	add	x0, x28, #0x0	4988: R_AARCH64_ADD_ABS_LO12_NC	.rodata+0x5f7
    498c:	52800018 	mov	w24, #0x0                   	// #0
    4990:	52800035 	mov	w21, #0x1                   	// #1
    4994:	f90033e0 	str	x0, [sp, #96]
    4998:	f9005ff4 	str	x20, [sp, #184]
    499c:	d2800003 	mov	x3, #0x0                   	// #0
    49a0:	910203e4 	add	x4, sp, #0x80
    49a4:	910463e2 	add	x2, sp, #0x118
    49a8:	9101e3e1 	add	x1, sp, #0x78
    49ac:	aa1303e0 	mov	x0, x19
    49b0:	b90083ff 	str	wzr, [sp, #128]
    49b4:	94000000 	bl	0 <memcpy>	49b4: R_AARCH64_CALL26	.text+0x3cd4
    49b8:	f835db20 	str	x0, [x25, w21, sxtw #3]
    49bc:	aa0003fa 	mov	x26, x0
    49c0:	93407ea3 	sxtw	x3, w21
    49c4:	b4001360 	cbz	x0, 4c30 <nsh_newconsole+0x1530>
    49c8:	b94083e0 	ldr	w0, [sp, #128]
    49cc:	340000a0 	cbz	w0, 49e0 <nsh_newconsole+0x12e0>
    49d0:	aa0303fc 	mov	x28, x3
    49d4:	39400341 	ldrb	w1, [x26]
    49d8:	350005a1 	cbnz	w1, 4a8c <nsh_newconsole+0x138c>
    49dc:	2a1c03f5 	mov	w21, w28
    49e0:	f875db23 	ldr	x3, [x25, w21, sxtw #3]
    49e4:	d2800042 	mov	x2, #0x2                   	// #2
    49e8:	90000001 	adrp	x1, ebb8 <_srodata>	49e8: R_AARCH64_ADR_PREL_PG_HI21	.rodata+0x5e7
    49ec:	91000021 	add	x1, x1, #0x0	49ec: R_AARCH64_ADD_ABS_LO12_NC	.rodata+0x5e7
    49f0:	aa0303e0 	mov	x0, x3
    49f4:	f90037e3 	str	x3, [sp, #104]
    49f8:	94000000 	bl	a9c <strncmp>	49f8: R_AARCH64_CALL26	strncmp
    49fc:	f94037e3 	ldr	x3, [sp, #104]
    4a00:	35000be0 	cbnz	w0, 4b7c <nsh_newconsole+0x147c>
    4a04:	39400860 	ldrb	w0, [x3, #2]
    4a08:	340006a0 	cbz	w0, 4adc <nsh_newconsole+0x13dc>
    4a0c:	91000861 	add	x1, x3, #0x2
    4a10:	52800020 	mov	w0, #0x1                   	// #1
    4a14:	394a8678 	ldrb	w24, [x19, #673]
    4a18:	390a8660 	strb	w0, [x19, #673]
    4a1c:	528002c0 	mov	w0, #0x16                  	// #22
    4a20:	b900a7e0 	str	w0, [sp, #164]
    4a24:	aa1303e0 	mov	x0, x19
    4a28:	94000000 	bl	68fc <nsh_getfullpath>	4a28: R_AARCH64_CALL26	nsh_getfullpath
    4a2c:	f9005be0 	str	x0, [sp, #176]
    4a30:	71002abf 	cmp	w21, #0xa
    4a34:	54fffb4d 	b.le	499c <nsh_newconsole+0x129c>
    4a38:	510006bc 	sub	w28, w21, #0x1
    4a3c:	90000001 	adrp	x1, ebb8 <_srodata>	4a3c: R_AARCH64_ADR_PREL_PG_HI21	.rodata+0x432
    4a40:	91000021 	add	x1, x1, #0x0	4a40: R_AARCH64_ADD_ABS_LO12_NC	.rodata+0x432
    4a44:	f87cdb20 	ldr	x0, [x25, w28, sxtw #3]
    4a48:	94000000 	bl	680 <strcmp>	4a48: R_AARCH64_CALL26	strcmp
    4a4c:	35000080 	cbnz	w0, 4a5c <nsh_newconsole+0x135c>
    4a50:	2a1c03f5 	mov	w21, w28
    4a54:	52800020 	mov	w0, #0x1                   	// #1
    4a58:	390a8260 	strb	w0, [x19, #672]
    4a5c:	f835db3f 	str	xzr, [x25, w21, sxtw #3]
    4a60:	71001ebf 	cmp	w21, #0x7
    4a64:	54000ead 	b.le	4c38 <nsh_newconsole+0x1538>
    4a68:	f9401a63 	ldr	x3, [x19, #48]
    4a6c:	aa1403e2 	mov	x2, x20
    4a70:	aa1303e0 	mov	x0, x19
    4a74:	90000001 	adrp	x1, f094 <g_fmttoomanyargs>	4a74: R_AARCH64_ADR_PREL_PG_HI21	g_fmttoomanyargs
    4a78:	91000021 	add	x1, x1, #0x0	4a78: R_AARCH64_ADD_ABS_LO12_NC	g_fmttoomanyargs
    4a7c:	d63f0060 	blr	x3
    4a80:	1400006e 	b	4c38 <nsh_newconsole+0x1538>
    4a84:	aa0103fa 	mov	x26, x1
    4a88:	17ffffd3 	b	49d4 <nsh_newconsole+0x12d4>
    4a8c:	f94033e0 	ldr	x0, [sp, #96]
    4a90:	94000000 	bl	59c <strchr>	4a90: R_AARCH64_CALL26	strchr
    4a94:	91000741 	add	x1, x26, #0x1
    4a98:	b4ffff60 	cbz	x0, 4a84 <nsh_newconsole+0x1384>
    4a9c:	3900035f 	strb	wzr, [x26]
    4aa0:	aa0103fa 	mov	x26, x1
    4aa4:	39400341 	ldrb	w1, [x26]
    4aa8:	34000081 	cbz	w1, 4ab8 <nsh_newconsole+0x13b8>
    4aac:	f94033e0 	ldr	x0, [sp, #96]
    4ab0:	94000000 	bl	59c <strchr>	4ab0: R_AARCH64_CALL26	strchr
    4ab4:	b5000100 	cbnz	x0, 4ad4 <nsh_newconsole+0x13d4>
    4ab8:	8b1c0f20 	add	x0, x25, x28, lsl #3
    4abc:	9100079c 	add	x28, x28, #0x1
    4ac0:	2a1c03f5 	mov	w21, w28
    4ac4:	f900041a 	str	x26, [x0, #8]
    4ac8:	71002f9f 	cmp	w28, #0xb
    4acc:	54fff841 	b.ne	49d4 <nsh_newconsole+0x12d4>  // b.any
    4ad0:	17ffffc4 	b	49e0 <nsh_newconsole+0x12e0>
    4ad4:	9100075a 	add	x26, x26, #0x1
    4ad8:	17fffff3 	b	4aa4 <nsh_newconsole+0x13a4>
    4adc:	9101e3e1 	add	x1, sp, #0x78
    4ae0:	910203e4 	add	x4, sp, #0x80
    4ae4:	910463e2 	add	x2, sp, #0x118
    4ae8:	aa1303e0 	mov	x0, x19
    4aec:	d2800003 	mov	x3, #0x0                   	// #0
    4af0:	94000000 	bl	0 <memcpy>	4af0: R_AARCH64_CALL26	.text+0x3cd4
    4af4:	aa0003e1 	mov	x1, x0
    4af8:	b5fff8c0 	cbnz	x0, 4a10 <nsh_newconsole+0x1310>
    4afc:	f9401a63 	ldr	x3, [x19, #48]
    4b00:	12800015 	mov	w21, #0xffffffff            	// #-1
    4b04:	aa1403e2 	mov	x2, x20
    4b08:	aa1303e0 	mov	x0, x19
    4b0c:	90000001 	adrp	x1, f103 <g_fmtarginvalid>	4b0c: R_AARCH64_ADR_PREL_PG_HI21	g_fmtarginvalid
    4b10:	91000021 	add	x1, x1, #0x0	4b10: R_AARCH64_ADD_ABS_LO12_NC	g_fmtarginvalid
    4b14:	d63f0060 	blr	x3
    4b18:	f9405be0 	ldr	x0, [sp, #176]
    4b1c:	b4000060 	cbz	x0, 4b28 <nsh_newconsole+0x1428>
    4b20:	94000000 	bl	698c <nsh_freefullpath>	4b20: R_AARCH64_CALL26	nsh_freefullpath
    4b24:	390a8678 	strb	w24, [x19, #673]
    4b28:	f94057e0 	ldr	x0, [sp, #168]
    4b2c:	b4000060 	cbz	x0, 4b38 <nsh_newconsole+0x1438>
    4b30:	94000000 	bl	698c <nsh_freefullpath>	4b30: R_AARCH64_CALL26	nsh_freefullpath
    4b34:	390a8a7b 	strb	w27, [x19, #674]
    4b38:	52800014 	mov	w20, #0x0                   	// #0
    4b3c:	6b17029f 	cmp	w20, w23
    4b40:	540008eb 	b.lt	4c5c <nsh_newconsole+0x155c>  // b.tstop
    4b44:	910463f3 	add	x19, sp, #0x118
    4b48:	52800014 	mov	w20, #0x0                   	// #0
    4b4c:	b9411be0 	ldr	w0, [sp, #280]
    4b50:	91002273 	add	x19, x19, #0x8
    4b54:	6b00029f 	cmp	w20, w0
    4b58:	5400096b 	b.lt	4c84 <nsh_newconsole+0x1584>  // b.tstop
    4b5c:	f9402bfc 	ldr	x28, [sp, #80]
    4b60:	2a1503e0 	mov	w0, w21
    4b64:	a94157f4 	ldp	x20, x21, [sp, #16]
    4b68:	a9425ff6 	ldp	x22, x23, [sp, #32]
    4b6c:	a94367f8 	ldp	x24, x25, [sp, #48]
    4b70:	a9446ffa 	ldp	x26, x27, [sp, #64]
    4b74:	a8da4ffe 	ldp	x30, x19, [sp], #416
    4b78:	d65f03c0 	ret
    4b7c:	39400060 	ldrb	w0, [x3]
    4b80:	7100f81f 	cmp	w0, #0x3e
    4b84:	54000241 	b.ne	4bcc <nsh_newconsole+0x14cc>  // b.any
    4b88:	39400460 	ldrb	w0, [x3, #1]
    4b8c:	340000e0 	cbz	w0, 4ba8 <nsh_newconsole+0x14a8>
    4b90:	91000461 	add	x1, x3, #0x1
    4b94:	52800020 	mov	w0, #0x1                   	// #1
    4b98:	394a8678 	ldrb	w24, [x19, #673]
    4b9c:	390a8660 	strb	w0, [x19, #673]
    4ba0:	528004c0 	mov	w0, #0x26                  	// #38
    4ba4:	17ffff9f 	b	4a20 <nsh_newconsole+0x1320>
    4ba8:	9101e3e1 	add	x1, sp, #0x78
    4bac:	910203e4 	add	x4, sp, #0x80
    4bb0:	910463e2 	add	x2, sp, #0x118
    4bb4:	aa1303e0 	mov	x0, x19
    4bb8:	d2800003 	mov	x3, #0x0                   	// #0
    4bbc:	94000000 	bl	0 <memcpy>	4bbc: R_AARCH64_CALL26	.text+0x3cd4
    4bc0:	aa0003e1 	mov	x1, x0
    4bc4:	b5fffe80 	cbnz	x0, 4b94 <nsh_newconsole+0x1494>
    4bc8:	17ffffcd 	b	4afc <nsh_newconsole+0x13fc>
    4bcc:	7100f01f 	cmp	w0, #0x3c
    4bd0:	540002c1 	b.ne	4c28 <nsh_newconsole+0x1528>  // b.any
    4bd4:	39400460 	ldrb	w0, [x3, #1]
    4bd8:	34000160 	cbz	w0, 4c04 <nsh_newconsole+0x1504>
    4bdc:	91000461 	add	x1, x3, #0x1
    4be0:	394a8a7b 	ldrb	w27, [x19, #674]
    4be4:	52800020 	mov	w0, #0x1                   	// #1
    4be8:	390a8a60 	strb	w0, [x19, #674]
    4bec:	52800020 	mov	w0, #0x1                   	// #1
    4bf0:	b900a3e0 	str	w0, [sp, #160]
    4bf4:	aa1303e0 	mov	x0, x19
    4bf8:	94000000 	bl	68fc <nsh_getfullpath>	4bf8: R_AARCH64_CALL26	nsh_getfullpath
    4bfc:	f90057e0 	str	x0, [sp, #168]
    4c00:	17ffff8c 	b	4a30 <nsh_newconsole+0x1330>
    4c04:	9101e3e1 	add	x1, sp, #0x78
    4c08:	910203e4 	add	x4, sp, #0x80
    4c0c:	910463e2 	add	x2, sp, #0x118
    4c10:	aa1303e0 	mov	x0, x19
    4c14:	d2800003 	mov	x3, #0x0                   	// #0
