
../apps/bin/init:     file format elf64-littleaarch64

SYMBOL TABLE:
0000000000000000 l    d  .text	0000000000000000 .text
000000000000ebb8 l    d  .rodata	0000000000000000 .rodata
0000000000000050 l    d  .data	0000000000000000 .data
00000000000002c8 l    d  .bss	0000000000000000 .bss
0000000000002ed4 g     F .text	0000000000000020 clock_gettime
000000000000ea00 g     F .text	0000000000000020 pgalloc
000000000000b258 g     F .text	0000000000000164 cmd_watch
0000000000000780 g     F .text	00000000000001b8 strcpy
0000000000002b78 g     F .text	0000000000000024 nxsem_get_value
0000000000002f08 g     F .text	0000000000000014 nx_pthread_exit
000000000000d9f4 g     F .text	0000000000000090 lib_isbasedigit
000000000000eb78 g     F .text	0000000000000018 unsetenv
000000000000c5b8 g     F .text	0000000000000214 mm_shrinkchunk
000000000000873c g     F .text	0000000000000168 cmd_rm
000000000000eb90 g     F .text	0000000000000024 waitpid
0000000000002de4 g     F .text	0000000000000034 lib_fflush
000000000000a368 g     F .text	0000000000000140 cmd_kill
0000000000005448 g     F .text	00000000000001c4 cmd_alias
000000000000e8ac g     F .text	0000000000000040 ioctl
0000000000008390 g     F .text	0000000000000128 cmd_mkdir
0000000000006db8 g     F .text	00000000000001a0 cmd_set
0000000000002f1c g     F .text	0000000000000024 nxsem_clockwait
000000000000c57c g     F .text	000000000000003c mm_malloc_size
000000000000e360 g     F .text	0000000000000038 clock_isleapyear
0000000000007ecc g     F .text	000000000000012c cmd_dmesg
000000000000242c g     F .text	0000000000000018 task_get_info
000000000000b894 g     F .text	0000000000000248 mm_delayfree
0000000000002508 g     F .text	000000000000002c nxmutex_is_locked
00000000000027ac g     F .text	0000000000000008 nxrmutex_get_holder
00000000000002c8 g       .dtors	0000000000000000 _edtors
000000000000e2f0 g     F .text	000000000000000c sigemptyset
0000000000005cb0 g     F .text	00000000000000cc nsh_command
0000000000002760 g     F .text	0000000000000010 nxmutex_restorelock
000000000000a618 g     F .text	0000000000000070 cmd_sleep
0000000000002e74 g     F .text	0000000000000024 pthread_exit
000000000000d04c g     F .text	000000000000008c snprintf
000000000000218c g     F .text	00000000000000a0 atexit_call_exitfuncs
0000000000002ef4 g     F .text	0000000000000014 gettid
0000000000003004 g     F .text	0000000000000058 nsh_consolemain
000000000000ca38 g     F .text	0000000000000010 iscntrl_l
000000000000be08 g     F .text	000000000000048c mm_realloc
000000000000cd8c g     F .text	0000000000000064 lib_put_tempbuffer
0000000000002fa0 g     F .text	0000000000000020 sched_getparam
00000000000029e8 g     F .text	0000000000000034 nxrmutex_restorelock
00000000000002c8 g       .dtors	0000000000000000 _sdtors
000000000000e2fc g     F .text	0000000000000030 add_file_action
000000000000da84 g     F .text	0000000000000034 lib_skipspace
0000000000002454 g     F .text	000000000000002c __errno
00000000000094c8 g     F .text	000000000000007c nsh_getdirpath
000000000000e860 g     F .text	0000000000000018 getenv
0000000000004c98 g     F .text	000000000000013c nsh_parse
0000000000004fa0 g     F .text	000000000000031c readline_common
0000000000008b28 g     F .text	00000000000001fc cmd_truncate
000000000000ebb4 g       .text	0000000000000000 _etext
00000000000002c8 g       .bss	0000000000000000 _sbss
000000000000cef0 g     F .text	000000000000000c posix_spawn_file_actions_init
0000000000007dc0 g     F .text	000000000000010c cmd_cat
000000000000e170 g     F .text	000000000000004c usleep
0000000000009590 g     F .text	0000000000000014 cmd_free
000000000000e898 g     F .text	0000000000000014 getpid
000000000000f00c g     O .rodata	0000000000000019 g_fmtinternalerror
000000000000a6f8 g     F .text	000000000000030c cmd_uptime
000000000000c53c g     F .text	000000000000002c mm_unlock
000000000000e284 g     F .text	000000000000006c truncate
0000000000002d34 g     F .text	00000000000000b0 lib_fflush_unlocked
0000000000001e5c g     F .text	000000000000005c __ultoa_invert
000000000000cbf0 g     F .text	0000000000000090 dirname
0000000000002340 g     F .text	0000000000000008 lib_noflush
000000000000f0ca g     O .rodata	000000000000001c g_fmtcmdnotfound
000000000000f175 g     O .rodata	000000000000001f g_nshgreeting
0000000000008924 g     F .text	000000000000000c cmd_source
0000000000002a1c g     F .text	0000000000000078 task_setcancelstate
0000000000007ff8 g     F .text	0000000000000138 cmd_cp
0000000000002500 g     F .text	0000000000000008 nxmutex_get_holder
0000000000000000 g     F .text	000000000000016c memcpy
000000000000c7d0 g     F .text	0000000000000258 mm_malloc
000000000000b730 g     F .text	000000000000003c mm_brkaddr
0000000000002a94 g     F .text	000000000000003c nxsem_init
000000000000f103 g     O .rodata	000000000000001b g_fmtarginvalid
0000000000005444 g     F .text	0000000000000004 nsh_aliasfree
000000000000ebb8 g       .rodata	0000000000000000 _srodata
000000000000e32c g     F .text	000000000000000c tcflush
000000000000ca84 g     F .text	0000000000000014 tolower
0000000000003700 g     F .text	00000000000000a8 nsh_newconsole
000000000000ca98 g     F .text	0000000000000004 tolower_l
000000000000b5a8 g     F .text	000000000000000c malloc
000000000000dda0 g     F .text	000000000000001c isatty
000000000000ea20 g     F .text	0000000000000030 posix_spawn
00000000000020a4 g     F .text	0000000000000030 quick_exit
000000000000e104 g     F .text	000000000000006c sleep
0000000000002e98 g     F .text	0000000000000028 _assert
000000000000eb28 g     F .text	0000000000000018 sysinfo
000000000000b3bc g     F .text	00000000000001dc cmd_wait
000000000000e338 g     F .text	000000000000000c tcdrain
0000000000002774 g     F .text	0000000000000008 nxrmutex_init
0000000000002f40 g     F .text	0000000000000018 nxsem_destroy
0000000000009970 g     F .text	0000000000000084 cmd_umount
000000000000d648 g     F .text	000000000000018c strtoul
0000000000000050  w    O .data	0000000000000008 __dso_handle
000000000000d2e8 g     F .text	000000000000009c itoa
00000000000033b0 g     F .text	00000000000000d4 readline_fd
0000000000002594 g     F .text	0000000000000030 nxmutex_trylock
000000000000a688 g     F .text	0000000000000070 cmd_usleep
000000000000e398 g     F .text	0000000000000060 clock_dayoftheweek
000000000000eacc g     F .text	0000000000000018 sched_getscheduler
000000000000e0cc g     F .text	0000000000000010 getoptargp
0000000000000050 g       .data	0000000000000000 _sdata
000000000000c2dc g     F .text	0000000000000044 umm_try_initialize
000000000000eab4 g     F .text	0000000000000018 rmdir
0000000000005f90 g     F .text	000000000000024c cmd_hexdump
000000000000cb44 g     F .text	0000000000000044 readdir
000000000000ecf0 g     O .rodata	0000000000000048 g_dtoa_scale_up
0000000000002534 g     F .text	0000000000000060 nxmutex_lock
0000000000002998 g     F .text	0000000000000050 nxrmutex_breaklock
000000000000c2b8 g     F .text	0000000000000024 umm_initialize
000000000000629c g     F .text	0000000000000638 cmd_dd
000000000000ca48 g     F .text	0000000000000014 isspace
0000000000002bfc g     F .text	000000000000003c fflush
00000000000024c4 g     F .text	0000000000000020 nxmutex_destroy
000000000000e82c g     F .text	0000000000000020 ftruncate
000000000000d56c g     F .text	0000000000000008 realpath
000000000000942c g     F .text	000000000000003c nsh_trimdir
000000000000e90c g     F .text	0000000000000024 lseek
000000000000f079 g     O .rodata	000000000000001b g_fmtdeepnesting
000000000000b130 g     F .text	0000000000000128 cmd_time
00000000000020d4 g     F .text	0000000000000008 _Exit
000000000000c320 g     F .text	0000000000000148 mm_addregion
00000000000068f0 g     F .text	000000000000000c nsh_getcwd
0000000000008f10 g     F .text	00000000000001ec nsh_catfile
0000000000006fb8 g     F .text	0000000000000270 nsh_fileapp
0000000000002e68 g     F .text	000000000000000c abort
000000000000ca80 g     F .text	0000000000000004 isxdigit_l
0000000000007d8c g     F .text	0000000000000034 cmd_dirname
000000000000ec28 g     O .rodata	0000000000000080 g_dtoa_round
0000000000002868 g     F .text	0000000000000070 nxrmutex_clocklock
000000000000de54 g     F .text	00000000000001a4 gmtime_r
0000000000002e20 g     F .text	0000000000000008 ftrylockfile
00000000000027b4 g     F .text	0000000000000004 nxrmutex_is_locked
000000000000ca60 g     F .text	0000000000000020 isxdigit
00000000000068fc g     F .text	0000000000000090 nsh_getfullpath
000000000000d574 g     F .text	00000000000000d4 strtol
000000000000c514 g     F .text	0000000000000028 mm_lock
000000000000f094 g     O .rodata	000000000000001d g_fmttoomanyargs
000000000000c7cc g     F .text	0000000000000004 mm_free_delaylist
00000000000001a4 g     F .text	00000000000000e0 strnlen
0000000000002314 g     F .text	000000000000002c lib_rawoutstream
000000000000cefc g     F .text	0000000000000078 posix_spawnattr_init
000000000000cc80 g     F .text	000000000000007c uname
000000000000c294 g     F .text	0000000000000024 mm_heapmember
0000000000000811 g       .bss	0000000000000000 _ebss
00000000000030e0 g     F .text	000000000000000c nsh_prompt
0000000000000810 g     O .bss	0000000000000001 .hidden __aarch64_have_lse_atomics
000000000000ea94 g     F .text	0000000000000020 rename
000000000000e99c g     F .text	0000000000000024 nx_vsyslog
0000000000000c54 g     F .text	0000000000000100 strrchr
000000000000cb88 g     F .text	0000000000000068 basename
0000000000008d24 g     F .text	00000000000000cc cmd_fdinfo
000000000000f03d g     O .rodata	0000000000000018 g_fmtcmdfailed
000000000000e84c g     F .text	0000000000000014 get_environ_ptr
0000000000000d60 g     F .text	0000000000000030 .hidden __aarch64_cas4_acq_rel
0000000000000811 g       *ABS*	0000000000000000 _etbss
0000000000002fe0 g     F .text	0000000000000024 write
000000000000e8ec g     F .text	0000000000000020 kill
000000000000dcac g     F .text	0000000000000044 strcat
0000000000002940 g     F .text	0000000000000058 nxrmutex_unlock
0000000000001e2c g     F .text	000000000000002c lib_vsprintf_internal
000000000000eb40 g     F .text	0000000000000020 umount2
000000000000ca5c g     F .text	0000000000000004 isspace_l
000000000000e1bc g     F .text	00000000000000c8 chdir
0000000000004dd4 g     F .text	000000000000003c cmd_break
0000000000000e24 g     F .text	0000000000000064 __start
000000000000e7c0 g     F .text	000000000000000c getoptvars
0000000000002480 g     F .text	0000000000000044 nxmutex_init
00000000000026ac g     F .text	0000000000000070 nxmutex_unlock
0000000000002ad0 g     F .text	0000000000000034 sem_init
0000000000000ef8 g     F .text	0000000000000068 dprintf
000000000000e930 g     F .text	0000000000000020 lstat
000000000000db78 g     F .text	000000000000007c strstr
0000000000003074 g     F .text	000000000000006c nsh_update_prompt
0000000000009544 g     F .text	000000000000004c nsh_getpid
000000000000c574 g     F .text	0000000000000008 mm_unlock_irq
000000000000ea70 g     F .text	0000000000000024 read
000000000000d930 g     F .text	0000000000000034 lib_memoutstream
000000000000262c g     F .text	0000000000000080 nxmutex_timedlock
000000000000a2a4 g     F .text	00000000000000c4 cmd_pidof
000000000000e0b0 g     F .text	000000000000000c get_current_dir_name
000000000000dc70 g     F .text	000000000000003c strlcpy
0000000000000a9c g     F .text	00000000000001b8 strncmp
000000000000c468 g     F .text	00000000000000a8 mm_initialize
0000000000009b68 g     F .text	00000000000000d4 ps_readprocfs
000000000000f055 g     O .rodata	0000000000000024 g_fmtcontext
000000000000eb60 g     F .text	0000000000000018 unlink
000000000000eae4 g     F .text	0000000000000024 setenv
0000000000002f58 g     F .text	0000000000000018 nxsem_post
0000000000004e10 g     F .text	0000000000000190 nsh_script
0000000000002e28 g     F .text	0000000000000008 funlockfile
000000000000b610 g     F .text	000000000000005c realloc
0000000000002254 g     F .text	0000000000000014 on_exit
000000000000271c g     F .text	0000000000000044 nxmutex_breaklock
000000000000a4a8 g     F .text	0000000000000170 cmd_pkill
0000000000002268 g     F .text	0000000000000014 __cxa_atexit
0000000000002f88 g     F .text	0000000000000018 nxsem_wait
0000000000000811 g       *ABS*	0000000000000000 _stbss
0000000000002f70 g     F .text	0000000000000018 nxsem_trywait
0000000000001eb8 g     F .text	00000000000001b4 __dtoa_engine
0000000000002240 g     F .text	0000000000000014 at_quick_exit
000000000000d0d8 g     F .text	00000000000000fc nx_vasprintf
0000000000000280 g     F .text	0000000000000110 memcmp
0000000000002e44 g     F .text	0000000000000024 lib_get_stream
0000000000006d64 g     F .text	0000000000000014 cmd_env
000000000000bb2c g     F .text	00000000000002dc mm_memalign
0000000000002b4c g     F .text	000000000000002c sem_setprotocol
000000000000b6a0 g     F .text	0000000000000090 sbrk
000000000000daf8 g     F .text	0000000000000040 strdup
0000000000007cfc g     F .text	0000000000000090 cmd_basename
000000000000badc g     F .text	0000000000000050 mm_free
000000000000b0b8 g     F .text	000000000000000c cmd_test
0000000000002e30 g     F .text	0000000000000014 lib_get_streams
00000000000053d8 g     F .text	0000000000000028 alias_init
00000000000084b8 g     F .text	00000000000001a0 cmd_mkrd
000000000000e344 g     F .text	000000000000001c clock_daysbeforemonth
0000000000000d90 g     F .text	000000000000002c .hidden __aarch64_ldset4_acq
000000000000e0bc g     F .text	0000000000000010 getopt
000000000000de50 g     F .text	0000000000000004 localtime
00000000000003c0 g     F .text	00000000000001dc memset
0000000000000e88 g     F .text	0000000000000070 main
000000000000e0f0 g     F .text	0000000000000014 getoptoptp
000000000000dbf4 g     F .text	000000000000007c strlcat
0000000000002770 g     F .text	0000000000000004 nxmutex_set_protocol
000000000000cdf0 g     F .text	00000000000000b0 posix_spawn_file_actions_addopen
0000000000009724 g     F .text	000000000000024c cmd_mount
000000000000ddbc g     F .text	000000000000000c tcgetattr
0000000000006d78 g     F .text	0000000000000040 cmd_pwd
000000000000de10 g     F .text	0000000000000034 time
000000000000ca9c g     F .text	0000000000000060 opendir
00000000000024e4 g     F .text	000000000000001c nxmutex_is_hold
0000000000009248 g     F .text	00000000000000fc nsh_writefile
000000000000dd24 g     F .text	0000000000000068 syslog
0000000000002c38 g     F .text	0000000000000078 lib_flushall_unlocked
00000000000028d8 g     F .text	0000000000000068 nxrmutex_timedlock
000000000000560c g     F .text	00000000000000e8 cmd_unalias
000000000000e970 g     F .text	000000000000002c mount
0000000000000680 g     F .text	00000000000000e4 strcmp
0000000000009468 g     F .text	0000000000000060 nsh_trimspaces
00000000000020dc g     F .text	00000000000000b0 atexit_register
000000000000dffc g     F .text	00000000000000b4 getcwd
0000000000001e58 g     F .text	0000000000000004 lib_vsprintf
00000000000025c4 g     F .text	0000000000000068 nxmutex_clocklock
000000000000db38 g     F .text	0000000000000040 nx_strdup
000000000000e878 g     F .text	0000000000000020 gethostname
000000000000b5b4 g     F .text	000000000000005c memalign
00000000000027b8 g     F .text	0000000000000058 nxrmutex_lock
000000000000cfe4 g     F .text	0000000000000068 asprintf
000000000000222c g     F .text	0000000000000014 atexit
000000000000dab8 g     F .text	0000000000000040 strcspn
0000000000005400 g     F .text	0000000000000044 nsh_aliasfind
000000000000b76c g     F .text	0000000000000128 mm_extend
0000000000002e18 g     F .text	0000000000000008 flockfile
000000000000dd8c g     F .text	0000000000000014 setlogmask
000000000000e7cc g     F .text	0000000000000020 boardctl
0000000000008658 g     F .text	00000000000000e4 cmd_mv
0000000000002fc0 g     F .text	0000000000000020 sched_setparam
000000000000305c g     F .text	0000000000000018 nsh_initialize
000000000000f0b1 g     O .rodata	0000000000000019 g_fmtnosuch
00000000000002c8 g       .ctors	0000000000000000 _sctors
000000000000f137 g     O .rodata	0000000000000027 g_fmtargrequired
00000000000090fc g     F .text	000000000000014c nsh_readfile
000000000000dff8 g     F .text	0000000000000004 localtime_r
0000000000002bc0 g     F .text	000000000000003c fflush_unlocked
000000000000277c g     F .text	000000000000001c nxrmutex_destroy
000000000000ccfc g     F .text	0000000000000090 lib_get_tempbuffer
000000000000eb08 g     F .text	0000000000000020 stat
000000000000d7d4 g     F .text	00000000000000cc lib_checkbase
0000000000006998 g     F .text	0000000000000124 cmd_cd
000000000000f11e g     O .rodata	0000000000000019 g_fmtnomatching
000000000000d9cc g     F .text	0000000000000028 lib_nulloutstream
000000000000aa04 g     F .text	0000000000000254 cmd_uname
000000000000698c g     F .text	000000000000000c nsh_freefullpath
0000000000005ef4 g     F .text	000000000000009c cmd_xd
0000000000008130 g     F .text	0000000000000260 cmd_ls
00000000000002c8 g       .data	0000000000000000 _edata
0000000000002798 g     F .text	0000000000000004 nxrmutex_is_hold
000000000000cea0 g     F .text	0000000000000050 posix_spawn_file_actions_destroy
000000000000b66c g     F .text	0000000000000034 zalloc
000000000000cf7c g     F .text	0000000000000068 nx_asprintf
000000000000279c g     F .text	0000000000000010 nxrmutex_is_recursive
00000000000096d0 g     F .text	0000000000000054 cmd_df
000000000000a154 g     F .text	0000000000000150 cmd_ps
0000000000008930 g     F .text	00000000000001f8 cmd_cmp
0000000000002b9c g     F .text	0000000000000024 sem_getvalue
0000000000002b04 g     F .text	0000000000000048 nxsem_set_protocol
000000000000c510 g     F .text	0000000000000004 mm_uninitialize
0000000000005d7c g     F .text	0000000000000178 nsh_dumpbuffer
000000000000206c g     F .text	0000000000000038 exit
000000000000b0c4 g     F .text	000000000000006c cmd_lbracket
0000000000006abc g     F .text	00000000000002a8 cmd_echo
00000000000030ec g     F .text	00000000000001c0 nsh_session
0000000000001db8 g     F .text	0000000000000074 lib_sprintf_internal
000000000000e0dc g     F .text	0000000000000014 getoptindp
00000000000002c8 g       .ctors	0000000000000000 _ectors
000000000000d2d0 g     F .text	0000000000000018 atoi
000000000000ca28 g     F .text	0000000000000010 iscntrl
000000000000f15e g     O .rodata	0000000000000017 g_fmtsyntax
0000000000000811 g       *ABS*	0000000000000000 _stdata
0000000000009344 g     F .text	00000000000000e8 nsh_foreach_direntry
000000000000f025 g     O .rodata	0000000000000018 g_fmtcmdoutofmemory
000000000000dcf0 g     F .text	0000000000000034 vsyslog
000000000000c568 g     F .text	000000000000000c mm_lock_irq
0000000000002cb0 g     F .text	0000000000000084 lib_flushall
0000000000002ec0 g     F .text	0000000000000014 _exit
000000000000de44 g     F .text	000000000000000c gmtime
0000000000002810 g     F .text	0000000000000058 nxrmutex_trylock
0000000000000000 g       .text	0000000000000000 _stext
0000000000000940 g     F .text	0000000000000140 strlen
000000000000eca8 g     O .rodata	0000000000000048 g_dtoa_scale_down
000000000000e9c0 g     F .text	0000000000000040 open
000000000000f0e6 g     O .rodata	000000000000001d g_fmtargrange
0000000000000f60 g     F .text	0000000000000064 vdprintf
0000000000002444 g     F .text	0000000000000010 __assert
000000000000059c g     F .text	00000000000000dc strchr
000000000000d384 g     F .text	00000000000001e8 lib_realpath
00000000000099f4 g     F .text	0000000000000174 cmd_printf
000000000000cafc g     F .text	0000000000000048 closedir
0000000000002400 g     F .text	000000000000002c lib_bufferedoutstream
000000000000d1d4 g     F .text	00000000000000fc vasprintf
000000000000ea50 g     F .text	0000000000000020 pthread_join
000000000000e7ec g     F .text	0000000000000028 clock_nanosleep
000000000000a0cc g     F .text	0000000000000088 cmd_exec
0000000000006f58 g     F .text	0000000000000060 cmd_unset
0000000000000811 g       *ABS*	0000000000000000 _etdata
000000000000ddc8 g     F .text	0000000000000048 tcsetattr
000000000000e950 g     F .text	0000000000000020 mkdir
000000000000029c g     O .data	0000000000000001 g_syslog_mask
000000000000e814 g     F .text	0000000000000018 close
000000000000efec g     O .rodata	0000000000000020 g_fmtsignalrecvd
00000000000095a4 g     F .text	000000000000012c cmd_memdump
000000000000cf74 g     F .text	0000000000000008 posix_spawnattr_destroy
00000000000088a4 g     F .text	0000000000000080 cmd_rmdir
000000000000e554 g     F .text	000000000000026c getopt_common
000000000000b598 g     F .text	0000000000000010 free
000000000002b5d6 g       .rodata	0000000000000000 _erodata
00000000000002a0 g     O .data	0000000000000028 g_getopt_vars



Disassembly of section .text:

0000000000000000 <memcpy>:
memcpy():
       0:	f9800020 	prfm	pldl1keep, [x1]
       4:	8b020024 	add	x4, x1, x2
       8:	8b020005 	add	x5, x0, x2
       c:	f100405f 	cmp	x2, #0x10
      10:	54000209 	b.ls	50 <memcpy+0x50>  // b.plast
      14:	f101805f 	cmp	x2, #0x60
      18:	54000648 	b.hi	e0 <memcpy+0xe0>  // b.pmore
      1c:	d1000449 	sub	x9, x2, #0x1
      20:	a9401c26 	ldp	x6, x7, [x1]
      24:	37300469 	tbnz	w9, #6, b0 <memcpy+0xb0>
      28:	a97f348c 	ldp	x12, x13, [x4, #-16]
      2c:	362800a9 	tbz	w9, #5, 40 <memcpy+0x40>
      30:	a9412428 	ldp	x8, x9, [x1, #16]
      34:	a97e2c8a 	ldp	x10, x11, [x4, #-32]
      38:	a9012408 	stp	x8, x9, [x0, #16]
      3c:	a93e2caa 	stp	x10, x11, [x5, #-32]
      40:	a9001c06 	stp	x6, x7, [x0]
      44:	a93f34ac 	stp	x12, x13, [x5, #-16]
      48:	d65f03c0 	ret
      4c:	d503201f 	nop
      50:	f100205f 	cmp	x2, #0x8
      54:	540000e3 	b.cc	70 <memcpy+0x70>  // b.lo, b.ul, b.last
      58:	f9400026 	ldr	x6, [x1]
      5c:	f85f8087 	ldur	x7, [x4, #-8]
      60:	f9000006 	str	x6, [x0]
      64:	f81f80a7 	stur	x7, [x5, #-8]
      68:	d65f03c0 	ret
      6c:	d503201f 	nop
      70:	361000c2 	tbz	w2, #2, 88 <memcpy+0x88>
      74:	b9400026 	ldr	w6, [x1]
      78:	b85fc087 	ldur	w7, [x4, #-4]
      7c:	b9000006 	str	w6, [x0]
      80:	b81fc0a7 	stur	w7, [x5, #-4]
      84:	d65f03c0 	ret
      88:	b4000102 	cbz	x2, a8 <memcpy+0xa8>
      8c:	d341fc49 	lsr	x9, x2, #1
      90:	39400026 	ldrb	w6, [x1]
      94:	385ff087 	ldurb	w7, [x4, #-1]
      98:	38696828 	ldrb	w8, [x1, x9]
      9c:	39000006 	strb	w6, [x0]
      a0:	38296808 	strb	w8, [x0, x9]
      a4:	381ff0a7 	sturb	w7, [x5, #-1]
      a8:	d65f03c0 	ret
      ac:	d503201f 	nop
      b0:	a9412428 	ldp	x8, x9, [x1, #16]
      b4:	a9422c2a 	ldp	x10, x11, [x1, #32]
      b8:	a943342c 	ldp	x12, x13, [x1, #48]
      bc:	a97e0881 	ldp	x1, x2, [x4, #-32]
      c0:	a97f0c84 	ldp	x4, x3, [x4, #-16]
      c4:	a9001c06 	stp	x6, x7, [x0]
      c8:	a9012408 	stp	x8, x9, [x0, #16]
      cc:	a9022c0a 	stp	x10, x11, [x0, #32]
      d0:	a903340c 	stp	x12, x13, [x0, #48]
      d4:	a93e08a1 	stp	x1, x2, [x5, #-32]
      d8:	a93f0ca4 	stp	x4, x3, [x5, #-16]
      dc:	d65f03c0 	ret
      e0:	92400c09 	and	x9, x0, #0xf
      e4:	927cec03 	and	x3, x0, #0xfffffffffffffff0
      e8:	a940342c 	ldp	x12, x13, [x1]
      ec:	cb090021 	sub	x1, x1, x9
      f0:	8b090042 	add	x2, x2, x9
      f4:	a9411c26 	ldp	x6, x7, [x1, #16]
      f8:	a900340c 	stp	x12, x13, [x0]
      fc:	a9422428 	ldp	x8, x9, [x1, #32]
     100:	a9432c2a 	ldp	x10, x11, [x1, #48]
     104:	a9c4342c 	ldp	x12, x13, [x1, #64]!
     108:	f1024042 	subs	x2, x2, #0x90
     10c:	54000169 	b.ls	138 <memcpy+0x138>  // b.plast
     110:	a9011c66 	stp	x6, x7, [x3, #16]
     114:	a9411c26 	ldp	x6, x7, [x1, #16]
     118:	a9022468 	stp	x8, x9, [x3, #32]
     11c:	a9422428 	ldp	x8, x9, [x1, #32]
     120:	a9032c6a 	stp	x10, x11, [x3, #48]
     124:	a9432c2a 	ldp	x10, x11, [x1, #48]
     128:	a984346c 	stp	x12, x13, [x3, #64]!
     12c:	a9c4342c 	ldp	x12, x13, [x1, #64]!
     130:	f1010042 	subs	x2, x2, #0x40
     134:	54fffee8 	b.hi	110 <memcpy+0x110>  // b.pmore
     138:	a97c0881 	ldp	x1, x2, [x4, #-64]
     13c:	a9011c66 	stp	x6, x7, [x3, #16]
     140:	a97d1c86 	ldp	x6, x7, [x4, #-48]
     144:	a9022468 	stp	x8, x9, [x3, #32]
     148:	a97e2488 	ldp	x8, x9, [x4, #-32]
     14c:	a9032c6a 	stp	x10, x11, [x3, #48]
     150:	a97f2c8a 	ldp	x10, x11, [x4, #-16]
     154:	a904346c 	stp	x12, x13, [x3, #64]
     158:	a93c08a1 	stp	x1, x2, [x5, #-64]
     15c:	a93d1ca6 	stp	x6, x7, [x5, #-48]
     160:	a93e24a8 	stp	x8, x9, [x5, #-32]
     164:	a93f2caa 	stp	x10, x11, [x5, #-16]
     168:	d65f03c0 	ret
	...
     180:	d503201f 	nop
     184:	d503201f 	nop
     188:	d503201f 	nop
     18c:	d503201f 	nop
     190:	d503201f 	nop
     194:	d503201f 	nop
     198:	d503201f 	nop
     19c:	aa0103e0 	mov	x0, x1
     1a0:	d65f03c0 	ret

00000000000001a4 <strnlen>:
strnlen():
     1a4:	b4ffffc1 	cbz	x1, 19c <memcpy+0x19c>
     1a8:	b200c3ec 	mov	x12, #0x101010101010101     	// #72340172838076673
     1ac:	927cec02 	and	x2, x0, #0xfffffffffffffff0
     1b0:	f2400c08 	ands	x8, x0, #0xf
     1b4:	54000361 	b.ne	220 <strnlen+0x7c>  // b.any
     1b8:	d100042e 	sub	x14, x1, #0x1
     1bc:	d344fdce 	lsr	x14, x14, #4
     1c0:	a8c11043 	ldp	x3, x4, [x2], #16
     1c4:	cb0c0068 	sub	x8, x3, x12
     1c8:	b200d869 	orr	x9, x3, #0x7f7f7f7f7f7f7f7f
     1cc:	cb0c008a 	sub	x10, x4, x12
     1d0:	b200d88b 	orr	x11, x4, #0x7f7f7f7f7f7f7f7f
     1d4:	8a290106 	bic	x6, x8, x9
     1d8:	8a2b0147 	bic	x7, x10, x11
     1dc:	f10005ce 	subs	x14, x14, #0x1
     1e0:	aa0700c8 	orr	x8, x6, x7
     1e4:	fa405900 	ccmp	x8, #0x0, #0x0, pl	// pl = nfrst
     1e8:	54fffec0 	b.eq	1c0 <strnlen+0x1c>  // b.none
     1ec:	aa0700c8 	orr	x8, x6, x7
     1f0:	b4fffd68 	cbz	x8, 19c <memcpy+0x19c>
     1f4:	cb000040 	sub	x0, x2, x0
     1f8:	b4000066 	cbz	x6, 204 <strnlen+0x60>
     1fc:	d1002000 	sub	x0, x0, #0x8
     200:	aa0603e7 	mov	x7, x6
     204:	d1002000 	sub	x0, x0, #0x8
     208:	dac00ce7 	rev	x7, x7
     20c:	dac010ed 	clz	x13, x7
     210:	8b4d0c00 	add	x0, x0, x13, lsr #3
     214:	eb01001f 	cmp	x0, x1
     218:	9a819000 	csel	x0, x0, x1, ls	// ls = plast
     21c:	d65f03c0 	ret
     220:	d100042e 	sub	x14, x1, #0x1
     224:	cb0803eb 	neg	x11, x8
     228:	f100211f 	cmp	x8, #0x8
     22c:	92400dca 	and	x10, x14, #0xf
     230:	d344fdce 	lsr	x14, x14, #4
     234:	92800009 	mov	x9, #0xffffffffffffffff    	// #-1
     238:	a8c11043 	ldp	x3, x4, [x2], #16
     23c:	d37df16b 	lsl	x11, x11, #3
     240:	8b08014a 	add	x10, x10, x8
     244:	9acb2529 	lsr	x9, x9, x11
     248:	8b4a11ce 	add	x14, x14, x10, lsr #4
     24c:	aa090063 	orr	x3, x3, x9
     250:	aa090085 	orr	x5, x4, x9
     254:	da9fd063 	csinv	x3, x3, xzr, le
     258:	9a85d084 	csel	x4, x4, x5, le
     25c:	17ffffda 	b	1c4 <strnlen+0x20>
	...

0000000000000280 <memcmp>:
memcmp():
     280:	f1002042 	subs	x2, x2, #0x8
     284:	54000663 	b.cc	350 <memcmp+0xd0>  // b.lo, b.ul, b.last
     288:	f8408403 	ldr	x3, [x0], #8
     28c:	f8408425 	ldr	x5, [x1], #8
     290:	eb05007f 	cmp	x3, x5
     294:	54000501 	b.ne	334 <memcmp+0xb4>  // b.any
     298:	f1002042 	subs	x2, x2, #0x8
     29c:	5400008c 	b.gt	2ac <memcmp+0x2c>
     2a0:	f8626803 	ldr	x3, [x0, x2]
     2a4:	f8626825 	ldr	x5, [x1, x2]
     2a8:	14000023 	b	334 <memcmp+0xb4>
     2ac:	f8408403 	ldr	x3, [x0], #8
     2b0:	f8408425 	ldr	x5, [x1], #8
     2b4:	eb05007f 	cmp	x3, x5
     2b8:	540003e1 	b.ne	334 <memcmp+0xb4>  // b.any
     2bc:	f1004042 	subs	x2, x2, #0x10
     2c0:	54000289 	b.ls	310 <memcmp+0x90>  // b.plast
     2c4:	f101805f 	cmp	x2, #0x60
     2c8:	540000c9 	b.ls	2e0 <memcmp+0x60>  // b.plast
     2cc:	92400c07 	and	x7, x0, #0xf
     2d0:	8b070042 	add	x2, x2, x7
     2d4:	cb070000 	sub	x0, x0, x7
     2d8:	cb070021 	sub	x1, x1, x7
     2dc:	d503201f 	nop
     2e0:	a8c11003 	ldp	x3, x4, [x0], #16
     2e4:	a8c11825 	ldp	x5, x6, [x1], #16
     2e8:	f1004042 	subs	x2, x2, #0x10
     2ec:	fa458060 	ccmp	x3, x5, #0x0, hi	// hi = pmore
     2f0:	fa460080 	ccmp	x4, x6, #0x0, eq	// eq = none
     2f4:	54ffff60 	b.eq	2e0 <memcmp+0x60>  // b.none
     2f8:	eb05007f 	cmp	x3, x5
     2fc:	540001c1 	b.ne	334 <memcmp+0xb4>  // b.any
     300:	aa0403e3 	mov	x3, x4
     304:	aa0603e5 	mov	x5, x6
     308:	eb05007f 	cmp	x3, x5
     30c:	54000141 	b.ne	334 <memcmp+0xb4>  // b.any
     310:	8b020000 	add	x0, x0, x2
     314:	8b020021 	add	x1, x1, x2
     318:	a9401003 	ldp	x3, x4, [x0]
     31c:	a9401825 	ldp	x5, x6, [x1]
     320:	eb05007f 	cmp	x3, x5
     324:	54000081 	b.ne	334 <memcmp+0xb4>  // b.any
     328:	aa0403e3 	mov	x3, x4
     32c:	aa0603e5 	mov	x5, x6
     330:	eb05007f 	cmp	x3, x5
     334:	dac00c63 	rev	x3, x3
     338:	dac00ca5 	rev	x5, x5
     33c:	eb05007f 	cmp	x3, x5
     340:	1a9f07e0 	cset	w0, ne	// ne = any
     344:	5a802400 	cneg	w0, w0, cc	// cc = lo, ul, last
     348:	d65f03c0 	ret
     34c:	d503201f 	nop
     350:	b1001042 	adds	x2, x2, #0x4
     354:	540000c3 	b.cc	36c <memcmp+0xec>  // b.lo, b.ul, b.last
     358:	b8404403 	ldr	w3, [x0], #4
     35c:	b8404425 	ldr	w5, [x1], #4
     360:	6b05007f 	cmp	w3, w5
     364:	54fffe81 	b.ne	334 <memcmp+0xb4>  // b.any
     368:	d1001042 	sub	x2, x2, #0x4
     36c:	b1001042 	adds	x2, x2, #0x4
     370:	54fffe80 	b.eq	340 <memcmp+0xc0>  // b.none
     374:	38401403 	ldrb	w3, [x0], #1
     378:	38401425 	ldrb	w5, [x1], #1
     37c:	f1000442 	subs	x2, x2, #0x1
     380:	7a451060 	ccmp	w3, w5, #0x0, ne	// ne = any
     384:	54ffff80 	b.eq	374 <memcmp+0xf4>  // b.none
     388:	4b050060 	sub	w0, w3, w5
     38c:	d65f03c0 	ret
	...

00000000000003c0 <memset>:
memset():
     3c0:	4e010c20 	dup	v0.16b, w1
     3c4:	8b020004 	add	x4, x0, x2
     3c8:	f101805f 	cmp	x2, #0x60
     3cc:	540003c8 	b.hi	444 <memset+0x84>  // b.pmore
     3d0:	f100405f 	cmp	x2, #0x10
     3d4:	54000202 	b.cs	414 <memset+0x54>  // b.hs, b.nlast
     3d8:	4e083c01 	mov	x1, v0.d[0]
     3dc:	361800a2 	tbz	w2, #3, 3f0 <memset+0x30>
     3e0:	f9000001 	str	x1, [x0]
     3e4:	f81f8081 	stur	x1, [x4, #-8]
     3e8:	d65f03c0 	ret
     3ec:	d503201f 	nop
     3f0:	36100082 	tbz	w2, #2, 400 <memset+0x40>
     3f4:	b9000001 	str	w1, [x0]
     3f8:	b81fc081 	stur	w1, [x4, #-4]
     3fc:	d65f03c0 	ret
     400:	b4000082 	cbz	x2, 410 <memset+0x50>
     404:	39000001 	strb	w1, [x0]
     408:	36080042 	tbz	w2, #1, 410 <memset+0x50>
     40c:	781fe081 	sturh	w1, [x4, #-2]
     410:	d65f03c0 	ret
     414:	3d800000 	str	q0, [x0]
     418:	373000c2 	tbnz	w2, #6, 430 <memset+0x70>
     41c:	3c9f0080 	stur	q0, [x4, #-16]
     420:	36280062 	tbz	w2, #5, 42c <memset+0x6c>
     424:	3d800400 	str	q0, [x0, #16]
     428:	3c9e0080 	stur	q0, [x4, #-32]
     42c:	d65f03c0 	ret
     430:	3d800400 	str	q0, [x0, #16]
     434:	ad010000 	stp	q0, q0, [x0, #32]
     438:	ad3f0080 	stp	q0, q0, [x4, #-32]
     43c:	d65f03c0 	ret
     440:	d503201f 	nop
     444:	12001c21 	and	w1, w1, #0xff
     448:	927cec03 	and	x3, x0, #0xfffffffffffffff0
     44c:	3d800000 	str	q0, [x0]
     450:	f104005f 	cmp	x2, #0x100
     454:	7a402820 	ccmp	w1, #0x0, #0x0, cs	// cs = hs, nlast
     458:	54000180 	b.eq	488 <memset+0xc8>  // b.none
     45c:	cb030082 	sub	x2, x4, x3
     460:	d1004063 	sub	x3, x3, #0x10
     464:	d1014042 	sub	x2, x2, #0x50
     468:	ad010060 	stp	q0, q0, [x3, #32]
     46c:	ad820060 	stp	q0, q0, [x3, #64]!
     470:	f1010042 	subs	x2, x2, #0x40
     474:	54ffffa8 	b.hi	468 <memset+0xa8>  // b.pmore
     478:	ad3e0080 	stp	q0, q0, [x4, #-64]
     47c:	ad3f0080 	stp	q0, q0, [x4, #-32]
     480:	d65f03c0 	ret
     484:	d503201f 	nop
     488:	d53b00e5 	mrs	x5, dczid_el0
     48c:	3727fe85 	tbnz	w5, #4, 45c <memset+0x9c>
     490:	12000ca5 	and	w5, w5, #0xf
     494:	710010bf 	cmp	w5, #0x4
     498:	54000281 	b.ne	4e8 <memset+0x128>  // b.any
     49c:	3d800460 	str	q0, [x3, #16]
     4a0:	ad010060 	stp	q0, q0, [x3, #32]
     4a4:	927ae463 	and	x3, x3, #0xffffffffffffffc0
     4a8:	ad020060 	stp	q0, q0, [x3, #64]
     4ac:	ad030060 	stp	q0, q0, [x3, #96]
     4b0:	cb030082 	sub	x2, x4, x3
     4b4:	d1040042 	sub	x2, x2, #0x100
     4b8:	91020063 	add	x3, x3, #0x80
     4bc:	d503201f 	nop
     4c0:	d50b7423 	dc	zva, x3
     4c4:	91010063 	add	x3, x3, #0x40
     4c8:	f1010042 	subs	x2, x2, #0x40
     4cc:	54ffffa8 	b.hi	4c0 <memset+0x100>  // b.pmore
     4d0:	ad000060 	stp	q0, q0, [x3]
     4d4:	ad010060 	stp	q0, q0, [x3, #32]
     4d8:	ad3e0080 	stp	q0, q0, [x4, #-64]
     4dc:	ad3f0080 	stp	q0, q0, [x4, #-32]
     4e0:	d65f03c0 	ret
     4e4:	d503201f 	nop
     4e8:	710014bf 	cmp	w5, #0x5
     4ec:	54000241 	b.ne	534 <memset+0x174>  // b.any
     4f0:	3d800460 	str	q0, [x3, #16]
     4f4:	ad010060 	stp	q0, q0, [x3, #32]
     4f8:	ad020060 	stp	q0, q0, [x3, #64]
     4fc:	ad030060 	stp	q0, q0, [x3, #96]
     500:	9279e063 	and	x3, x3, #0xffffffffffffff80
     504:	cb030082 	sub	x2, x4, x3
     508:	d1040042 	sub	x2, x2, #0x100
     50c:	91020063 	add	x3, x3, #0x80
     510:	d50b7423 	dc	zva, x3
     514:	91020063 	add	x3, x3, #0x80
     518:	f1020042 	subs	x2, x2, #0x80
     51c:	54ffffa8 	b.hi	510 <memset+0x150>  // b.pmore
     520:	ad3c0080 	stp	q0, q0, [x4, #-128]
     524:	ad3d0080 	stp	q0, q0, [x4, #-96]
     528:	ad3e0080 	stp	q0, q0, [x4, #-64]
     52c:	ad3f0080 	stp	q0, q0, [x4, #-32]
     530:	d65f03c0 	ret
     534:	52800086 	mov	w6, #0x4                   	// #4
     538:	1ac520c7 	lsl	w7, w6, w5
     53c:	910100e5 	add	x5, x7, #0x40
     540:	eb05005f 	cmp	x2, x5
     544:	54fff8c3 	b.cc	45c <memset+0x9c>  // b.lo, b.ul, b.last
     548:	d10004e6 	sub	x6, x7, #0x1
     54c:	8b070065 	add	x5, x3, x7
     550:	91004063 	add	x3, x3, #0x10
     554:	eb0300a2 	subs	x2, x5, x3
     558:	8a2600a5 	bic	x5, x5, x6
     55c:	540000a0 	b.eq	570 <memset+0x1b0>  // b.none
     560:	ac820060 	stp	q0, q0, [x3], #64
     564:	ad3f0060 	stp	q0, q0, [x3, #-32]
     568:	f1010042 	subs	x2, x2, #0x40
     56c:	54ffffa8 	b.hi	560 <memset+0x1a0>  // b.pmore
     570:	aa0503e3 	mov	x3, x5
     574:	cb050082 	sub	x2, x4, x5
     578:	eb070042 	subs	x2, x2, x7
     57c:	540000a3 	b.cc	590 <memset+0x1d0>  // b.lo, b.ul, b.last
     580:	d50b7423 	dc	zva, x3
     584:	8b070063 	add	x3, x3, x7
     588:	eb070042 	subs	x2, x2, x7
     58c:	54ffffa2 	b.cs	580 <memset+0x1c0>  // b.hs, b.nlast
     590:	8b070042 	add	x2, x2, x7
     594:	d1008063 	sub	x3, x3, #0x20
     598:	17ffffb6 	b	470 <memset+0xb0>

000000000000059c <strchr>:
strchr():
     59c:	52808024 	mov	w4, #0x401                 	// #1025
     5a0:	72a80204 	movk	w4, #0x4010, lsl #16
     5a4:	4e010c20 	dup	v0.16b, w1
     5a8:	927be802 	and	x2, x0, #0xffffffffffffffe0
     5ac:	4e040c90 	dup	v16.4s, w4
     5b0:	f2401003 	ands	x3, x0, #0x1f
     5b4:	4eb08607 	add	v7.4s, v16.4s, v16.4s
     5b8:	540002a0 	b.eq	60c <strchr+0x70>  // b.none
     5bc:	4cdfa041 	ld1	{v1.16b-v2.16b}, [x2], #32
     5c0:	cb0303e3 	neg	x3, x3
     5c4:	4e209823 	cmeq	v3.16b, v1.16b, #0
     5c8:	6e208c25 	cmeq	v5.16b, v1.16b, v0.16b
     5cc:	4e209844 	cmeq	v4.16b, v2.16b, #0
     5d0:	6e208c46 	cmeq	v6.16b, v2.16b, v0.16b
     5d4:	4e271c63 	and	v3.16b, v3.16b, v7.16b
     5d8:	4e271c84 	and	v4.16b, v4.16b, v7.16b
     5dc:	4e301ca5 	and	v5.16b, v5.16b, v16.16b
     5e0:	4e301cc6 	and	v6.16b, v6.16b, v16.16b
     5e4:	4ea51c71 	orr	v17.16b, v3.16b, v5.16b
     5e8:	4ea61c92 	orr	v18.16b, v4.16b, v6.16b
     5ec:	d37ff863 	lsl	x3, x3, #1
     5f0:	4e32be31 	addp	v17.16b, v17.16b, v18.16b
     5f4:	92800005 	mov	x5, #0xffffffffffffffff    	// #-1
     5f8:	4e32be31 	addp	v17.16b, v17.16b, v18.16b
     5fc:	9ac324a3 	lsr	x3, x5, x3
     600:	4e083e25 	mov	x5, v17.d[0]
     604:	8a2300a3 	bic	x3, x5, x3
     608:	b50002a3 	cbnz	x3, 65c <strchr+0xc0>
     60c:	4cdfa041 	ld1	{v1.16b-v2.16b}, [x2], #32
     610:	4e209823 	cmeq	v3.16b, v1.16b, #0
     614:	6e208c25 	cmeq	v5.16b, v1.16b, v0.16b
     618:	4e209844 	cmeq	v4.16b, v2.16b, #0
     61c:	6e208c46 	cmeq	v6.16b, v2.16b, v0.16b
     620:	4ea51c71 	orr	v17.16b, v3.16b, v5.16b
     624:	4ea61c92 	orr	v18.16b, v4.16b, v6.16b
     628:	4eb21e31 	orr	v17.16b, v17.16b, v18.16b
     62c:	4ef1be31 	addp	v17.2d, v17.2d, v17.2d
     630:	4e083e23 	mov	x3, v17.d[0]
     634:	b4fffec3 	cbz	x3, 60c <strchr+0x70>
     638:	4e271c63 	and	v3.16b, v3.16b, v7.16b
     63c:	4e271c84 	and	v4.16b, v4.16b, v7.16b
     640:	4e301ca5 	and	v5.16b, v5.16b, v16.16b
     644:	4e301cc6 	and	v6.16b, v6.16b, v16.16b
     648:	4ea51c71 	orr	v17.16b, v3.16b, v5.16b
     64c:	4ea61c92 	orr	v18.16b, v4.16b, v6.16b
     650:	4e32be31 	addp	v17.16b, v17.16b, v18.16b
     654:	4e32be31 	addp	v17.16b, v17.16b, v18.16b
     658:	4e083e23 	mov	x3, v17.d[0]
     65c:	dac00063 	rbit	x3, x3
     660:	d1008042 	sub	x2, x2, #0x20
     664:	dac01063 	clz	x3, x3
     668:	f240007f 	tst	x3, #0x1
     66c:	8b430440 	add	x0, x2, x3, lsr #1
     670:	9a9f0000 	csel	x0, x0, xzr, eq	// eq = none
     674:	d65f03c0 	ret
	...

0000000000000680 <strcmp>:
strcmp():
     680:	ca010007 	eor	x7, x0, x1
     684:	b200c3ea 	mov	x10, #0x101010101010101     	// #72340172838076673
     688:	f24008ff 	tst	x7, #0x7
     68c:	540003e1 	b.ne	708 <strcmp+0x88>  // b.any
     690:	f2400807 	ands	x7, x0, #0x7
     694:	54000241 	b.ne	6dc <strcmp+0x5c>  // b.any
     698:	f8408402 	ldr	x2, [x0], #8
     69c:	f8408423 	ldr	x3, [x1], #8
     6a0:	cb0a0047 	sub	x7, x2, x10
     6a4:	b200d848 	orr	x8, x2, #0x7f7f7f7f7f7f7f7f
     6a8:	ca030045 	eor	x5, x2, x3
     6ac:	8a2800e4 	bic	x4, x7, x8
     6b0:	aa0400a6 	orr	x6, x5, x4
     6b4:	b4ffff26 	cbz	x6, 698 <strcmp+0x18>
     6b8:	dac00cc6 	rev	x6, x6
     6bc:	dac00c42 	rev	x2, x2
     6c0:	dac010cb 	clz	x11, x6
     6c4:	dac00c63 	rev	x3, x3
     6c8:	9acb2042 	lsl	x2, x2, x11
     6cc:	9acb2063 	lsl	x3, x3, x11
     6d0:	d378fc42 	lsr	x2, x2, #56
     6d4:	cb43e040 	sub	x0, x2, x3, lsr #56
     6d8:	d65f03c0 	ret
     6dc:	927df000 	and	x0, x0, #0xfffffffffffffff8
     6e0:	927df021 	and	x1, x1, #0xfffffffffffffff8
     6e4:	d37df0e7 	lsl	x7, x7, #3
     6e8:	f8408402 	ldr	x2, [x0], #8
     6ec:	cb0703e7 	neg	x7, x7
     6f0:	f8408423 	ldr	x3, [x1], #8
     6f4:	92800008 	mov	x8, #0xffffffffffffffff    	// #-1
     6f8:	9ac72508 	lsr	x8, x8, x7
     6fc:	aa080042 	orr	x2, x2, x8
     700:	aa080063 	orr	x3, x3, x8
     704:	17ffffe7 	b	6a0 <strcmp+0x20>
     708:	f240081f 	tst	x0, #0x7
     70c:	54000100 	b.eq	72c <strcmp+0xac>  // b.none
     710:	38401402 	ldrb	w2, [x0], #1
     714:	38401423 	ldrb	w3, [x1], #1
     718:	7100045f 	cmp	w2, #0x1
     71c:	7a432040 	ccmp	w2, w3, #0x0, cs	// cs = hs, nlast
     720:	540001e1 	b.ne	75c <strcmp+0xdc>  // b.any
     724:	f240081f 	tst	x0, #0x7
     728:	54ffff41 	b.ne	710 <strcmp+0x90>  // b.any
     72c:	927d2027 	and	x7, x1, #0xff8
     730:	d27d20e7 	eor	x7, x7, #0xff8
     734:	b4fffee7 	cbz	x7, 710 <strcmp+0x90>
     738:	f8408402 	ldr	x2, [x0], #8
     73c:	f8408423 	ldr	x3, [x1], #8
     740:	cb0a0047 	sub	x7, x2, x10
     744:	b200d848 	orr	x8, x2, #0x7f7f7f7f7f7f7f7f
     748:	ca030045 	eor	x5, x2, x3
     74c:	8a2800e4 	bic	x4, x7, x8
     750:	aa0400a6 	orr	x6, x5, x4
     754:	b4fffec6 	cbz	x6, 72c <strcmp+0xac>
     758:	17ffffd8 	b	6b8 <strcmp+0x38>
     75c:	cb030040 	sub	x0, x2, x3
     760:	d65f03c0 	ret
	...

0000000000000780 <strcpy>:
strcpy():
     780:	92402c29 	and	x9, x1, #0xfff
     784:	b200c3ec 	mov	x12, #0x101010101010101     	// #72340172838076673
     788:	92400c31 	and	x17, x1, #0xf
     78c:	f13fc13f 	cmp	x9, #0xff0
     790:	cb1103e8 	neg	x8, x17
     794:	540008cc 	b.gt	8ac <strcpy+0x12c>
     798:	a9401424 	ldp	x4, x5, [x1]
     79c:	cb0c0088 	sub	x8, x4, x12
     7a0:	b200d889 	orr	x9, x4, #0x7f7f7f7f7f7f7f7f
     7a4:	ea290106 	bics	x6, x8, x9
     7a8:	540001c1 	b.ne	7e0 <strcpy+0x60>  // b.any
     7ac:	cb0c00aa 	sub	x10, x5, x12
     7b0:	b200d8ab 	orr	x11, x5, #0x7f7f7f7f7f7f7f7f
     7b4:	ea2b0147 	bics	x7, x10, x11
     7b8:	54000440 	b.eq	840 <strcpy+0xc0>  // b.none
     7bc:	dac00ce7 	rev	x7, x7
     7c0:	dac010ef 	clz	x15, x7
     7c4:	d2800709 	mov	x9, #0x38                  	// #56
     7c8:	8b4f0c03 	add	x3, x0, x15, lsr #3
     7cc:	cb0f012f 	sub	x15, x9, x15
     7d0:	9acf20a5 	lsl	x5, x5, x15
     7d4:	f8001065 	stur	x5, [x3, #1]
     7d8:	f9000004 	str	x4, [x0]
     7dc:	d65f03c0 	ret
     7e0:	dac00cc6 	rev	x6, x6
     7e4:	dac010cf 	clz	x15, x6
     7e8:	8b4f0c03 	add	x3, x0, x15, lsr #3
     7ec:	f10061e9 	subs	x9, x15, #0x18
     7f0:	540000ab 	b.lt	804 <strcpy+0x84>  // b.tstop
     7f4:	9ac92485 	lsr	x5, x4, x9
     7f8:	b81fd065 	stur	w5, [x3, #-3]
     7fc:	b9000004 	str	w4, [x0]
     800:	d65f03c0 	ret
     804:	b400004f 	cbz	x15, 80c <strcpy+0x8c>
     808:	79000004 	strh	w4, [x0]
     80c:	3900007f 	strb	wzr, [x3]
     810:	d65f03c0 	ret
     814:	d503201f 	nop
     818:	d503201f 	nop
     81c:	d503201f 	nop
     820:	d503201f 	nop
     824:	d503201f 	nop
     828:	d503201f 	nop
     82c:	d503201f 	nop
     830:	d503201f 	nop
     834:	d503201f 	nop
     838:	d503201f 	nop
     83c:	d503201f 	nop
     840:	d1004231 	sub	x17, x17, #0x10
     844:	a9001404 	stp	x4, x5, [x0]
     848:	cb110022 	sub	x2, x1, x17
     84c:	cb110003 	sub	x3, x0, x17
     850:	14000002 	b	858 <strcpy+0xd8>
     854:	a8811464 	stp	x4, x5, [x3], #16
     858:	a8c11444 	ldp	x4, x5, [x2], #16
     85c:	cb0c0088 	sub	x8, x4, x12
     860:	b200d889 	orr	x9, x4, #0x7f7f7f7f7f7f7f7f
     864:	cb0c00aa 	sub	x10, x5, x12
     868:	b200d8ab 	orr	x11, x5, #0x7f7f7f7f7f7f7f7f
     86c:	8a290106 	bic	x6, x8, x9
     870:	ea2b0147 	bics	x7, x10, x11
     874:	fa4008c0 	ccmp	x6, #0x0, #0x0, eq	// eq = none
     878:	54fffee0 	b.eq	854 <strcpy+0xd4>  // b.none
     87c:	f10000df 	cmp	x6, #0x0
     880:	9a8710c6 	csel	x6, x6, x7, ne	// ne = any
     884:	dac00cc6 	rev	x6, x6
     888:	dac010cf 	clz	x15, x6
     88c:	910121e8 	add	x8, x15, #0x48
     890:	910021ef 	add	x15, x15, #0x8
     894:	9a8811ef 	csel	x15, x15, x8, ne	// ne = any
     898:	8b4f0c42 	add	x2, x2, x15, lsr #3
     89c:	8b4f0c63 	add	x3, x3, x15, lsr #3
     8a0:	a97e1444 	ldp	x4, x5, [x2, #-32]
     8a4:	a93f1464 	stp	x4, x5, [x3, #-16]
     8a8:	d65f03c0 	ret
     8ac:	927cec22 	and	x2, x1, #0xfffffffffffffff0
     8b0:	a9401444 	ldp	x4, x5, [x2]
     8b4:	d37df108 	lsl	x8, x8, #3
     8b8:	f2400a3f 	tst	x17, #0x7
     8bc:	da9f03e9 	csetm	x9, ne	// ne = any
     8c0:	9ac82529 	lsr	x9, x9, x8
     8c4:	aa090084 	orr	x4, x4, x9
     8c8:	aa0900ae 	orr	x14, x5, x9
     8cc:	f100223f 	cmp	x17, #0x8
     8d0:	da9fb084 	csinv	x4, x4, xzr, lt	// lt = tstop
     8d4:	9a8eb0a5 	csel	x5, x5, x14, lt	// lt = tstop
     8d8:	cb0c0088 	sub	x8, x4, x12
     8dc:	b200d889 	orr	x9, x4, #0x7f7f7f7f7f7f7f7f
     8e0:	cb0c00aa 	sub	x10, x5, x12
     8e4:	b200d8ab 	orr	x11, x5, #0x7f7f7f7f7f7f7f7f
     8e8:	8a290106 	bic	x6, x8, x9
     8ec:	ea2b0147 	bics	x7, x10, x11
     8f0:	fa4008c0 	ccmp	x6, #0x0, #0x0, eq	// eq = none
     8f4:	54fff520 	b.eq	798 <strcpy+0x18>  // b.none
     8f8:	d37df228 	lsl	x8, x17, #3
     8fc:	cb110fe9 	neg	x9, x17, lsl #3
     900:	9ac8248d 	lsr	x13, x4, x8
     904:	9ac920ab 	lsl	x11, x5, x9
     908:	9ac824a5 	lsr	x5, x5, x8
     90c:	aa0d016b 	orr	x11, x11, x13
     910:	f100223f 	cmp	x17, #0x8
     914:	9a85b164 	csel	x4, x11, x5, lt	// lt = tstop
     918:	cb0c0088 	sub	x8, x4, x12
     91c:	b200d889 	orr	x9, x4, #0x7f7f7f7f7f7f7f7f
     920:	cb0c00aa 	sub	x10, x5, x12
     924:	b200d8ab 	orr	x11, x5, #0x7f7f7f7f7f7f7f7f
     928:	8a290106 	bic	x6, x8, x9
     92c:	b5fff5a6 	cbnz	x6, 7e0 <strcpy+0x60>
     930:	8a2b0147 	bic	x7, x10, x11
     934:	17ffffa2 	b	7bc <strcpy+0x3c>
	...

0000000000000940 <strlen>:
strlen():
     940:	92402c04 	and	x4, x0, #0xfff
     944:	b200c3e8 	mov	x8, #0x101010101010101     	// #72340172838076673
     948:	f13fc09f 	cmp	x4, #0xff0
     94c:	5400082c 	b.gt	a50 <strlen+0x110>
     950:	a9400c02 	ldp	x2, x3, [x0]
     954:	cb080044 	sub	x4, x2, x8
     958:	b200d845 	orr	x5, x2, #0x7f7f7f7f7f7f7f7f
     95c:	cb080066 	sub	x6, x3, x8
     960:	b200d867 	orr	x7, x3, #0x7f7f7f7f7f7f7f7f
     964:	ea250084 	bics	x4, x4, x5
     968:	8a2700c5 	bic	x5, x6, x7
     96c:	fa4008a0 	ccmp	x5, #0x0, #0x0, eq	// eq = none
     970:	54000100 	b.eq	990 <strlen+0x50>  // b.none
     974:	9a853084 	csel	x4, x4, x5, cc	// cc = lo, ul, last
     978:	d2800100 	mov	x0, #0x8                   	// #8
     97c:	dac00c84 	rev	x4, x4
     980:	dac01084 	clz	x4, x4
     984:	9a8033e0 	csel	x0, xzr, x0, cc	// cc = lo, ul, last
     988:	8b440c00 	add	x0, x0, x4, lsr #3
     98c:	d65f03c0 	ret
     990:	927cec01 	and	x1, x0, #0xfffffffffffffff0
     994:	d1004021 	sub	x1, x1, #0x10
     998:	a9c20c22 	ldp	x2, x3, [x1, #32]!
     99c:	cb080044 	sub	x4, x2, x8
     9a0:	cb080066 	sub	x6, x3, x8
     9a4:	aa060085 	orr	x5, x4, x6
     9a8:	ea081cbf 	tst	x5, x8, lsl #7
     9ac:	54000101 	b.ne	9cc <strlen+0x8c>  // b.any
     9b0:	a9410c22 	ldp	x2, x3, [x1, #16]
     9b4:	cb080044 	sub	x4, x2, x8
     9b8:	cb080066 	sub	x6, x3, x8
     9bc:	aa060085 	orr	x5, x4, x6
     9c0:	ea081cbf 	tst	x5, x8, lsl #7
     9c4:	54fffea0 	b.eq	998 <strlen+0x58>  // b.none
     9c8:	91004021 	add	x1, x1, #0x10
     9cc:	b200d845 	orr	x5, x2, #0x7f7f7f7f7f7f7f7f
     9d0:	b200d867 	orr	x7, x3, #0x7f7f7f7f7f7f7f7f
     9d4:	ea250084 	bics	x4, x4, x5
     9d8:	8a2700c5 	bic	x5, x6, x7
     9dc:	fa4008a0 	ccmp	x5, #0x0, #0x0, eq	// eq = none
     9e0:	54000120 	b.eq	a04 <strlen+0xc4>  // b.none
     9e4:	9a853084 	csel	x4, x4, x5, cc	// cc = lo, ul, last
     9e8:	cb000020 	sub	x0, x1, x0
     9ec:	dac00c84 	rev	x4, x4
     9f0:	91002005 	add	x5, x0, #0x8
     9f4:	dac01084 	clz	x4, x4
     9f8:	9a853000 	csel	x0, x0, x5, cc	// cc = lo, ul, last
     9fc:	8b440c00 	add	x0, x0, x4, lsr #3
     a00:	d65f03c0 	ret
     a04:	a9c10c22 	ldp	x2, x3, [x1, #16]!
     a08:	cb080044 	sub	x4, x2, x8
     a0c:	b200d845 	orr	x5, x2, #0x7f7f7f7f7f7f7f7f
     a10:	cb080066 	sub	x6, x3, x8
     a14:	b200d867 	orr	x7, x3, #0x7f7f7f7f7f7f7f7f
     a18:	ea250084 	bics	x4, x4, x5
     a1c:	8a2700c5 	bic	x5, x6, x7
     a20:	fa4008a0 	ccmp	x5, #0x0, #0x0, eq	// eq = none
     a24:	54fffe01 	b.ne	9e4 <strlen+0xa4>  // b.any
     a28:	a9c10c22 	ldp	x2, x3, [x1, #16]!
     a2c:	cb080044 	sub	x4, x2, x8
     a30:	b200d845 	orr	x5, x2, #0x7f7f7f7f7f7f7f7f
     a34:	cb080066 	sub	x6, x3, x8
     a38:	b200d867 	orr	x7, x3, #0x7f7f7f7f7f7f7f7f
     a3c:	ea250084 	bics	x4, x4, x5
     a40:	8a2700c5 	bic	x5, x6, x7
     a44:	fa4008a0 	ccmp	x5, #0x0, #0x0, eq	// eq = none
     a48:	54fffde0 	b.eq	a04 <strlen+0xc4>  // b.none
     a4c:	17ffffe6 	b	9e4 <strlen+0xa4>
     a50:	927cec01 	and	x1, x0, #0xfffffffffffffff0
     a54:	a9400c22 	ldp	x2, x3, [x1]
     a58:	d37df004 	lsl	x4, x0, #3
     a5c:	92800007 	mov	x7, #0xffffffffffffffff    	// #-1
     a60:	9ac420e4 	lsl	x4, x7, x4
     a64:	b201c084 	orr	x4, x4, #0x8080808080808080
     a68:	aa240042 	orn	x2, x2, x4
     a6c:	aa240065 	orn	x5, x3, x4
     a70:	f27d001f 	tst	x0, #0x8
     a74:	9a870042 	csel	x2, x2, x7, eq	// eq = none
     a78:	9a850063 	csel	x3, x3, x5, eq	// eq = none
     a7c:	17ffffc8 	b	99c <strlen+0x5c>
     a80:	d503201f 	nop
     a84:	d503201f 	nop
     a88:	d503201f 	nop
     a8c:	d503201f 	nop
     a90:	d503201f 	nop
     a94:	d503201f 	nop
     a98:	d503201f 	nop

0000000000000a9c <strncmp>:
strncmp():
     a9c:	b4000d82 	cbz	x2, c4c <strncmp+0x1b0>
     aa0:	ca010008 	eor	x8, x0, x1
     aa4:	b200c3eb 	mov	x11, #0x101010101010101     	// #72340172838076673
     aa8:	f240091f 	tst	x8, #0x7
     aac:	9240080e 	and	x14, x0, #0x7
     ab0:	54000681 	b.ne	b80 <strncmp+0xe4>  // b.any
     ab4:	b500040e 	cbnz	x14, b34 <strncmp+0x98>
     ab8:	d100044d 	sub	x13, x2, #0x1
     abc:	d343fdad 	lsr	x13, x13, #3
     ac0:	f8408403 	ldr	x3, [x0], #8
     ac4:	f8408424 	ldr	x4, [x1], #8
     ac8:	f10005ad 	subs	x13, x13, #0x1
     acc:	cb0b0068 	sub	x8, x3, x11
     ad0:	b200d869 	orr	x9, x3, #0x7f7f7f7f7f7f7f7f
     ad4:	ca040066 	eor	x6, x3, x4
     ad8:	da9f50cf 	csinv	x15, x6, xzr, pl	// pl = nfrst
     adc:	ea290105 	bics	x5, x8, x9
     ae0:	fa4009e0 	ccmp	x15, #0x0, #0x0, eq	// eq = none
     ae4:	54fffee0 	b.eq	ac0 <strncmp+0x24>  // b.none
     ae8:	b6f8012d 	tbz	x13, #63, b0c <strncmp+0x70>
     aec:	f2400842 	ands	x2, x2, #0x7
     af0:	540000e0 	b.eq	b0c <strncmp+0x70>  // b.none
     af4:	d37df042 	lsl	x2, x2, #3
     af8:	9280000e 	mov	x14, #0xffffffffffffffff    	// #-1
     afc:	9ac221ce 	lsl	x14, x14, x2
     b00:	8a2e0063 	bic	x3, x3, x14
     b04:	8a2e0084 	bic	x4, x4, x14
     b08:	aa0e00a5 	orr	x5, x5, x14
     b0c:	aa0500c7 	orr	x7, x6, x5
     b10:	dac00ce7 	rev	x7, x7
     b14:	dac00c63 	rev	x3, x3
     b18:	dac010ec 	clz	x12, x7
     b1c:	dac00c84 	rev	x4, x4
     b20:	9acc2063 	lsl	x3, x3, x12
     b24:	9acc2084 	lsl	x4, x4, x12
     b28:	d378fc63 	lsr	x3, x3, #56
     b2c:	cb44e060 	sub	x0, x3, x4, lsr #56
     b30:	d65f03c0 	ret
     b34:	927df000 	and	x0, x0, #0xfffffffffffffff8
     b38:	927df021 	and	x1, x1, #0xfffffffffffffff8
     b3c:	f8408403 	ldr	x3, [x0], #8
     b40:	cb0e0fea 	neg	x10, x14, lsl #3
     b44:	f8408424 	ldr	x4, [x1], #8
     b48:	92800009 	mov	x9, #0xffffffffffffffff    	// #-1
     b4c:	d100044d 	sub	x13, x2, #0x1
     b50:	9aca2529 	lsr	x9, x9, x10
     b54:	924009aa 	and	x10, x13, #0x7
     b58:	d343fdad 	lsr	x13, x13, #3
     b5c:	8b0e0042 	add	x2, x2, x14
     b60:	8b0e014a 	add	x10, x10, x14
     b64:	aa090063 	orr	x3, x3, x9
     b68:	aa090084 	orr	x4, x4, x9
     b6c:	8b4a0dad 	add	x13, x13, x10, lsr #3
     b70:	17ffffd6 	b	ac8 <strncmp+0x2c>
     b74:	d503201f 	nop
     b78:	d503201f 	nop
     b7c:	d503201f 	nop
     b80:	f100405f 	cmp	x2, #0x10
     b84:	54000122 	b.cs	ba8 <strncmp+0x10c>  // b.hs, b.nlast
     b88:	38401403 	ldrb	w3, [x0], #1
     b8c:	38401424 	ldrb	w4, [x1], #1
     b90:	f1000442 	subs	x2, x2, #0x1
     b94:	7a418860 	ccmp	w3, #0x1, #0x0, hi	// hi = pmore
     b98:	7a442060 	ccmp	w3, w4, #0x0, cs	// cs = hs, nlast
     b9c:	54ffff60 	b.eq	b88 <strncmp+0xec>  // b.none
     ba0:	cb040060 	sub	x0, x3, x4
     ba4:	d65f03c0 	ret
     ba8:	d343fc4d 	lsr	x13, x2, #3
     bac:	b400018e 	cbz	x14, bdc <strncmp+0x140>
     bb0:	cb0e03ee 	neg	x14, x14
     bb4:	924009ce 	and	x14, x14, #0x7
     bb8:	cb0e0042 	sub	x2, x2, x14
     bbc:	d343fc4d 	lsr	x13, x2, #3
     bc0:	38401403 	ldrb	w3, [x0], #1
     bc4:	38401424 	ldrb	w4, [x1], #1
     bc8:	7100047f 	cmp	w3, #0x1
     bcc:	7a442060 	ccmp	w3, w4, #0x0, cs	// cs = hs, nlast
     bd0:	54fffe81 	b.ne	ba0 <strncmp+0x104>  // b.any
     bd4:	f10005ce 	subs	x14, x14, #0x1
     bd8:	54ffff48 	b.hi	bc0 <strncmp+0x124>  // b.pmore
     bdc:	d280010e 	mov	x14, #0x8                   	// #8
     be0:	f10005ad 	subs	x13, x13, #0x1
     be4:	540001c3 	b.cc	c1c <strncmp+0x180>  // b.lo, b.ul, b.last
     be8:	927d2029 	and	x9, x1, #0xff8
     bec:	d27d2129 	eor	x9, x9, #0xff8
     bf0:	b4fffe89 	cbz	x9, bc0 <strncmp+0x124>
     bf4:	f8408403 	ldr	x3, [x0], #8
     bf8:	f8408424 	ldr	x4, [x1], #8
     bfc:	cb0b0068 	sub	x8, x3, x11
     c00:	b200d869 	orr	x9, x3, #0x7f7f7f7f7f7f7f7f
     c04:	ca040066 	eor	x6, x3, x4
     c08:	ea290105 	bics	x5, x8, x9
     c0c:	fa4008c0 	ccmp	x6, #0x0, #0x0, eq	// eq = none
     c10:	54fff7e1 	b.ne	b0c <strncmp+0x70>  // b.any
     c14:	f10005ad 	subs	x13, x13, #0x1
     c18:	54fffe85 	b.pl	be8 <strncmp+0x14c>  // b.nfrst
     c1c:	92400842 	and	x2, x2, #0x7
     c20:	b4fff762 	cbz	x2, b0c <strncmp+0x70>
     c24:	d1002000 	sub	x0, x0, #0x8
     c28:	d1002021 	sub	x1, x1, #0x8
     c2c:	f8626803 	ldr	x3, [x0, x2]
     c30:	f8626824 	ldr	x4, [x1, x2]
     c34:	cb0b0068 	sub	x8, x3, x11
     c38:	b200d869 	orr	x9, x3, #0x7f7f7f7f7f7f7f7f
     c3c:	ca040066 	eor	x6, x3, x4
     c40:	ea290105 	bics	x5, x8, x9
     c44:	fa4008c0 	ccmp	x6, #0x0, #0x0, eq	// eq = none
     c48:	54fff621 	b.ne	b0c <strncmp+0x70>  // b.any
     c4c:	d2800000 	mov	x0, #0x0                   	// #0
     c50:	d65f03c0 	ret

0000000000000c54 <strrchr>:
strrchr():
     c54:	52808024 	mov	w4, #0x401                 	// #1025
     c58:	72a80204 	movk	w4, #0x4010, lsl #16
     c5c:	4e010c20 	dup	v0.16b, w1
     c60:	927be802 	and	x2, x0, #0xffffffffffffffe0
     c64:	4e040c90 	dup	v16.4s, w4
     c68:	d2800007 	mov	x7, #0x0                   	// #0
     c6c:	f2401003 	ands	x3, x0, #0x1f
     c70:	4eb08607 	add	v7.4s, v16.4s, v16.4s
     c74:	54000340 	b.eq	cdc <strrchr+0x88>  // b.none
     c78:	4cdfa041 	ld1	{v1.16b-v2.16b}, [x2], #32
     c7c:	cb0303e3 	neg	x3, x3
     c80:	4e209823 	cmeq	v3.16b, v1.16b, #0
     c84:	6e208c25 	cmeq	v5.16b, v1.16b, v0.16b
     c88:	4e209844 	cmeq	v4.16b, v2.16b, #0
     c8c:	6e208c46 	cmeq	v6.16b, v2.16b, v0.16b
     c90:	4e271c63 	and	v3.16b, v3.16b, v7.16b
     c94:	4e301ca5 	and	v5.16b, v5.16b, v16.16b
     c98:	4e271c84 	and	v4.16b, v4.16b, v7.16b
     c9c:	4e301cc6 	and	v6.16b, v6.16b, v16.16b
     ca0:	4e24bc63 	addp	v3.16b, v3.16b, v4.16b
     ca4:	4e26bca5 	addp	v5.16b, v5.16b, v6.16b
     ca8:	4e23bc63 	addp	v3.16b, v3.16b, v3.16b
     cac:	4e25bca5 	addp	v5.16b, v5.16b, v5.16b
     cb0:	4e083c6a 	mov	x10, v3.d[0]
     cb4:	d37ff863 	lsl	x3, x3, #1
     cb8:	92800008 	mov	x8, #0xffffffffffffffff    	// #-1
     cbc:	4e083cab 	mov	x11, v5.d[0]
     cc0:	9ac32505 	lsr	x5, x8, x3
     cc4:	8a25014a 	bic	x10, x10, x5
     cc8:	8a25016b 	bic	x11, x11, x5
     ccc:	b50002ea 	cbnz	x10, d28 <strrchr+0xd4>
     cd0:	f100017f 	cmp	x11, #0x0
     cd4:	9a861046 	csel	x6, x2, x6, ne	// ne = any
     cd8:	9a871167 	csel	x7, x11, x7, ne	// ne = any
     cdc:	4cdfa041 	ld1	{v1.16b-v2.16b}, [x2], #32
     ce0:	4e209823 	cmeq	v3.16b, v1.16b, #0
     ce4:	6e208c25 	cmeq	v5.16b, v1.16b, v0.16b
     ce8:	4e209844 	cmeq	v4.16b, v2.16b, #0
     cec:	6e208c46 	cmeq	v6.16b, v2.16b, v0.16b
     cf0:	4e24bc71 	addp	v17.16b, v3.16b, v4.16b
     cf4:	4e301ca5 	and	v5.16b, v5.16b, v16.16b
     cf8:	4e301cc6 	and	v6.16b, v6.16b, v16.16b
     cfc:	4e26bca5 	addp	v5.16b, v5.16b, v6.16b
     d00:	4e31be31 	addp	v17.16b, v17.16b, v17.16b
     d04:	4e25bca5 	addp	v5.16b, v5.16b, v5.16b
     d08:	4e083e2a 	mov	x10, v17.d[0]
     d0c:	4e083cab 	mov	x11, v5.d[0]
     d10:	b4fffe0a 	cbz	x10, cd0 <strrchr+0x7c>
     d14:	4e271c63 	and	v3.16b, v3.16b, v7.16b
     d18:	4e271c84 	and	v4.16b, v4.16b, v7.16b
     d1c:	4e24bc63 	addp	v3.16b, v3.16b, v4.16b
     d20:	4e23bc63 	addp	v3.16b, v3.16b, v3.16b
     d24:	4e083c6a 	mov	x10, v3.d[0]
     d28:	d1000549 	sub	x9, x10, #0x1
     d2c:	ca0a0129 	eor	x9, x9, x10
     d30:	ea09016b 	ands	x11, x11, x9
     d34:	9a861046 	csel	x6, x2, x6, ne	// ne = any
     d38:	9a871167 	csel	x7, x11, x7, ne	// ne = any
     d3c:	dac010e5 	clz	x5, x7
     d40:	910008a5 	add	x5, x5, #0x2
     d44:	cb4504c0 	sub	x0, x6, x5, lsr #1
     d48:	f10000ff 	cmp	x7, #0x0
     d4c:	9a9f1000 	csel	x0, x0, xzr, ne	// ne = any
     d50:	d65f03c0 	ret
	...

0000000000000d60 <__aarch64_cas4_acq_rel>:
__aarch64_cas4_acq_rel():
     d60:	90000010 	adrp	x16, 810 <strcpy+0x90>	d60: R_AARCH64_ADR_PREL_PG_HI21	__aarch64_have_lse_atomics
     d64:	39400210 	ldrb	w16, [x16]	d64: R_AARCH64_LDST8_ABS_LO12_NC	__aarch64_have_lse_atomics
     d68:	34000070 	cbz	w16, d74 <__aarch64_cas4_acq_rel+0x14>
     d6c:	88e0fc41 	casal	w0, w1, [x2]
     d70:	d65f03c0 	ret
     d74:	2a0003f0 	mov	w16, w0
     d78:	885ffc40 	ldaxr	w0, [x2]
     d7c:	6b10001f 	cmp	w0, w16
     d80:	54000061 	b.ne	d8c <__aarch64_cas4_acq_rel+0x2c>  // b.any
     d84:	8811fc41 	stlxr	w17, w1, [x2]
     d88:	35ffff91 	cbnz	w17, d78 <__aarch64_cas4_acq_rel+0x18>
     d8c:	d65f03c0 	ret

0000000000000d90 <__aarch64_ldset4_acq>:
__aarch64_ldset4_acq():
     d90:	90000010 	adrp	x16, 810 <strcpy+0x90>	d90: R_AARCH64_ADR_PREL_PG_HI21	__aarch64_have_lse_atomics
     d94:	39400210 	ldrb	w16, [x16]	d94: R_AARCH64_LDST8_ABS_LO12_NC	__aarch64_have_lse_atomics
     d98:	34000070 	cbz	w16, da4 <__aarch64_ldset4_acq+0x14>
     d9c:	b8a03020 	ldseta	w0, w0, [x1]
     da0:	d65f03c0 	ret
     da4:	2a0003f0 	mov	w16, w0
     da8:	885ffc20 	ldaxr	w0, [x1]
     dac:	2a100011 	orr	w17, w0, w16
     db0:	880f7c31 	stxr	w15, w17, [x1]
     db4:	35ffffaf 	cbnz	w15, da8 <__aarch64_ldset4_acq+0x18>
     db8:	d65f03c0 	ret
     dbc:	d10043ff 	sub	sp, sp, #0x10
     dc0:	f90003fe 	str	x30, [sp]
     dc4:	aa0003f0 	mov	x16, x0
     dc8:	aa0103e0 	mov	x0, x1
     dcc:	aa0203e1 	mov	x1, x2
     dd0:	aa0303e2 	mov	x2, x3
     dd4:	d63f0200 	blr	x16
     dd8:	f94003fe 	ldr	x30, [sp]
     ddc:	910043ff 	add	sp, sp, #0x10
     de0:	d28000a0 	mov	x0, #0x5                   	// #5
     de4:	d4000001 	svc	#0x0
     de8:	d65f03c0 	ret
     dec:	a9be4ffe 	stp	x30, x19, [sp, #-32]!
     df0:	90000013 	adrp	x19, 2c8 <memcmp+0x48>	df0: R_AARCH64_ADR_PREL_PG_HI21	_sdtors
     df4:	91000273 	add	x19, x19, #0x0	df4: R_AARCH64_ADD_ABS_LO12_NC	_sdtors
     df8:	f9000bf4 	str	x20, [sp, #16]
     dfc:	90000014 	adrp	x20, 2c8 <memcmp+0x48>	dfc: R_AARCH64_ADR_PREL_PG_HI21	_edtors
     e00:	91000294 	add	x20, x20, #0x0	e00: R_AARCH64_ADD_ABS_LO12_NC	_edtors
     e04:	eb14027f 	cmp	x19, x20
     e08:	54000081 	b.ne	e18 <__aarch64_ldset4_acq+0x88>  // b.any
     e0c:	f9400bf4 	ldr	x20, [sp, #16]
     e10:	a8c24ffe 	ldp	x30, x19, [sp], #32
     e14:	d65f03c0 	ret
     e18:	f8408660 	ldr	x0, [x19], #8
     e1c:	d63f0000 	blr	x0
     e20:	17fffff9 	b	e04 <__aarch64_ldset4_acq+0x74>

0000000000000e24 <__start>:
__start():
     e24:	a9bd4ffe 	stp	x30, x19, [sp, #-48]!
     e28:	90000013 	adrp	x19, 2c8 <memcmp+0x48>	e28: R_AARCH64_ADR_PREL_PG_HI21	_sctors
     e2c:	91000273 	add	x19, x19, #0x0	e2c: R_AARCH64_ADD_ABS_LO12_NC	_sctors
     e30:	a90157f4 	stp	x20, x21, [sp, #16]
     e34:	aa0103f5 	mov	x21, x1
     e38:	d2b80001 	mov	x1, #0xc0000000            	// #3221225472
     e3c:	f90013f6 	str	x22, [sp, #32]
     e40:	90000016 	adrp	x22, 2c8 <memcmp+0x48>	e40: R_AARCH64_ADR_PREL_PG_HI21	_ectors
     e44:	910002d6 	add	x22, x22, #0x0	e44: R_AARCH64_ADD_ABS_LO12_NC	_ectors
     e48:	2a0003f4 	mov	w20, w0
     e4c:	90000000 	adrp	x0, 0 <memcpy>	e4c: R_AARCH64_ADR_PREL_PG_HI21	.text+0xdbc
     e50:	91000000 	add	x0, x0, #0x0	e50: R_AARCH64_ADD_ABS_LO12_NC	.text+0xdbc
     e54:	f9000020 	str	x0, [x1]
     e58:	eb16027f 	cmp	x19, x22
     e5c:	54000101 	b.ne	e7c <__start+0x58>  // b.any
     e60:	90000000 	adrp	x0, 0 <memcpy>	e60: R_AARCH64_ADR_PREL_PG_HI21	.text+0xdec
     e64:	91000000 	add	x0, x0, #0x0	e64: R_AARCH64_ADD_ABS_LO12_NC	.text+0xdec
     e68:	94000000 	bl	222c <atexit>	e68: R_AARCH64_CALL26	atexit
     e6c:	aa1503e1 	mov	x1, x21
     e70:	2a1403e0 	mov	w0, w20
     e74:	94000000 	bl	e88 <main>	e74: R_AARCH64_CALL26	main
     e78:	94000000 	bl	206c <exit>	e78: R_AARCH64_CALL26	exit
     e7c:	f8408660 	ldr	x0, [x19], #8
     e80:	d63f0000 	blr	x0
     e84:	17fffff5 	b	e58 <__start+0x34>

0000000000000e88 <main>:
main():
     e88:	a9bd4ffe 	stp	x30, x19, [sp, #-48]!
     e8c:	2a0003f3 	mov	w19, w0
     e90:	52800000 	mov	w0, #0x0                   	// #0
     e94:	f9000bf4 	str	x20, [sp, #16]
     e98:	aa0103f4 	mov	x20, x1
     e9c:	9100a3e1 	add	x1, sp, #0x28
     ea0:	94000000 	bl	2fa0 <sched_getparam>	ea0: R_AARCH64_CALL26	sched_getparam
     ea4:	b9402be0 	ldr	w0, [sp, #40]
     ea8:	7101901f 	cmp	w0, #0x64
     eac:	540000c0 	b.eq	ec4 <main+0x3c>  // b.none
     eb0:	52800c80 	mov	w0, #0x64                  	// #100
     eb4:	9100a3e1 	add	x1, sp, #0x28
     eb8:	b9002be0 	str	w0, [sp, #40]
     ebc:	52800000 	mov	w0, #0x0                   	// #0
     ec0:	94000000 	bl	2fc0 <sched_setparam>	ec0: R_AARCH64_CALL26	sched_setparam
     ec4:	94000000 	bl	305c <nsh_initialize>	ec4: R_AARCH64_CALL26	nsh_initialize
     ec8:	aa1403e1 	mov	x1, x20
     ecc:	2a1303e0 	mov	w0, w19
     ed0:	94000000 	bl	3004 <nsh_consolemain>	ed0: R_AARCH64_CALL26	nsh_consolemain
     ed4:	2a0003e2 	mov	w2, w0
     ed8:	90000001 	adrp	x1, ebb8 <_srodata>	ed8: R_AARCH64_ADR_PREL_PG_HI21	.rodata+0x20
     edc:	52800040 	mov	w0, #0x2                   	// #2
     ee0:	91000021 	add	x1, x1, #0x0	ee0: R_AARCH64_ADD_ABS_LO12_NC	.rodata+0x20
     ee4:	94000000 	bl	ef8 <dprintf>	ee4: R_AARCH64_CALL26	dprintf
     ee8:	f9400bf4 	ldr	x20, [sp, #16]
     eec:	52800020 	mov	w0, #0x1                   	// #1
     ef0:	a8c34ffe 	ldp	x30, x19, [sp], #48
     ef4:	d65f03c0 	ret

0000000000000ef8 <dprintf>:
dprintf():
     ef8:	d10403ff 	sub	sp, sp, #0x100
     efc:	a90d0fe2 	stp	x2, x3, [sp, #208]
     f00:	910403e2 	add	x2, sp, #0x100
     f04:	a9030be2 	stp	x2, x2, [sp, #48]
     f08:	910343e2 	add	x2, sp, #0xd0
     f0c:	3dc00fff 	ldr	q31, [sp, #48]
     f10:	f90023e2 	str	x2, [sp, #64]
     f14:	128005e2 	mov	w2, #0xffffffd0            	// #-48
     f18:	b9004be2 	str	w2, [sp, #72]
     f1c:	12800fe2 	mov	w2, #0xffffff80            	// #-128
     f20:	b9004fe2 	str	w2, [sp, #76]
     f24:	3d8007ff 	str	q31, [sp, #16]
     f28:	910043e2 	add	x2, sp, #0x10
     f2c:	3dc013ff 	ldr	q31, [sp, #64]
     f30:	f90003fe 	str	x30, [sp]
     f34:	ad0287e0 	stp	q0, q1, [sp, #80]
     f38:	3d800bff 	str	q31, [sp, #32]
     f3c:	ad038fe2 	stp	q2, q3, [sp, #112]
     f40:	ad0497e4 	stp	q4, q5, [sp, #144]
     f44:	ad059fe6 	stp	q6, q7, [sp, #176]
     f48:	a90e17e4 	stp	x4, x5, [sp, #224]
     f4c:	a90f1fe6 	stp	x6, x7, [sp, #240]
     f50:	94000000 	bl	f60 <vdprintf>	f50: R_AARCH64_CALL26	vdprintf
     f54:	f94003fe 	ldr	x30, [sp]
     f58:	910403ff 	add	sp, sp, #0x100
     f5c:	d65f03c0 	ret

0000000000000f60 <vdprintf>:
vdprintf():
     f60:	a9b24ffe 	stp	x30, x19, [sp, #-224]!
     f64:	aa0203f3 	mov	x19, x2
     f68:	f9000bf4 	str	x20, [sp, #16]
     f6c:	aa0103f4 	mov	x20, x1
     f70:	2a0003e1 	mov	w1, w0
     f74:	910123e0 	add	x0, sp, #0x48
     f78:	94000000 	bl	2314 <lib_rawoutstream>	f78: R_AARCH64_CALL26	lib_rawoutstream
     f7c:	910123e1 	add	x1, sp, #0x48
     f80:	9101c3e0 	add	x0, sp, #0x70
     f84:	94000000 	bl	2400 <lib_bufferedoutstream>	f84: R_AARCH64_CALL26	lib_bufferedoutstream
     f88:	ad407e7e 	ldp	q30, q31, [x19]
     f8c:	910083e2 	add	x2, sp, #0x20
     f90:	aa1403e1 	mov	x1, x20
     f94:	9101c3e0 	add	x0, sp, #0x70
     f98:	3d800bfe 	str	q30, [sp, #32]
     f9c:	3d80045f 	str	q31, [x2, #16]
     fa0:	94000000 	bl	1e58 <lib_vsprintf>	fa0: R_AARCH64_CALL26	lib_vsprintf
     fa4:	2a0003f3 	mov	w19, w0
     fa8:	f94047e1 	ldr	x1, [sp, #136]
     fac:	9101c3e0 	add	x0, sp, #0x70
     fb0:	d63f0020 	blr	x1
     fb4:	f9400bf4 	ldr	x20, [sp, #16]
     fb8:	2a1303e0 	mov	w0, w19
     fbc:	a8ce4ffe 	ldp	x30, x19, [sp], #224
     fc0:	d65f03c0 	ret
     fc4:	a9b54ffe 	stp	x30, x19, [sp, #-176]!
     fc8:	a9025ff6 	stp	x22, x23, [sp, #32]
     fcc:	a9046ffa 	stp	x26, x27, [sp, #64]
     fd0:	aa0003fa 	mov	x26, x0
     fd4:	a9400096 	ldp	x22, x0, [x4]
     fd8:	f90037e0 	str	x0, [sp, #104]
     fdc:	a90157f4 	stp	x20, x21, [sp, #16]
     fe0:	52800014 	mov	w20, #0x0                   	// #0
     fe4:	91006080 	add	x0, x4, #0x18
     fe8:	a90367f8 	stp	x24, x25, [sp, #48]
     fec:	f9002bfc 	str	x28, [sp, #80]
     ff0:	f90043e4 	str	x4, [sp, #128]
     ff4:	2940001c 	ldp	w28, w0, [x0]
     ff8:	b90073e0 	str	w0, [sp, #112]
     ffc:	39400061 	ldrb	w1, [x3]
    1000:	34006cc1 	cbz	w1, 1d98 <vdprintf+0xe38>
    1004:	7100943f 	cmp	w1, #0x25
    1008:	54000140 	b.eq	1030 <vdprintf+0xd0>  // b.none
    100c:	91000460 	add	x0, x3, #0x1
    1010:	f9003fe0 	str	x0, [sp, #120]
    1014:	f9400742 	ldr	x2, [x26, #8]
    1018:	11000694 	add	w20, w20, #0x1
    101c:	aa1a03e0 	mov	x0, x26
    1020:	2a1c03f7 	mov	w23, w28
    1024:	aa1603f3 	mov	x19, x22
    1028:	d63f0040 	blr	x2
    102c:	14000357 	b	1d88 <vdprintf+0xe28>
    1030:	3940047b 	ldrb	w27, [x3, #1]
    1034:	91000860 	add	x0, x3, #0x2
    1038:	f9003fe0 	str	x0, [sp, #120]
    103c:	7100977f 	cmp	w27, #0x25
    1040:	54fffea0 	b.eq	1014 <vdprintf+0xb4>  // b.none
    1044:	52800015 	mov	w21, #0x0                   	// #0
    1048:	52800007 	mov	w7, #0x0                   	// #0
    104c:	52800018 	mov	w24, #0x0                   	// #0
    1050:	7100ff1f 	cmp	w24, #0x3f
    1054:	54000808 	b.hi	1154 <vdprintf+0x1f4>  // b.pmore
    1058:	7100af7f 	cmp	w27, #0x2b
    105c:	540006e0 	b.eq	1138 <vdprintf+0x1d8>  // b.none
    1060:	54000228 	b.hi	10a4 <vdprintf+0x144>  // b.pmore
    1064:	7100837f 	cmp	w27, #0x20
    1068:	540006a0 	b.eq	113c <vdprintf+0x1dc>  // b.none
    106c:	71008f7f 	cmp	w27, #0x23
    1070:	540006e0 	b.eq	114c <vdprintf+0x1ec>  // b.none
    1074:	7100ab7f 	cmp	w27, #0x2a
    1078:	54000cc1 	b.ne	1210 <vdprintf+0x2b0>  // b.any
    107c:	364009b8 	tbz	w24, #8, 11b0 <vdprintf+0x250>
    1080:	37f8085c 	tbnz	w28, #31, 1188 <vdprintf+0x228>
    1084:	91002ec0 	add	x0, x22, #0xb
    1088:	2a1c03e1 	mov	w1, w28
    108c:	927df000 	and	x0, x0, #0xfffffffffffffff8
    1090:	b94002d5 	ldr	w21, [x22]
    1094:	2a0103fc 	mov	w28, w1
    1098:	0ab57eb5 	bic	w21, w21, w21, asr #31
    109c:	aa0003f6 	mov	x22, x0
    10a0:	14000006 	b	10b8 <vdprintf+0x158>
    10a4:	7100b77f 	cmp	w27, #0x2d
    10a8:	540004e0 	b.eq	1144 <vdprintf+0x1e4>  // b.none
    10ac:	7100c37f 	cmp	w27, #0x30
    10b0:	54000561 	b.ne	115c <vdprintf+0x1fc>  // b.any
    10b4:	32000318 	orr	w24, w24, #0x1
    10b8:	f9403fe0 	ldr	x0, [sp, #120]
    10bc:	3840141b 	ldrb	w27, [x0], #1
    10c0:	f9003fe0 	str	x0, [sp, #120]
    10c4:	35fffc7b 	cbnz	w27, 1050 <vdprintf+0xf0>
    10c8:	51019760 	sub	w0, w27, #0x65
    10cc:	12001c00 	and	w0, w0, #0xff
    10d0:	7100081f 	cmp	w0, #0x2
    10d4:	54001369 	b.ls	1340 <vdprintf+0x3e0>  // b.plast
    10d8:	71018f7f 	cmp	w27, #0x63
    10dc:	54003e20 	b.eq	18a0 <vdprintf+0x940>  // b.none
    10e0:	121a7b60 	and	w0, w27, #0xffffffdf
    10e4:	12001c00 	and	w0, w0, #0xff
    10e8:	71014c1f 	cmp	w0, #0x53
    10ec:	54000de1 	b.ne	12a8 <vdprintf+0x348>  // b.any
    10f0:	37f8431c 	tbnz	w28, #31, 1950 <vdprintf+0x9f0>
    10f4:	91003ed3 	add	x19, x22, #0xf
    10f8:	2a1c03fb 	mov	w27, w28
    10fc:	927df273 	and	x19, x19, #0xfffffffffffffff8
    1100:	f94002d6 	ldr	x22, [x22]
    1104:	b5000076 	cbnz	x22, 1110 <vdprintf+0x1b0>
    1108:	90000016 	adrp	x22, ebb8 <_srodata>	1108: R_AARCH64_ADR_PREL_PG_HI21	.rodata+0x4f
    110c:	910002d6 	add	x22, x22, #0x0	110c: R_AARCH64_ADD_ABS_LO12_NC	.rodata+0x4f
    1110:	f278031f 	tst	x24, #0x100
    1114:	93407ea1 	sxtw	x1, w21
    1118:	da9f1021 	csinv	x1, x1, xzr, ne	// ne = any
    111c:	aa1603e0 	mov	x0, x22
    1120:	b90077e7 	str	w7, [sp, #116]
    1124:	2a1b03fc 	mov	w28, w27
    1128:	94000000 	bl	1a4 <strnlen>	1128: R_AARCH64_CALL26	strnlen
    112c:	aa0003f9 	mov	x25, x0
    1130:	b94077e7 	ldr	w7, [sp, #116]
    1134:	140001e4 	b	18c4 <vdprintf+0x964>
    1138:	321f0318 	orr	w24, w24, #0x2
    113c:	321e0318 	orr	w24, w24, #0x4
    1140:	17ffffde 	b	10b8 <vdprintf+0x158>
    1144:	321d0318 	orr	w24, w24, #0x8
    1148:	17ffffdc 	b	10b8 <vdprintf+0x158>
    114c:	321c0318 	orr	w24, w24, #0x10
    1150:	17ffffda 	b	10b8 <vdprintf+0x158>
    1154:	7107ff1f 	cmp	w24, #0x1ff
    1158:	54000668 	b.hi	1224 <vdprintf+0x2c4>  // b.pmore
    115c:	5100c360 	sub	w0, w27, #0x30
    1160:	12001c00 	and	w0, w0, #0xff
    1164:	7100241f 	cmp	w0, #0x9
    1168:	54fff868 	b.hi	1074 <vdprintf+0x114>  // b.pmore
    116c:	52800141 	mov	w1, #0xa                   	// #10
    1170:	36400078 	tbz	w24, #8, 117c <vdprintf+0x21c>
    1174:	1b0102b5 	madd	w21, w21, w1, w0
    1178:	17ffffd0 	b	10b8 <vdprintf+0x158>
    117c:	1b0100e7 	madd	w7, w7, w1, w0
    1180:	32190318 	orr	w24, w24, #0x80
    1184:	17ffffcd 	b	10b8 <vdprintf+0x158>
    1188:	11002381 	add	w1, w28, #0x8
    118c:	7100003f 	cmp	w1, #0x0
    1190:	5400008d 	b.le	11a0 <vdprintf+0x240>
    1194:	91002ec0 	add	x0, x22, #0xb
    1198:	927df000 	and	x0, x0, #0xfffffffffffffff8
    119c:	17ffffbd 	b	1090 <vdprintf+0x130>
    11a0:	f94037e2 	ldr	x2, [sp, #104]
    11a4:	aa1603e0 	mov	x0, x22
    11a8:	8b3cc056 	add	x22, x2, w28, sxtw
    11ac:	17ffffb9 	b	1090 <vdprintf+0x130>
    11b0:	37f800fc 	tbnz	w28, #31, 11cc <vdprintf+0x26c>
    11b4:	91002ec0 	add	x0, x22, #0xb
    11b8:	927df000 	and	x0, x0, #0xfffffffffffffff8
    11bc:	b94002c7 	ldr	w7, [x22]
    11c0:	37f80207 	tbnz	w7, #31, 1200 <vdprintf+0x2a0>
    11c4:	32190318 	orr	w24, w24, #0x80
    11c8:	17ffffb5 	b	109c <vdprintf+0x13c>
    11cc:	11002381 	add	w1, w28, #0x8
    11d0:	7100003f 	cmp	w1, #0x0
    11d4:	540000ad 	b.le	11e8 <vdprintf+0x288>
    11d8:	91002ec0 	add	x0, x22, #0xb
    11dc:	2a0103fc 	mov	w28, w1
    11e0:	927df000 	and	x0, x0, #0xfffffffffffffff8
    11e4:	17fffff6 	b	11bc <vdprintf+0x25c>
    11e8:	f94037e0 	ldr	x0, [sp, #104]
    11ec:	8b3cc002 	add	x2, x0, w28, sxtw
    11f0:	aa1603e0 	mov	x0, x22
    11f4:	2a0103fc 	mov	w28, w1
    11f8:	aa0203f6 	mov	x22, x2
    11fc:	17fffff0 	b	11bc <vdprintf+0x25c>
    1200:	52801101 	mov	w1, #0x88                  	// #136
    1204:	4b0703e7 	neg	w7, w7
    1208:	2a010318 	orr	w24, w24, w1
    120c:	17ffffa4 	b	109c <vdprintf+0x13c>
    1210:	7100bb7f 	cmp	w27, #0x2e
    1214:	54000081 	b.ne	1224 <vdprintf+0x2c4>  // b.any
    1218:	37405c18 	tbnz	w24, #8, 1d98 <vdprintf+0xe38>
    121c:	32180318 	orr	w24, w24, #0x100
    1220:	17ffffa6 	b	10b8 <vdprintf+0x158>
    1224:	7101eb7f 	cmp	w27, #0x7a
    1228:	52800e80 	mov	w0, #0x74                  	// #116
    122c:	7a401364 	ccmp	w27, w0, #0x4, ne	// ne = any
    1230:	54000160 	b.eq	125c <vdprintf+0x2fc>  // b.none
    1234:	7101ab7f 	cmp	w27, #0x6a
    1238:	540000c1 	b.ne	1250 <vdprintf+0x2f0>  // b.any
    123c:	12157b03 	and	w3, w24, #0xfffffbff
    1240:	52814000 	mov	w0, #0xa00                 	// #2560
    1244:	12003c63 	and	w3, w3, #0xffff
    1248:	2a000078 	orr	w24, w3, w0
    124c:	17ffff9b 	b	10b8 <vdprintf+0x158>
    1250:	121a7b60 	and	w0, w27, #0xffffffdf
    1254:	7101301f 	cmp	w0, #0x4c
    1258:	54000101 	b.ne	1278 <vdprintf+0x318>  // b.any
    125c:	32150301 	orr	w1, w24, #0x800
    1260:	32170300 	orr	w0, w24, #0x200
    1264:	f277031f 	tst	x24, #0x200
    1268:	1a810000 	csel	w0, w0, w1, eq	// eq = none
    126c:	12157800 	and	w0, w0, #0xfffffbff
    1270:	12003c18 	and	w24, w0, #0xffff
    1274:	17ffff91 	b	10b8 <vdprintf+0x158>
    1278:	7101a37f 	cmp	w27, #0x68
    127c:	540000e1 	b.ne	1298 <vdprintf+0x338>  // b.any
    1280:	32150301 	orr	w1, w24, #0x800
    1284:	32160300 	orr	w0, w24, #0x400
    1288:	f276031f 	tst	x24, #0x400
    128c:	1a810000 	csel	w0, w0, w1, eq	// eq = none
    1290:	12167800 	and	w0, w0, #0xfffffdff
    1294:	17fffff7 	b	1270 <vdprintf+0x310>
    1298:	7101c37f 	cmp	w27, #0x70
    129c:	54000441 	b.ne	1324 <vdprintf+0x3c4>  // b.any
    12a0:	52814000 	mov	w0, #0xa00                 	// #2560
    12a4:	2a000318 	orr	w24, w24, w0
    12a8:	52800d20 	mov	w0, #0x69                  	// #105
    12ac:	7101937f 	cmp	w27, #0x64
    12b0:	7a401364 	ccmp	w27, w0, #0x4, ne	// ne = any
    12b4:	12170300 	and	w0, w24, #0x200
    12b8:	54003d61 	b.ne	1a64 <vdprintf+0xb04>  // b.any
    12bc:	34003820 	cbz	w0, 19c0 <vdprintf+0xa60>
    12c0:	37f836dc 	tbnz	w28, #31, 1998 <vdprintf+0xa38>
    12c4:	91003ed3 	add	x19, x22, #0xf
    12c8:	2a1c03f7 	mov	w23, w28
    12cc:	927df273 	and	x19, x19, #0xfffffffffffffff8
    12d0:	f94002c0 	ldr	x0, [x22]
    12d4:	12820219 	mov	w25, #0xffffefef            	// #-4113
    12d8:	0a190319 	and	w25, w24, w25
    12dc:	b6f80080 	tbz	x0, #63, 12ec <vdprintf+0x38c>
    12e0:	32140339 	orr	w25, w25, #0x1000
    12e4:	cb0003e0 	neg	x0, x0
    12e8:	12003f39 	and	w25, w25, #0xffff
    12ec:	12180336 	and	w22, w25, #0x100
    12f0:	36403979 	tbz	w25, #8, 1a1c <vdprintf+0xabc>
    12f4:	710002bf 	cmp	w21, #0x0
    12f8:	fa400800 	ccmp	x0, #0x0, #0x0, eq	// eq = none
    12fc:	54003901 	b.ne	1a1c <vdprintf+0xabc>  // b.any
    1300:	121f3b39 	and	w25, w25, #0xfffe
    1304:	5280001b 	mov	w27, #0x0                   	// #0
    1308:	52800000 	mov	w0, #0x0                   	// #0
    130c:	528200c1 	mov	w1, #0x1006                	// #4102
    1310:	6a01033f 	tst	w25, w1
    1314:	54004500 	b.eq	1bb4 <vdprintf+0xc54>  // b.none
    1318:	11000400 	add	w0, w0, #0x1
    131c:	12001c00 	and	w0, w0, #0xff
    1320:	14000225 	b	1bb4 <vdprintf+0xc54>
    1324:	51011760 	sub	w0, w27, #0x45
    1328:	12001c00 	and	w0, w0, #0xff
    132c:	7100081f 	cmp	w0, #0x2
    1330:	54ffecc8 	b.hi	10c8 <vdprintf+0x168>  // b.pmore
    1334:	1100837b 	add	w27, w27, #0x20
    1338:	32130318 	orr	w24, w24, #0x2000
    133c:	12001f7b 	and	w27, w27, #0xff
    1340:	f278031f 	tst	x24, #0x100
    1344:	528000c0 	mov	w0, #0x6                   	// #6
    1348:	1a8012b5 	csel	w21, w21, w0, ne	// ne = any
    134c:	12001ea2 	and	w2, w21, #0xff
    1350:	7101977f 	cmp	w27, #0x65
    1354:	54000141 	b.ne	137c <vdprintf+0x41c>  // b.any
    1358:	11000442 	add	w2, w2, #0x1
    135c:	32120318 	orr	w24, w24, #0x4000
    1360:	12001c42 	and	w2, w2, #0xff
    1364:	71003c5f 	cmp	w2, #0xf
    1368:	528001e0 	mov	w0, #0xf                   	// #15
    136c:	1a809042 	csel	w2, w2, w0, ls	// ls = plast
    1370:	12001c41 	and	w1, w2, #0xff
    1374:	52800002 	mov	w2, #0x0                   	// #0
    1378:	14000005 	b	138c <vdprintf+0x42c>
    137c:	71019b7f 	cmp	w27, #0x66
    1380:	54ffff21 	b.ne	1364 <vdprintf+0x404>  // b.any
    1384:	32110318 	orr	w24, w24, #0x8000
    1388:	528001e1 	mov	w1, #0xf                   	// #15
    138c:	b94073e0 	ldr	w0, [sp, #112]
    1390:	37f80700 	tbnz	w0, #31, 1470 <vdprintf+0x510>
    1394:	91003ed3 	add	x19, x22, #0xf
    1398:	b90077e0 	str	w0, [sp, #116]
    139c:	927df273 	and	x19, x19, #0xfffffffffffffff8
    13a0:	fd4002c0 	ldr	d0, [x22]
    13a4:	910263fb 	add	x27, sp, #0x98
    13a8:	aa1b03e0 	mov	x0, x27
    13ac:	b90073e7 	str	w7, [sp, #112]
    13b0:	94000000 	bl	1eb8 <__dtoa_engine>	13b0: R_AARCH64_CALL26	__dtoa_engine
    13b4:	394273e1 	ldrb	w1, [sp, #156]
    13b8:	b94073e7 	ldr	w7, [sp, #112]
    13bc:	37000761 	tbnz	w1, #0, 14a8 <vdprintf+0x548>
    13c0:	d3420b02 	ubfx	x2, x24, #2, #1
    13c4:	f27f031f 	tst	x24, #0x2
    13c8:	52800566 	mov	w6, #0x2b                  	// #43
    13cc:	531b0042 	ubfiz	w2, w2, #5, #1
    13d0:	1a860042 	csel	w2, w2, w6, eq	// eq = none
    13d4:	721e0421 	ands	w1, w1, #0xc
    13d8:	540007c0 	b.eq	14d0 <vdprintf+0x570>  // b.none
    13dc:	7100005f 	cmp	w2, #0x0
    13e0:	1a9f07f6 	cset	w22, ne	// ne = any
    13e4:	11000ed6 	add	w22, w22, #0x3
    13e8:	6b0702df 	cmp	w22, w7
    13ec:	540001aa 	b.ge	1420 <vdprintf+0x4c0>  // b.tcont
    13f0:	4b1600f6 	sub	w22, w7, w22
    13f4:	37180198 	tbnz	w24, #3, 1424 <vdprintf+0x4c4>
    13f8:	2a1603f5 	mov	w21, w22
    13fc:	f9400746 	ldr	x6, [x26, #8]
    1400:	aa1a03e0 	mov	x0, x26
    1404:	52800401 	mov	w1, #0x20                  	// #32
    1408:	b90073e2 	str	w2, [sp, #112]
    140c:	d63f00c0 	blr	x6
    1410:	b94073e2 	ldr	w2, [sp, #112]
    1414:	710006b5 	subs	w21, w21, #0x1
    1418:	54ffff21 	b.ne	13fc <vdprintf+0x49c>  // b.any
    141c:	0b160294 	add	w20, w20, w22
    1420:	52800016 	mov	w22, #0x0                   	// #0
    1424:	340000c2 	cbz	w2, 143c <vdprintf+0x4dc>
    1428:	f9400746 	ldr	x6, [x26, #8]
    142c:	11000694 	add	w20, w20, #0x1
    1430:	2a0203e1 	mov	w1, w2
    1434:	aa1a03e0 	mov	x0, x26
    1438:	d63f00c0 	blr	x6
    143c:	394273e1 	ldrb	w1, [sp, #156]
    1440:	90000000 	adrp	x0, ebb8 <_srodata>	1440: R_AARCH64_ADR_PREL_PG_HI21	.rodata+0x47
    1444:	90000017 	adrp	x23, ebb8 <_srodata>	1444: R_AARCH64_ADR_PREL_PG_HI21	.rodata+0x4b
    1448:	91000000 	add	x0, x0, #0x0	1448: R_AARCH64_ADD_ABS_LO12_NC	.rodata+0x47
    144c:	910002f7 	add	x23, x23, #0x0	144c: R_AARCH64_ADD_ABS_LO12_NC	.rodata+0x4b
    1450:	12130318 	and	w24, w24, #0x2000
    1454:	f27d003f 	tst	x1, #0x8
    1458:	d2800015 	mov	x21, #0x0                   	// #0
    145c:	9a8012f7 	csel	x23, x23, x0, ne	// ne = any
    1460:	38756ae1 	ldrb	w1, [x23, x21]
    1464:	35000261 	cbnz	w1, 14b0 <vdprintf+0x550>
    1468:	0b150295 	add	w21, w20, w21
    146c:	140000ae 	b	1724 <vdprintf+0x7c4>
    1470:	b94073e0 	ldr	w0, [sp, #112]
    1474:	11004000 	add	w0, w0, #0x10
    1478:	b90077e0 	str	w0, [sp, #116]
    147c:	7100001f 	cmp	w0, #0x0
    1480:	5400008d 	b.le	1490 <vdprintf+0x530>
    1484:	91003ed3 	add	x19, x22, #0xf
    1488:	927df273 	and	x19, x19, #0xfffffffffffffff8
    148c:	17ffffc5 	b	13a0 <vdprintf+0x440>
    1490:	f94043e0 	ldr	x0, [sp, #128]
    1494:	aa1603f3 	mov	x19, x22
    1498:	b94073e3 	ldr	w3, [sp, #112]
    149c:	f9400800 	ldr	x0, [x0, #16]
    14a0:	8b23c016 	add	x22, x0, w3, sxtw
    14a4:	17ffffbf 	b	13a0 <vdprintf+0x440>
    14a8:	528005a2 	mov	w2, #0x2d                  	// #45
    14ac:	17ffffca 	b	13d4 <vdprintf+0x474>
    14b0:	34000078 	cbz	w24, 14bc <vdprintf+0x55c>
    14b4:	51008021 	sub	w1, w1, #0x20
    14b8:	12001c21 	and	w1, w1, #0xff
    14bc:	f9400742 	ldr	x2, [x26, #8]
    14c0:	aa1a03e0 	mov	x0, x26
    14c4:	910006b5 	add	x21, x21, #0x1
    14c8:	d63f0040 	blr	x2
    14cc:	17ffffe5 	b	1460 <vdprintf+0x500>
    14d0:	b9409bf7 	ldr	w23, [sp, #152]
    14d4:	12001c19 	and	w25, w0, #0xff
    14d8:	5287ffe6 	mov	w6, #0x3fff                	// #16383
    14dc:	6b06031f 	cmp	w24, w6
    14e0:	54000668 	b.hi	15ac <vdprintf+0x64c>  // b.pmore
    14e4:	12001c00 	and	w0, w0, #0xff
    14e8:	8b394379 	add	x25, x27, w25, uxtw
    14ec:	2a0003f5 	mov	w21, w0
    14f0:	340004f5 	cbz	w21, 158c <vdprintf+0x62c>
    14f4:	39401326 	ldrb	w6, [x25, #4]
    14f8:	510006a8 	sub	w8, w21, #0x1
    14fc:	d1000739 	sub	x25, x25, #0x1
    1500:	7100c0df 	cmp	w6, #0x30
    1504:	54000400 	b.eq	1584 <vdprintf+0x624>  // b.none
    1508:	12001ea1 	and	w1, w21, #0xff
    150c:	6b0002ff 	cmp	w23, w0
    1510:	3a44bae1 	ccmn	w23, #0x4, #0x1, lt	// lt = tstop
    1514:	5400040b 	b.lt	1594 <vdprintf+0x634>  // b.tstop
    1518:	32110318 	orr	w24, w24, #0x8000
    151c:	13003f00 	sxth	w0, w24
    1520:	b90073e0 	str	w0, [sp, #112]
    1524:	37f80077 	tbnz	w23, #31, 1530 <vdprintf+0x5d0>
    1528:	6b1502ff 	cmp	w23, w21
    152c:	540004aa 	b.ge	15c0 <vdprintf+0x660>  // b.tcont
    1530:	110006e0 	add	w0, w23, #0x1
    1534:	4b0002b5 	sub	w21, w21, w0
    1538:	310006e0 	adds	w0, w23, #0x1
    153c:	2a0103f9 	mov	w25, w1
    1540:	1a9fc400 	csinc	w0, w0, wzr, gt
    1544:	7100005f 	cmp	w2, #0x0
    1548:	d3441306 	ubfx	x6, x24, #4, #1
    154c:	1a800400 	cinc	w0, w0, ne	// ne = any
    1550:	110006a1 	add	w1, w21, #0x1
    1554:	0b010001 	add	w1, w0, w1
    1558:	710002bf 	cmp	w21, #0x0
    155c:	0b060000 	add	w0, w0, w6
    1560:	1a810000 	csel	w0, w0, w1, eq	// eq = none
    1564:	4b0000e6 	sub	w6, w7, w0
    1568:	6b07001f 	cmp	w0, w7
    156c:	1a9fb0c6 	csel	w6, w6, wzr, lt	// lt = tstop
    1570:	52800120 	mov	w0, #0x9                   	// #9
    1574:	6a00031f 	tst	w24, w0
    1578:	54000841 	b.ne	1680 <vdprintf+0x720>  // b.any
    157c:	2a0603f6 	mov	w22, w6
    1580:	14000018 	b	15e0 <vdprintf+0x680>
    1584:	2a0803f5 	mov	w21, w8
    1588:	17ffffda 	b	14f0 <vdprintf+0x590>
    158c:	52800015 	mov	w21, #0x0                   	// #0
    1590:	17ffffdf 	b	150c <vdprintf+0x5ac>
    1594:	510006b5 	sub	w21, w21, #0x1
    1598:	2a0103f9 	mov	w25, w1
    159c:	13003f00 	sxth	w0, w24
    15a0:	b90073e0 	str	w0, [sp, #112]
    15a4:	528000a0 	mov	w0, #0x5                   	// #5
    15a8:	17ffffe7 	b	1544 <vdprintf+0x5e4>
    15ac:	13003f00 	sxth	w0, w24
    15b0:	b90073e0 	str	w0, [sp, #112]
    15b4:	367fff98 	tbz	w24, #15, 15a4 <vdprintf+0x644>
    15b8:	2a1903e1 	mov	w1, w25
    15bc:	17ffffdf 	b	1538 <vdprintf+0x5d8>
    15c0:	52800015 	mov	w21, #0x0                   	// #0
    15c4:	17ffffdd 	b	1538 <vdprintf+0x5d8>
    15c8:	29111be2 	stp	w2, w6, [sp, #136]
    15cc:	aa1a03e0 	mov	x0, x26
    15d0:	52800401 	mov	w1, #0x20                  	// #32
    15d4:	510006d6 	sub	w22, w22, #0x1
    15d8:	d63f00e0 	blr	x7
    15dc:	29511be2 	ldp	w2, w6, [sp, #136]
    15e0:	f9400747 	ldr	x7, [x26, #8]
    15e4:	35ffff36 	cbnz	w22, 15c8 <vdprintf+0x668>
    15e8:	0b1400d4 	add	w20, w6, w20
    15ec:	350004e2 	cbnz	w2, 1688 <vdprintf+0x728>
    15f0:	f9400746 	ldr	x6, [x26, #8]
    15f4:	350005b6 	cbnz	w22, 16a8 <vdprintf+0x748>
    15f8:	0b020294 	add	w20, w20, w2
    15fc:	b94073e0 	ldr	w0, [sp, #112]
    1600:	36f809a0 	tbz	w0, #31, 1734 <vdprintf+0x7d4>
    1604:	0ab77ee2 	bic	w2, w23, w23, asr #31
    1608:	4b1503e0 	neg	w0, w21
    160c:	4b0202e6 	sub	w6, w23, w2
    1610:	b90073e0 	str	w0, [sp, #112]
    1614:	8b26c37b 	add	x27, x27, w6, sxtw
    1618:	4b0202e0 	sub	w0, w23, w2
    161c:	6b19001f 	cmp	w0, w25
    1620:	54000522 	b.cs	16c4 <vdprintf+0x764>  // b.hs, b.nlast
    1624:	39401761 	ldrb	w1, [x27, #5]
    1628:	b94073e0 	ldr	w0, [sp, #112]
    162c:	51000442 	sub	w2, w2, #0x1
    1630:	f9400747 	ldr	x7, [x26, #8]
    1634:	11000695 	add	w21, w20, #0x1
    1638:	9100077b 	add	x27, x27, #0x1
    163c:	6b00005f 	cmp	w2, w0
    1640:	5400046b 	b.lt	16cc <vdprintf+0x76c>  // b.tstop
    1644:	aa1a03e0 	mov	x0, x26
    1648:	b9008be2 	str	w2, [sp, #136]
    164c:	d63f00e0 	blr	x7
    1650:	b9408be2 	ldr	w2, [sp, #136]
    1654:	3100045f 	cmn	w2, #0x1
    1658:	54000101 	b.ne	1678 <vdprintf+0x718>  // b.any
    165c:	f9400747 	ldr	x7, [x26, #8]
    1660:	aa1a03e0 	mov	x0, x26
    1664:	528005c1 	mov	w1, #0x2e                  	// #46
    1668:	b9008be2 	str	w2, [sp, #136]
    166c:	11000a95 	add	w21, w20, #0x2
    1670:	d63f00e0 	blr	x7
    1674:	b9408be2 	ldr	w2, [sp, #136]
    1678:	2a1503f4 	mov	w20, w21
    167c:	17ffffe7 	b	1618 <vdprintf+0x6b8>
    1680:	2a0603f6 	mov	w22, w6
    1684:	340000c2 	cbz	w2, 169c <vdprintf+0x73c>
    1688:	f9400746 	ldr	x6, [x26, #8]
    168c:	11000694 	add	w20, w20, #0x1
    1690:	2a0203e1 	mov	w1, w2
    1694:	aa1a03e0 	mov	x0, x26
    1698:	d63f00c0 	blr	x6
    169c:	371ffb18 	tbnz	w24, #3, 15fc <vdprintf+0x69c>
    16a0:	2a1603e2 	mov	w2, w22
    16a4:	17ffffd3 	b	15f0 <vdprintf+0x690>
    16a8:	aa1a03e0 	mov	x0, x26
    16ac:	52800601 	mov	w1, #0x30                  	// #48
    16b0:	b9008be2 	str	w2, [sp, #136]
    16b4:	d63f00c0 	blr	x6
    16b8:	b9408be2 	ldr	w2, [sp, #136]
    16bc:	510006d6 	sub	w22, w22, #0x1
    16c0:	17ffffcc 	b	15f0 <vdprintf+0x690>
    16c4:	52800601 	mov	w1, #0x30                  	// #48
    16c8:	17ffffd8 	b	1628 <vdprintf+0x6c8>
    16cc:	6b0202ff 	cmp	w23, w2
    16d0:	54000121 	b.ne	16f4 <vdprintf+0x794>  // b.any
    16d4:	394277e0 	ldrb	w0, [sp, #157]
    16d8:	7100d41f 	cmp	w0, #0x35
    16dc:	54000288 	b.hi	172c <vdprintf+0x7cc>  // b.pmore
    16e0:	540000a1 	b.ne	16f4 <vdprintf+0x794>  // b.any
    16e4:	394273e0 	ldrb	w0, [sp, #156]
    16e8:	f27c001f 	tst	x0, #0x10
    16ec:	52800620 	mov	w0, #0x31                  	// #49
    16f0:	1a801021 	csel	w1, w1, w0, ne	// ne = any
    16f4:	aa1a03e0 	mov	x0, x26
    16f8:	b90073e2 	str	w2, [sp, #112]
    16fc:	d63f00e0 	blr	x7
    1700:	36200138 	tbz	w24, #4, 1724 <vdprintf+0x7c4>
    1704:	b94073e2 	ldr	w2, [sp, #112]
    1708:	3100045f 	cmn	w2, #0x1
    170c:	540000c1 	b.ne	1724 <vdprintf+0x7c4>  // b.any
    1710:	f9400742 	ldr	x2, [x26, #8]
    1714:	11000a95 	add	w21, w20, #0x2
    1718:	aa1a03e0 	mov	x0, x26
    171c:	528005c1 	mov	w1, #0x2e                  	// #46
    1720:	d63f0040 	blr	x2
    1724:	2a1603f4 	mov	w20, w22
    1728:	14000193 	b	1d74 <vdprintf+0xe14>
    172c:	52800621 	mov	w1, #0x31                  	// #49
    1730:	17fffff1 	b	16f4 <vdprintf+0x794>
    1734:	394277e1 	ldrb	w1, [sp, #157]
    1738:	7100c43f 	cmp	w1, #0x31
    173c:	54000080 	b.eq	174c <vdprintf+0x7ec>  // b.none
    1740:	394273e0 	ldrb	w0, [sp, #156]
    1744:	121b7800 	and	w0, w0, #0xffffffef
    1748:	390273e0 	strb	w0, [sp, #156]
    174c:	f9400742 	ldr	x2, [x26, #8]
    1750:	aa1a03e0 	mov	x0, x26
    1754:	d63f0040 	blr	x2
    1758:	f9400742 	ldr	x2, [x26, #8]
    175c:	710002bf 	cmp	w21, #0x0
    1760:	5400074d 	b.le	1848 <vdprintf+0x8e8>
    1764:	aa1a03e0 	mov	x0, x26
    1768:	528005c1 	mov	w1, #0x2e                  	// #46
    176c:	d63f0040 	blr	x2
    1770:	11000a94 	add	w20, w20, #0x2
    1774:	52800020 	mov	w0, #0x1                   	// #1
    1778:	910277e7 	add	x7, sp, #0x9d
    177c:	2a0003e2 	mov	w2, w0
    1780:	f9400746 	ldr	x6, [x26, #8]
    1784:	11000694 	add	w20, w20, #0x1
    1788:	6b02033f 	cmp	w25, w2
    178c:	540005a9 	b.ls	1840 <vdprintf+0x8e0>  // b.plast
    1790:	386048e1 	ldrb	w1, [x7, w0, uxtw]
    1794:	aa1a03e0 	mov	x0, x26
    1798:	b90073e2 	str	w2, [sp, #112]
    179c:	d63f00c0 	blr	x6
    17a0:	b94073e2 	ldr	w2, [sp, #112]
    17a4:	910277e7 	add	x7, sp, #0x9d
    17a8:	11000442 	add	w2, w2, #0x1
    17ac:	12001c42 	and	w2, w2, #0xff
    17b0:	2a0203e0 	mov	w0, w2
    17b4:	6b15005f 	cmp	w2, w21
    17b8:	54fffe4d 	b.le	1780 <vdprintf+0x820>
    17bc:	f9400742 	ldr	x2, [x26, #8]
    17c0:	f273031f 	tst	x24, #0x2000
    17c4:	528008a0 	mov	w0, #0x45                  	// #69
    17c8:	52800ca1 	mov	w1, #0x65                  	// #101
    17cc:	1a800021 	csel	w1, w1, w0, eq	// eq = none
    17d0:	aa1a03e0 	mov	x0, x26
    17d4:	d63f0040 	blr	x2
    17d8:	710002ff 	cmp	w23, #0x0
    17dc:	5400008b 	b.lt	17ec <vdprintf+0x88c>  // b.tstop
    17e0:	54000441 	b.ne	1868 <vdprintf+0x908>  // b.any
    17e4:	394273e0 	ldrb	w0, [sp, #156]
    17e8:	36200400 	tbz	w0, #4, 1868 <vdprintf+0x908>
    17ec:	4b1703f7 	neg	w23, w23
    17f0:	528005a1 	mov	w1, #0x2d                  	// #45
    17f4:	f9400742 	ldr	x2, [x26, #8]
    17f8:	aa1a03e0 	mov	x0, x26
    17fc:	d63f0040 	blr	x2
    1800:	aa1b03e1 	mov	x1, x27
    1804:	93407ee0 	sxtw	x0, w23
    1808:	52800142 	mov	w2, #0xa                   	// #10
    180c:	94000000 	bl	1e5c <__ultoa_invert>	180c: R_AARCH64_CALL26	__ultoa_invert
    1810:	cb1b0015 	sub	x21, x0, x27
    1814:	12001eb9 	and	w25, w21, #0xff
    1818:	710026ff 	cmp	w23, #0x9
    181c:	540003ec 	b.gt	1898 <vdprintf+0x938>
    1820:	f9400742 	ldr	x2, [x26, #8]
    1824:	11000e94 	add	w20, w20, #0x3
    1828:	aa1a03e0 	mov	x0, x26
    182c:	52800601 	mov	w1, #0x30                  	// #48
    1830:	d63f0040 	blr	x2
    1834:	8b350375 	add	x21, x27, w21, uxtb
    1838:	2a1903f7 	mov	w23, w25
    183c:	14000013 	b	1888 <vdprintf+0x928>
    1840:	52800601 	mov	w1, #0x30                  	// #48
    1844:	17ffffd4 	b	1794 <vdprintf+0x834>
    1848:	37200078 	tbnz	w24, #4, 1854 <vdprintf+0x8f4>
    184c:	11000694 	add	w20, w20, #0x1
    1850:	17ffffdb 	b	17bc <vdprintf+0x85c>
    1854:	11000a94 	add	w20, w20, #0x2
    1858:	aa1a03e0 	mov	x0, x26
    185c:	528005c1 	mov	w1, #0x2e                  	// #46
    1860:	d63f0040 	blr	x2
    1864:	17ffffd6 	b	17bc <vdprintf+0x85c>
    1868:	52800561 	mov	w1, #0x2b                  	// #43
    186c:	17ffffe2 	b	17f4 <vdprintf+0x894>
    1870:	f9400742 	ldr	x2, [x26, #8]
    1874:	510006f7 	sub	w23, w23, #0x1
    1878:	394002a1 	ldrb	w1, [x21]
    187c:	aa1a03e0 	mov	x0, x26
    1880:	12001ef7 	and	w23, w23, #0xff
    1884:	d63f0040 	blr	x2
    1888:	d10006b5 	sub	x21, x21, #0x1
    188c:	35ffff37 	cbnz	w23, 1870 <vdprintf+0x910>
    1890:	0b140335 	add	w21, w25, w20
    1894:	17ffffa4 	b	1724 <vdprintf+0x7c4>
    1898:	11000a94 	add	w20, w20, #0x2
    189c:	17ffffe6 	b	1834 <vdprintf+0x8d4>
    18a0:	37f8045c 	tbnz	w28, #31, 1928 <vdprintf+0x9c8>
    18a4:	91002ed3 	add	x19, x22, #0xb
    18a8:	2a1c03e0 	mov	w0, w28
    18ac:	927df273 	and	x19, x19, #0xfffffffffffffff8
    18b0:	b94002c1 	ldr	w1, [x22]
    18b4:	2a0003fc 	mov	w28, w0
    18b8:	910263f6 	add	x22, sp, #0x98
    18bc:	d2800039 	mov	x25, #0x1                   	// #1
    18c0:	390263e1 	strb	w1, [sp, #152]
    18c4:	37180198 	tbnz	w24, #3, 18f4 <vdprintf+0x994>
    18c8:	93407cf5 	sxtw	x21, w7
    18cc:	aa1503fb 	mov	x27, x21
    18d0:	eb1b033f 	cmp	x25, x27
    18d4:	54000523 	b.cc	1978 <vdprintf+0xa18>  // b.lo, b.ul, b.last
    18d8:	eb15033f 	cmp	x25, x21
    18dc:	cb1902a0 	sub	x0, x21, x25
    18e0:	4b150321 	sub	w1, w25, w21
    18e4:	1a9f9000 	csel	w0, w0, wzr, ls	// ls = plast
    18e8:	1a9f9021 	csel	w1, w1, wzr, ls	// ls = plast
    18ec:	0b140014 	add	w20, w0, w20
    18f0:	0b070027 	add	w7, w1, w7
    18f4:	f9400b43 	ldr	x3, [x26, #16]
    18f8:	aa1603e1 	mov	x1, x22
    18fc:	aa1903e2 	mov	x2, x25
    1900:	aa1a03e0 	mov	x0, x26
    1904:	b90077e7 	str	w7, [sp, #116]
    1908:	0b190295 	add	w21, w20, w25
    190c:	d63f0060 	blr	x3
    1910:	294e1fe0 	ldp	w0, w7, [sp, #112]
    1914:	b90077e0 	str	w0, [sp, #116]
    1918:	4b1900f6 	sub	w22, w7, w25
    191c:	eb27c33f 	cmp	x25, w7, sxtw
    1920:	1a9f92d6 	csel	w22, w22, wzr, ls	// ls = plast
    1924:	17ffff80 	b	1724 <vdprintf+0x7c4>
    1928:	11002380 	add	w0, w28, #0x8
    192c:	7100001f 	cmp	w0, #0x0
    1930:	5400008d 	b.le	1940 <vdprintf+0x9e0>
    1934:	91002ed3 	add	x19, x22, #0xb
    1938:	927df273 	and	x19, x19, #0xfffffffffffffff8
    193c:	17ffffdd 	b	18b0 <vdprintf+0x950>
    1940:	f94037e1 	ldr	x1, [sp, #104]
    1944:	aa1603f3 	mov	x19, x22
    1948:	8b3cc036 	add	x22, x1, w28, sxtw
    194c:	17ffffd9 	b	18b0 <vdprintf+0x950>
    1950:	1100239b 	add	w27, w28, #0x8
    1954:	7100037f 	cmp	w27, #0x0
    1958:	5400008d 	b.le	1968 <vdprintf+0xa08>
    195c:	91003ed3 	add	x19, x22, #0xf
    1960:	927df273 	and	x19, x19, #0xfffffffffffffff8
    1964:	17fffde7 	b	1100 <vdprintf+0x1a0>
    1968:	f94037e0 	ldr	x0, [sp, #104]
    196c:	aa1603f3 	mov	x19, x22
    1970:	8b3cc016 	add	x22, x0, w28, sxtw
    1974:	17fffde3 	b	1100 <vdprintf+0x1a0>
    1978:	f9400742 	ldr	x2, [x26, #8]
    197c:	aa1a03e0 	mov	x0, x26
    1980:	52800401 	mov	w1, #0x20                  	// #32
    1984:	b90077e7 	str	w7, [sp, #116]
    1988:	d100077b 	sub	x27, x27, #0x1
    198c:	d63f0040 	blr	x2
    1990:	b94077e7 	ldr	w7, [sp, #116]
    1994:	17ffffcf 	b	18d0 <vdprintf+0x970>
    1998:	11002397 	add	w23, w28, #0x8
    199c:	710002ff 	cmp	w23, #0x0
    19a0:	5400008d 	b.le	19b0 <vdprintf+0xa50>
    19a4:	91003ed3 	add	x19, x22, #0xf
    19a8:	927df273 	and	x19, x19, #0xfffffffffffffff8
    19ac:	17fffe49 	b	12d0 <vdprintf+0x370>
    19b0:	f94037e0 	ldr	x0, [sp, #104]
    19b4:	aa1603f3 	mov	x19, x22
    19b8:	8b3cc016 	add	x22, x0, w28, sxtw
    19bc:	17fffe45 	b	12d0 <vdprintf+0x370>
    19c0:	37f8011c 	tbnz	w28, #31, 19e0 <vdprintf+0xa80>
    19c4:	91002ed3 	add	x19, x22, #0xb
    19c8:	2a1c03f7 	mov	w23, w28
    19cc:	927df273 	and	x19, x19, #0xfffffffffffffff8
    19d0:	b94002c0 	ldr	w0, [x22]
    19d4:	375001b8 	tbnz	w24, #10, 1a08 <vdprintf+0xaa8>
    19d8:	93407c00 	sxtw	x0, w0
    19dc:	17fffe3e 	b	12d4 <vdprintf+0x374>
    19e0:	11002397 	add	w23, w28, #0x8
    19e4:	710002ff 	cmp	w23, #0x0
    19e8:	5400008d 	b.le	19f8 <vdprintf+0xa98>
    19ec:	91002ed3 	add	x19, x22, #0xb
    19f0:	927df273 	and	x19, x19, #0xfffffffffffffff8
    19f4:	17fffff7 	b	19d0 <vdprintf+0xa70>
    19f8:	f94037e0 	ldr	x0, [sp, #104]
    19fc:	aa1603f3 	mov	x19, x22
    1a00:	8b3cc016 	add	x22, x0, w28, sxtw
    1a04:	17fffff3 	b	19d0 <vdprintf+0xa70>
    1a08:	93403c01 	sxth	x1, w0
    1a0c:	f275031f 	tst	x24, #0x800
    1a10:	93401c00 	sxtb	x0, w0
    1a14:	9a811000 	csel	x0, x0, x1, ne	// ne = any
    1a18:	17fffe2f 	b	12d4 <vdprintf+0x374>
    1a1c:	910263fb 	add	x27, sp, #0x98
    1a20:	52800142 	mov	w2, #0xa                   	// #10
    1a24:	b90077e7 	str	w7, [sp, #116]
    1a28:	aa1b03e1 	mov	x1, x27
    1a2c:	94000000 	bl	1e5c <__ultoa_invert>	1a2c: R_AARCH64_CALL26	__ultoa_invert
    1a30:	cb1b0000 	sub	x0, x0, x27
    1a34:	b94077e7 	ldr	w7, [sp, #116]
    1a38:	12001c1b 	and	w27, w0, #0xff
    1a3c:	34000ab6 	cbz	w22, 1b90 <vdprintf+0xc30>
    1a40:	121f3b21 	and	w1, w25, #0xfffe
    1a44:	6b15037f 	cmp	w27, w21
    1a48:	54000e2a 	b.ge	1c0c <vdprintf+0xcac>  // b.tcont
    1a4c:	12001ea0 	and	w0, w21, #0xff
    1a50:	36200f59 	tbz	w25, #4, 1c38 <vdprintf+0xcd8>
    1a54:	37700e19 	tbnz	w25, #14, 1c14 <vdprintf+0xcb4>
    1a58:	12800221 	mov	w1, #0xffffffee            	// #-18
    1a5c:	0a010339 	and	w25, w25, w1
    1a60:	17fffe2b 	b	130c <vdprintf+0x3ac>
    1a64:	34000460 	cbz	w0, 1af0 <vdprintf+0xb90>
    1a68:	37f8031c 	tbnz	w28, #31, 1ac8 <vdprintf+0xb68>
    1a6c:	91003ed3 	add	x19, x22, #0xf
    1a70:	2a1c03f7 	mov	w23, w28
    1a74:	927df273 	and	x19, x19, #0xfffffffffffffff8
    1a78:	f94002c0 	ldr	x0, [x22]
    1a7c:	121d7719 	and	w25, w24, #0xfffffff9
    1a80:	12003f39 	and	w25, w25, #0xffff
    1a84:	7101c37f 	cmp	w27, #0x70
    1a88:	54000aa0 	b.eq	1bdc <vdprintf+0xc7c>  // b.none
    1a8c:	54000608 	b.hi	1b4c <vdprintf+0xbec>  // b.pmore
    1a90:	7101637f 	cmp	w27, #0x58
    1a94:	54000aa0 	b.eq	1be8 <vdprintf+0xc88>  // b.none
    1a98:	7101bf7f 	cmp	w27, #0x6f
    1a9c:	54000ae0 	b.eq	1bf8 <vdprintf+0xc98>  // b.none
    1aa0:	f9400742 	ldr	x2, [x26, #8]
    1aa4:	aa1a03e0 	mov	x0, x26
    1aa8:	528004a1 	mov	w1, #0x25                  	// #37
    1aac:	11000a94 	add	w20, w20, #0x2
    1ab0:	d63f0040 	blr	x2
    1ab4:	f9400742 	ldr	x2, [x26, #8]
    1ab8:	2a1b03e1 	mov	w1, w27
    1abc:	aa1a03e0 	mov	x0, x26
    1ac0:	d63f0040 	blr	x2
    1ac4:	140000b1 	b	1d88 <vdprintf+0xe28>
    1ac8:	11002397 	add	w23, w28, #0x8
    1acc:	710002ff 	cmp	w23, #0x0
    1ad0:	5400008d 	b.le	1ae0 <vdprintf+0xb80>
    1ad4:	91003ed3 	add	x19, x22, #0xf
    1ad8:	927df273 	and	x19, x19, #0xfffffffffffffff8
    1adc:	17ffffe7 	b	1a78 <vdprintf+0xb18>
    1ae0:	f94037e0 	ldr	x0, [sp, #104]
    1ae4:	aa1603f3 	mov	x19, x22
    1ae8:	8b3cc016 	add	x22, x0, w28, sxtw
    1aec:	17ffffe3 	b	1a78 <vdprintf+0xb18>
    1af0:	37f8011c 	tbnz	w28, #31, 1b10 <vdprintf+0xbb0>
    1af4:	91002ed3 	add	x19, x22, #0xb
    1af8:	2a1c03f7 	mov	w23, w28
    1afc:	927df273 	and	x19, x19, #0xfffffffffffffff8
    1b00:	b94002c0 	ldr	w0, [x22]
    1b04:	375001b8 	tbnz	w24, #10, 1b38 <vdprintf+0xbd8>
    1b08:	2a0003e0 	mov	w0, w0
    1b0c:	17ffffdc 	b	1a7c <vdprintf+0xb1c>
    1b10:	11002397 	add	w23, w28, #0x8
    1b14:	710002ff 	cmp	w23, #0x0
    1b18:	5400008d 	b.le	1b28 <vdprintf+0xbc8>
    1b1c:	91002ed3 	add	x19, x22, #0xb
    1b20:	927df273 	and	x19, x19, #0xfffffffffffffff8
    1b24:	17fffff7 	b	1b00 <vdprintf+0xba0>
    1b28:	f94037e0 	ldr	x0, [sp, #104]
    1b2c:	aa1603f3 	mov	x19, x22
    1b30:	8b3cc016 	add	x22, x0, w28, sxtw
    1b34:	17fffff3 	b	1b00 <vdprintf+0xba0>
    1b38:	92403c01 	and	x1, x0, #0xffff
    1b3c:	f275031f 	tst	x24, #0x800
    1b40:	92401c00 	and	x0, x0, #0xff
    1b44:	9a811000 	csel	x0, x0, x1, ne	// ne = any
    1b48:	17ffffcd 	b	1a7c <vdprintf+0xb1c>
    1b4c:	7101d77f 	cmp	w27, #0x75
    1b50:	540000c0 	b.eq	1b68 <vdprintf+0xc08>  // b.none
    1b54:	7101e37f 	cmp	w27, #0x78
    1b58:	54fffa41 	b.ne	1aa0 <vdprintf+0xb40>  // b.any
    1b5c:	37200438 	tbnz	w24, #4, 1be0 <vdprintf+0xc80>
    1b60:	52800202 	mov	w2, #0x10                  	// #16
    1b64:	14000004 	b	1b74 <vdprintf+0xc14>
    1b68:	128002d9 	mov	w25, #0xffffffe9            	// #-23
    1b6c:	0a190319 	and	w25, w24, w25
    1b70:	52800142 	mov	w2, #0xa                   	// #10
    1b74:	12180336 	and	w22, w25, #0x100
    1b78:	36400459 	tbz	w25, #8, 1c00 <vdprintf+0xca0>
    1b7c:	710002bf 	cmp	w21, #0x0
    1b80:	fa400800 	ccmp	x0, #0x0, #0x0, eq	// eq = none
    1b84:	540003e1 	b.ne	1c00 <vdprintf+0xca0>  // b.any
    1b88:	121f3b39 	and	w25, w25, #0xfffe
    1b8c:	5280001b 	mov	w27, #0x0                   	// #0
    1b90:	2a1b03e0 	mov	w0, w27
    1b94:	3627bbd9 	tbz	w25, #4, 130c <vdprintf+0x3ac>
    1b98:	51000761 	sub	w1, w27, #0x1
    1b9c:	910263e2 	add	x2, sp, #0x98
    1ba0:	3861c841 	ldrb	w1, [x2, w1, sxtw]
    1ba4:	7100c03f 	cmp	w1, #0x30
    1ba8:	540003a1 	b.ne	1c1c <vdprintf+0xcbc>  // b.any
    1bac:	128c0201 	mov	w1, #0xffff9fef            	// #-24593
    1bb0:	0a010339 	and	w25, w25, w1
    1bb4:	371805d9 	tbnz	w25, #3, 1c6c <vdprintf+0xd0c>
    1bb8:	360000d9 	tbz	w25, #0, 1bd0 <vdprintf+0xc70>
    1bbc:	6b0000ff 	cmp	w7, w0
    1bc0:	540007ad 	b.le	1cb4 <vdprintf+0xd54>
    1bc4:	4b0000e0 	sub	w0, w7, w0
    1bc8:	0b1b0015 	add	w21, w0, w27
    1bcc:	12001ce0 	and	w0, w7, #0xff
    1bd0:	4b140000 	sub	w0, w0, w20
    1bd4:	12001c16 	and	w22, w0, #0xff
    1bd8:	14000021 	b	1c5c <vdprintf+0xcfc>
    1bdc:	321c0339 	orr	w25, w25, #0x10
    1be0:	32120339 	orr	w25, w25, #0x4000
    1be4:	17ffffdf 	b	1b60 <vdprintf+0xc00>
    1be8:	36200058 	tbz	w24, #4, 1bf0 <vdprintf+0xc90>
    1bec:	32130739 	orr	w25, w25, #0x6000
    1bf0:	52804202 	mov	w2, #0x210                 	// #528
    1bf4:	17ffffe0 	b	1b74 <vdprintf+0xc14>
    1bf8:	52800102 	mov	w2, #0x8                   	// #8
    1bfc:	17ffffde 	b	1b74 <vdprintf+0xc14>
    1c00:	910263fb 	add	x27, sp, #0x98
    1c04:	b90077e7 	str	w7, [sp, #116]
    1c08:	17ffff88 	b	1a28 <vdprintf+0xac8>
    1c0c:	2a0103f9 	mov	w25, w1
    1c10:	17ffffe0 	b	1b90 <vdprintf+0xc30>
    1c14:	2a0103f9 	mov	w25, w1
    1c18:	17ffffe0 	b	1b98 <vdprintf+0xc38>
    1c1c:	11000401 	add	w1, w0, #0x1
    1c20:	11000800 	add	w0, w0, #0x2
    1c24:	12001c21 	and	w1, w1, #0xff
    1c28:	12001c00 	and	w0, w0, #0xff
    1c2c:	f272033f 	tst	x25, #0x4000
    1c30:	1a811000 	csel	w0, w0, w1, ne	// ne = any
    1c34:	17ffffe0 	b	1bb4 <vdprintf+0xc54>
    1c38:	2a0103f9 	mov	w25, w1
    1c3c:	17fffdb4 	b	130c <vdprintf+0x3ac>
    1c40:	f9400742 	ldr	x2, [x26, #8]
    1c44:	aa1a03e0 	mov	x0, x26
    1c48:	52800401 	mov	w1, #0x20                  	// #32
    1c4c:	b90077e7 	str	w7, [sp, #116]
    1c50:	11000694 	add	w20, w20, #0x1
    1c54:	d63f0040 	blr	x2
    1c58:	b94077e7 	ldr	w7, [sp, #116]
    1c5c:	0b1402c1 	add	w1, w22, w20
    1c60:	12001c20 	and	w0, w1, #0xff
    1c64:	6b2100ff 	cmp	w7, w1, uxtb
    1c68:	54fffecc 	b.gt	1c40 <vdprintf+0xce0>
    1c6c:	6b0000f6 	subs	w22, w7, w0
    1c70:	1a9fc2d6 	csel	w22, w22, wzr, gt
    1c74:	36200259 	tbz	w25, #4, 1cbc <vdprintf+0xd5c>
    1c78:	f9400742 	ldr	x2, [x26, #8]
    1c7c:	aa1a03e0 	mov	x0, x26
    1c80:	52800601 	mov	w1, #0x30                  	// #48
    1c84:	d63f0040 	blr	x2
    1c88:	36700599 	tbz	w25, #14, 1d38 <vdprintf+0xdd8>
    1c8c:	f9400742 	ldr	x2, [x26, #8]
    1c90:	f273033f 	tst	x25, #0x2000
    1c94:	52800f01 	mov	w1, #0x78                  	// #120
    1c98:	52800b00 	mov	w0, #0x58                  	// #88
    1c9c:	11000a94 	add	w20, w20, #0x2
    1ca0:	1a800021 	csel	w1, w1, w0, eq	// eq = none
    1ca4:	aa1a03e0 	mov	x0, x26
    1ca8:	d63f0040 	blr	x2
    1cac:	2a1503f9 	mov	w25, w21
    1cb0:	14000015 	b	1d04 <vdprintf+0xda4>
    1cb4:	2a1b03f5 	mov	w21, w27
    1cb8:	17ffffc6 	b	1bd0 <vdprintf+0xc70>
    1cbc:	528200c0 	mov	w0, #0x1006                	// #4102
    1cc0:	6a00033f 	tst	w25, w0
    1cc4:	54ffff40 	b.eq	1cac <vdprintf+0xd4c>  // b.none
    1cc8:	f27f033f 	tst	x25, #0x2
    1ccc:	52800401 	mov	w1, #0x20                  	// #32
    1cd0:	52800560 	mov	w0, #0x2b                  	// #43
    1cd4:	1a811000 	csel	w0, w0, w1, ne	// ne = any
    1cd8:	f274033f 	tst	x25, #0x1000
    1cdc:	528005a1 	mov	w1, #0x2d                  	// #45
    1ce0:	f9400742 	ldr	x2, [x26, #8]
    1ce4:	11000694 	add	w20, w20, #0x1
    1ce8:	1a810001 	csel	w1, w0, w1, eq	// eq = none
    1cec:	17ffffee 	b	1ca4 <vdprintf+0xd44>
    1cf0:	f9400742 	ldr	x2, [x26, #8]
    1cf4:	aa1a03e0 	mov	x0, x26
    1cf8:	51000739 	sub	w25, w25, #0x1
    1cfc:	52800601 	mov	w1, #0x30                  	// #48
    1d00:	d63f0040 	blr	x2
    1d04:	6b1b033f 	cmp	w25, w27
    1d08:	54ffff4c 	b.gt	1cf0 <vdprintf+0xd90>
    1d0c:	6b1b02a0 	subs	w0, w21, w27
    1d10:	2a1b03fc 	mov	w28, w27
    1d14:	1a9fa000 	csel	w0, w0, wzr, ge	// ge = tcont
    1d18:	0b140015 	add	w21, w0, w20
    1d1c:	910263f4 	add	x20, sp, #0x98
    1d20:	3500011b 	cbnz	w27, 1d40 <vdprintf+0xde0>
    1d24:	b94073e0 	ldr	w0, [sp, #112]
    1d28:	0b150395 	add	w21, w28, w21
    1d2c:	2a1703fc 	mov	w28, w23
    1d30:	b90077e0 	str	w0, [sp, #116]
    1d34:	17fffe7c 	b	1724 <vdprintf+0x7c4>
    1d38:	11000694 	add	w20, w20, #0x1
    1d3c:	17ffffdc 	b	1cac <vdprintf+0xd4c>
    1d40:	51000760 	sub	w0, w27, #0x1
    1d44:	12001c1b 	and	w27, w0, #0xff
    1d48:	92401c00 	and	x0, x0, #0xff
    1d4c:	f9400742 	ldr	x2, [x26, #8]
    1d50:	38606a81 	ldrb	w1, [x20, x0]
    1d54:	aa1a03e0 	mov	x0, x26
    1d58:	d63f0040 	blr	x2
    1d5c:	17fffff1 	b	1d20 <vdprintf+0xdc0>
    1d60:	f9400742 	ldr	x2, [x26, #8]
    1d64:	aa1a03e0 	mov	x0, x26
    1d68:	51000694 	sub	w20, w20, #0x1
    1d6c:	52800401 	mov	w1, #0x20                  	// #32
    1d70:	d63f0040 	blr	x2
    1d74:	35ffff74 	cbnz	w20, 1d60 <vdprintf+0xe00>
    1d78:	b94077e0 	ldr	w0, [sp, #116]
    1d7c:	0b1602b4 	add	w20, w21, w22
    1d80:	2a1c03f7 	mov	w23, w28
    1d84:	b90073e0 	str	w0, [sp, #112]
    1d88:	f9403fe3 	ldr	x3, [sp, #120]
    1d8c:	2a1703fc 	mov	w28, w23
    1d90:	aa1303f6 	mov	x22, x19
    1d94:	17fffc9a 	b	ffc <vdprintf+0x9c>
    1d98:	f9402bfc 	ldr	x28, [sp, #80]
    1d9c:	2a1403e0 	mov	w0, w20
    1da0:	a94157f4 	ldp	x20, x21, [sp, #16]
    1da4:	a9425ff6 	ldp	x22, x23, [sp, #32]
    1da8:	a94367f8 	ldp	x24, x25, [sp, #48]
    1dac:	a9446ffa 	ldp	x26, x27, [sp, #64]
    1db0:	a8cb4ffe 	ldp	x30, x19, [sp], #176
    1db4:	d65f03c0 	ret

0000000000001db8 <lib_sprintf_internal>:
lib_sprintf_internal():
    1db8:	d10403ff 	sub	sp, sp, #0x100
    1dbc:	a90d0fe2 	stp	x2, x3, [sp, #208]
    1dc0:	910403e2 	add	x2, sp, #0x100
    1dc4:	aa0103e3 	mov	x3, x1
    1dc8:	a9030be2 	stp	x2, x2, [sp, #48]
    1dcc:	910343e2 	add	x2, sp, #0xd0
    1dd0:	d2800001 	mov	x1, #0x0                   	// #0
    1dd4:	3dc00fff 	ldr	q31, [sp, #48]
    1dd8:	f90023e2 	str	x2, [sp, #64]
    1ddc:	128005e2 	mov	w2, #0xffffffd0            	// #-48
    1de0:	b9004be2 	str	w2, [sp, #72]
    1de4:	12800fe2 	mov	w2, #0xffffff80            	// #-128
    1de8:	b9004fe2 	str	w2, [sp, #76]
    1dec:	3d8007ff 	str	q31, [sp, #16]
    1df0:	52800002 	mov	w2, #0x0                   	// #0
    1df4:	3dc013ff 	ldr	q31, [sp, #64]
    1df8:	f90003fe 	str	x30, [sp]
    1dfc:	ad0287e0 	stp	q0, q1, [sp, #80]
    1e00:	3d800bff 	str	q31, [sp, #32]
    1e04:	ad038fe2 	stp	q2, q3, [sp, #112]
    1e08:	ad0497e4 	stp	q4, q5, [sp, #144]
    1e0c:	ad059fe6 	stp	q6, q7, [sp, #176]
    1e10:	a90e17e4 	stp	x4, x5, [sp, #224]
    1e14:	910043e4 	add	x4, sp, #0x10
    1e18:	a90f1fe6 	stp	x6, x7, [sp, #240]
    1e1c:	94000000 	bl	0 <memcpy>	1e1c: R_AARCH64_CALL26	.text+0xfc4
    1e20:	f94003fe 	ldr	x30, [sp]
    1e24:	910403ff 	add	sp, sp, #0x100
    1e28:	d65f03c0 	ret

0000000000001e2c <lib_vsprintf_internal>:
lib_vsprintf_internal():
    1e2c:	f81d0ffe 	str	x30, [sp, #-48]!
    1e30:	aa0103e3 	mov	x3, x1
    1e34:	d2800001 	mov	x1, #0x0                   	// #0
    1e38:	ad407c5e 	ldp	q30, q31, [x2]
    1e3c:	910043e4 	add	x4, sp, #0x10
    1e40:	52800002 	mov	w2, #0x0                   	// #0
    1e44:	3d8007fe 	str	q30, [sp, #16]
    1e48:	3d80049f 	str	q31, [x4, #16]
    1e4c:	94000000 	bl	0 <memcpy>	1e4c: R_AARCH64_CALL26	.text+0xfc4
    1e50:	f84307fe 	ldr	x30, [sp], #48
    1e54:	d65f03c0 	ret

0000000000001e58 <lib_vsprintf>:
lib_vsprintf():
    1e58:	14000000 	b	1e2c <lib_vsprintf_internal>	1e58: R_AARCH64_JUMP26	lib_vsprintf_internal

0000000000001e5c <__ultoa_invert>:
__ultoa_invert():
    1e5c:	aa0003e4 	mov	x4, x0
    1e60:	aa0103e0 	mov	x0, x1
    1e64:	12170041 	and	w1, w2, #0x200
    1e68:	36480062 	tbz	w2, #9, 1e74 <__ultoa_invert+0x18>
    1e6c:	12167842 	and	w2, w2, #0xfffffdff
    1e70:	52800021 	mov	w1, #0x1                   	// #1
    1e74:	93407c42 	sxtw	x2, w2
    1e78:	9ac20885 	udiv	x5, x4, x2
    1e7c:	aa0403e6 	mov	x6, x4
    1e80:	9b0290a3 	msub	x3, x5, x2, x4
    1e84:	aa0503e4 	mov	x4, x5
    1e88:	7100247f 	cmp	w3, #0x9
    1e8c:	540000cc 	b.gt	1ea4 <__ultoa_invert+0x48>
    1e90:	1100c063 	add	w3, w3, #0x30
    1e94:	38001403 	strb	w3, [x0], #1
    1e98:	eb06005f 	cmp	x2, x6
    1e9c:	54fffee9 	b.ls	1e78 <__ultoa_invert+0x1c>  // b.plast
    1ea0:	d65f03c0 	ret
    1ea4:	1100dc65 	add	w5, w3, #0x37
    1ea8:	7100003f 	cmp	w1, #0x0
    1eac:	11015c63 	add	w3, w3, #0x57
    1eb0:	1a850063 	csel	w3, w3, w5, eq	// eq = none
    1eb4:	17fffff8 	b	1e94 <__ultoa_invert+0x38>

0000000000001eb8 <__dtoa_engine>:
__dtoa_engine():
    1eb8:	1e602018 	fcmpe	d0, #0.0
    1ebc:	aa0003e4 	mov	x4, x0
    1ec0:	2a0103e0 	mov	w0, w1
    1ec4:	540000e4 	b.mi	1ee0 <__dtoa_engine+0x28>  // b.first
    1ec8:	1e602008 	fcmp	d0, #0.0
    1ecc:	54000480 	b.eq	1f5c <__dtoa_engine+0xa4>  // b.none
    1ed0:	1e602000 	fcmp	d0, d0
    1ed4:	54000c81 	b.ne	2064 <__dtoa_engine+0x1ac>  // b.any
    1ed8:	52800001 	mov	w1, #0x0                   	// #0
    1edc:	14000003 	b	1ee8 <__dtoa_engine+0x30>
    1ee0:	1e614000 	fneg	d0, d0
    1ee4:	52800021 	mov	w1, #0x1                   	// #1
    1ee8:	90000003 	adrp	x3, ebb8 <_srodata>	1ee8: R_AARCH64_ADR_PREL_PG_HI21	.rodata+0x58
    1eec:	fd400065 	ldr	d5, [x3]	1eec: R_AARCH64_LDST64_ABS_LO12_NC	.rodata+0x58
    1ef0:	1e6508a5 	fmul	d5, d5, d5
    1ef4:	1e6020a0 	fcmp	d5, d0
    1ef8:	540003a0 	b.eq	1f6c <__dtoa_engine+0xb4>  // b.none
    1efc:	90000003 	adrp	x3, ebb8 <_srodata>	1efc: R_AARCH64_ADR_PREL_PG_HI21	.rodata+0x60
    1f00:	d2800105 	mov	x5, #0x8                   	// #8
    1f04:	fd40007e 	ldr	d30, [x3]	1f04: R_AARCH64_LDST64_ABS_LO12_NC	.rodata+0x60
    1f08:	528001e3 	mov	w3, #0xf                   	// #15
    1f0c:	1e7e2010 	fcmpe	d0, d30
    1f10:	54000324 	b.mi	1f74 <__dtoa_engine+0xbc>  // b.first
    1f14:	90000006 	adrp	x6, eca8 <g_dtoa_scale_down>	1f14: R_AARCH64_ADR_PREL_PG_HI21	g_dtoa_scale_down
    1f18:	910000c6 	add	x6, x6, #0x0	1f18: R_AARCH64_ADD_ABS_LO12_NC	g_dtoa_scale_down
    1f1c:	52800027 	mov	w7, #0x1                   	// #1
    1f20:	fc6578c2 	ldr	d2, [x6, x5, lsl #3]
    1f24:	1e620802 	fmul	d2, d0, d2
    1f28:	1e7e2050 	fcmpe	d2, d30
    1f2c:	540007ea 	b.ge	2028 <__dtoa_engine+0x170>  // b.tcont
    1f30:	d10004a5 	sub	x5, x5, #0x1
    1f34:	b10004bf 	cmn	x5, #0x1
    1f38:	54ffff41 	b.ne	1f20 <__dtoa_engine+0x68>  // b.any
    1f3c:	1400001a 	b	1fa4 <__dtoa_engine+0xec>
    1f40:	38216843 	strb	w3, [x2, x1]
    1f44:	91000421 	add	x1, x1, #0x1
    1f48:	6b01001f 	cmp	w0, w1
    1f4c:	54ffffac 	b.gt	1f40 <__dtoa_engine+0x88>
    1f50:	52800041 	mov	w1, #0x2                   	// #2
    1f54:	52800003 	mov	w3, #0x0                   	// #0
    1f58:	1400002b 	b	2004 <__dtoa_engine+0x14c>
    1f5c:	91001482 	add	x2, x4, #0x5
    1f60:	d2800001 	mov	x1, #0x0                   	// #0
    1f64:	52800603 	mov	w3, #0x30                  	// #48
    1f68:	17fffff8 	b	1f48 <__dtoa_engine+0x90>
    1f6c:	321e0021 	orr	w1, w1, #0x4
    1f70:	17fffff9 	b	1f54 <__dtoa_engine+0x9c>
    1f74:	90000007 	adrp	x7, ebb8 <_srodata>	1f74: R_AARCH64_ADR_PREL_PG_HI21	.rodata+0x68
    1f78:	90000006 	adrp	x6, ecf0 <g_dtoa_scale_up>	1f78: R_AARCH64_ADR_PREL_PG_HI21	g_dtoa_scale_up
    1f7c:	910000c6 	add	x6, x6, #0x0	1f7c: R_AARCH64_ADD_ABS_LO12_NC	g_dtoa_scale_up
    1f80:	fd4000e4 	ldr	d4, [x7]	1f80: R_AARCH64_LDST64_ABS_LO12_NC	.rodata+0x68
    1f84:	52800027 	mov	w7, #0x1                   	// #1
    1f88:	fc6578c3 	ldr	d3, [x6, x5, lsl #3]
    1f8c:	1e630803 	fmul	d3, d0, d3
    1f90:	1e642070 	fcmpe	d3, d4
    1f94:	54000424 	b.mi	2018 <__dtoa_engine+0x160>  // b.first
    1f98:	d10004a5 	sub	x5, x5, #0x1
    1f9c:	b10004bf 	cmn	x5, #0x1
    1fa0:	54ffff41 	b.ne	1f88 <__dtoa_engine+0xd0>  // b.any
    1fa4:	340000e2 	cbz	w2, 1fc0 <__dtoa_engine+0x108>
    1fa8:	7100007f 	cmp	w3, #0x0
    1fac:	5a9fa065 	csinv	w5, w3, wzr, ge	// ge = tcont
    1fb0:	110004a5 	add	w5, w5, #0x1
    1fb4:	0b0200a2 	add	w2, w5, w2
    1fb8:	6b02001f 	cmp	w0, w2
    1fbc:	1a82d000 	csel	w0, w0, w2, le
    1fc0:	90000002 	adrp	x2, ec28 <g_dtoa_round>	1fc0: R_AARCH64_ADR_PREL_PG_HI21	g_dtoa_round
    1fc4:	91000042 	add	x2, x2, #0x0	1fc4: R_AARCH64_ADD_ABS_LO12_NC	g_dtoa_round
    1fc8:	fc60d85f 	ldr	d31, [x2, w0, sxtw #3]
    1fcc:	90000002 	adrp	x2, ebb8 <_srodata>	1fcc: R_AARCH64_ADR_PREL_PG_HI21	.rodata+0x68
    1fd0:	fd400041 	ldr	d1, [x2]	1fd0: R_AARCH64_LDST64_ABS_LO12_NC	.rodata+0x68
    1fd4:	1e7f281f 	fadd	d31, d0, d31
    1fd8:	1e6123f0 	fcmpe	d31, d1
    1fdc:	540002ea 	b.ge	2038 <__dtoa_engine+0x180>  // b.tcont
    1fe0:	9e7903e6 	fcvtzu	x6, d31
    1fe4:	b2718be5 	mov	x5, #0x3ffffffff8000       	// #1125899906809856
    1fe8:	f2b498c5 	movk	x5, #0xa4c6, lsl #16
    1fec:	91001488 	add	x8, x4, #0x5
    1ff0:	d2800002 	mov	x2, #0x0                   	// #0
    1ff4:	f2d1afc5 	movk	x5, #0x8d7e, lsl #32
    1ff8:	d2800149 	mov	x9, #0xa                   	// #10
    1ffc:	6b02001f 	cmp	w0, w2
    2000:	5400024c 	b.gt	2048 <__dtoa_engine+0x190>
    2004:	8b20c082 	add	x2, x4, w0, sxtw
    2008:	3900145f 	strb	wzr, [x2, #5]
    200c:	b9000083 	str	w3, [x4]
    2010:	39001081 	strb	w1, [x4, #4]
    2014:	d65f03c0 	ret
    2018:	1ac520e8 	lsl	w8, w7, w5
    201c:	1e604060 	fmov	d0, d3
    2020:	4b080063 	sub	w3, w3, w8
    2024:	17ffffdd 	b	1f98 <__dtoa_engine+0xe0>
    2028:	1ac520e8 	lsl	w8, w7, w5
    202c:	1e604040 	fmov	d0, d2
    2030:	0b080063 	add	w3, w3, w8
    2034:	17ffffbf 	b	1f30 <__dtoa_engine+0x78>
    2038:	1e64901d 	fmov	d29, #1.000000000000000000e+01
    203c:	11000463 	add	w3, w3, #0x1
    2040:	1e7d1bff 	fdiv	d31, d31, d29
    2044:	17ffffe7 	b	1fe0 <__dtoa_engine+0x128>
    2048:	9ac508c7 	udiv	x7, x6, x5
    204c:	9b0598e6 	msub	x6, x7, x5, x6
    2050:	1100c0ea 	add	w10, w7, #0x30
    2054:	9ac908a5 	udiv	x5, x5, x9
    2058:	3822690a 	strb	w10, [x8, x2]
    205c:	91000442 	add	x2, x2, #0x1
    2060:	17ffffe7 	b	1ffc <__dtoa_engine+0x144>
    2064:	52800101 	mov	w1, #0x8                   	// #8
    2068:	17ffffbb 	b	1f54 <__dtoa_engine+0x9c>

000000000000206c <exit>:
exit():
    206c:	a9be7bfd 	stp	x29, x30, [sp, #-32]!
    2070:	d2800001 	mov	x1, #0x0                   	// #0
    2074:	910003fd 	mov	x29, sp
    2078:	f9000bf3 	str	x19, [sp, #16]
    207c:	2a0003f3 	mov	w19, w0
    2080:	52800020 	mov	w0, #0x1                   	// #1
    2084:	94000000 	bl	2a1c <task_setcancelstate>	2084: R_AARCH64_CALL26	task_setcancelstate
    2088:	52800001 	mov	w1, #0x0                   	// #0
    208c:	2a1303e0 	mov	w0, w19
    2090:	94000000 	bl	218c <atexit_call_exitfuncs>	2090: R_AARCH64_CALL26	atexit_call_exitfuncs
    2094:	d2800000 	mov	x0, #0x0                   	// #0
    2098:	94000000 	bl	2bfc <fflush>	2098: R_AARCH64_CALL26	fflush
    209c:	2a1303e0 	mov	w0, w19
    20a0:	94000000 	bl	2ec0 <_exit>	20a0: R_AARCH64_CALL26	_exit

00000000000020a4 <quick_exit>:
quick_exit():
    20a4:	a9be7bfd 	stp	x29, x30, [sp, #-32]!
    20a8:	d2800001 	mov	x1, #0x0                   	// #0
    20ac:	910003fd 	mov	x29, sp
    20b0:	f9000bf3 	str	x19, [sp, #16]
    20b4:	2a0003f3 	mov	w19, w0
    20b8:	52800020 	mov	w0, #0x1                   	// #1
    20bc:	94000000 	bl	2a1c <task_setcancelstate>	20bc: R_AARCH64_CALL26	task_setcancelstate
    20c0:	52800021 	mov	w1, #0x1                   	// #1
    20c4:	2a1303e0 	mov	w0, w19
    20c8:	94000000 	bl	218c <atexit_call_exitfuncs>	20c8: R_AARCH64_CALL26	atexit_call_exitfuncs
    20cc:	2a1303e0 	mov	w0, w19
    20d0:	94000000 	bl	2ec0 <_exit>	20d0: R_AARCH64_CALL26	_exit

00000000000020d4 <_Exit>:
_Exit():
    20d4:	f81f0ffe 	str	x30, [sp, #-16]!
    20d8:	94000000 	bl	2ec0 <_exit>	20d8: R_AARCH64_CALL26	_exit

00000000000020dc <atexit_register>:
atexit_register():
    20dc:	a9bc4ffe 	stp	x30, x19, [sp, #-64]!
    20e0:	a90157f4 	stp	x20, x21, [sp, #16]
    20e4:	a9025ff6 	stp	x22, x23, [sp, #32]
    20e8:	aa0103f6 	mov	x22, x1
    20ec:	aa0203f7 	mov	x23, x2
    20f0:	f9001bf8 	str	x24, [sp, #48]
    20f4:	2a0003f8 	mov	w24, w0
    20f8:	94000000 	bl	242c <task_get_info>	20f8: R_AARCH64_CALL26	task_get_info
    20fc:	aa0003f5 	mov	x21, x0
    2100:	94000000 	bl	242c <task_get_info>	2100: R_AARCH64_CALL26	task_get_info
    2104:	b4000416 	cbz	x22, 2184 <atexit_register+0xa8>
    2108:	aa0003f4 	mov	x20, x0
    210c:	aa1503e0 	mov	x0, x21
    2110:	94000000 	bl	2534 <nxmutex_lock>	2110: R_AARCH64_CALL26	nxmutex_lock
    2114:	36f80100 	tbz	w0, #31, 2134 <atexit_register+0x58>
    2118:	4b0003f3 	neg	w19, w0
    211c:	f9401bf8 	ldr	x24, [sp, #48]
    2120:	2a1303e0 	mov	w0, w19
    2124:	a94157f4 	ldp	x20, x21, [sp, #16]
    2128:	a9425ff6 	ldp	x22, x23, [sp, #32]
    212c:	a8c44ffe 	ldp	x30, x19, [sp], #64
    2130:	d65f03c0 	ret
    2134:	b9402283 	ldr	w3, [x20, #32]
    2138:	91008281 	add	x1, x20, #0x20
    213c:	71003c7f 	cmp	w3, #0xf
    2140:	540001ec 	b.gt	217c <atexit_register+0xa0>
    2144:	93407c60 	sxtw	x0, w3
    2148:	52800304 	mov	w4, #0x18                  	// #24
    214c:	d2800302 	mov	x2, #0x18                  	// #24
    2150:	52800013 	mov	w19, #0x0                   	// #0
    2154:	9b245064 	smaddl	x4, w3, w4, x20
    2158:	11000463 	add	w3, w3, #0x1
    215c:	9b020400 	madd	x0, x0, x2, x1
    2160:	b9002898 	str	w24, [x4, #40]
    2164:	f9001896 	str	x22, [x4, #48]
    2168:	f9000c17 	str	x23, [x0, #24]
    216c:	b9002283 	str	w3, [x20, #32]
    2170:	aa1503e0 	mov	x0, x21
    2174:	94000000 	bl	26ac <nxmutex_unlock>	2174: R_AARCH64_CALL26	nxmutex_unlock
    2178:	17ffffe9 	b	211c <atexit_register+0x40>
    217c:	12800013 	mov	w19, #0xffffffff            	// #-1
    2180:	17fffffc 	b	2170 <atexit_register+0x94>
    2184:	12800013 	mov	w19, #0xffffffff            	// #-1
    2188:	17ffffe5 	b	211c <atexit_register+0x40>

000000000000218c <atexit_call_exitfuncs>:
atexit_call_exitfuncs():
    218c:	a9bd4ffe 	stp	x30, x19, [sp, #-48]!
    2190:	a90157f4 	stp	x20, x21, [sp, #16]
    2194:	2a0003f5 	mov	w21, w0
    2198:	f90013f6 	str	x22, [sp, #32]
    219c:	12001c36 	and	w22, w1, #0xff
    21a0:	94000000 	bl	242c <task_get_info>	21a0: R_AARCH64_CALL26	task_get_info
    21a4:	b9402013 	ldr	w19, [x0, #32]
    21a8:	52800301 	mov	w1, #0x18                  	// #24
    21ac:	51000674 	sub	w20, w19, #0x1
    21b0:	9b210273 	smaddl	x19, w19, w1, x0
    21b4:	36f800b4 	tbz	w20, #31, 21c8 <atexit_call_exitfuncs+0x3c>
    21b8:	f94013f6 	ldr	x22, [sp, #32]
    21bc:	a94157f4 	ldp	x20, x21, [sp, #16]
    21c0:	a8c34ffe 	ldp	x30, x19, [sp], #48
    21c4:	d65f03c0 	ret
    21c8:	a9418262 	ldp	x2, x0, [x19, #24]
    21cc:	a901fe7f 	stp	xzr, xzr, [x19, #24]
    21d0:	b9401263 	ldr	w3, [x19, #16]
    21d4:	b4000122 	cbz	x2, 21f8 <atexit_call_exitfuncs+0x6c>
    21d8:	7100087f 	cmp	w3, #0x2
    21dc:	1a9f17e1 	cset	w1, eq	// eq = none
    21e0:	6b16003f 	cmp	w1, w22
    21e4:	540000a1 	b.ne	21f8 <atexit_call_exitfuncs+0x6c>  // b.any
    21e8:	51000461 	sub	w1, w3, #0x1
    21ec:	7100043f 	cmp	w1, #0x1
    21f0:	540000a8 	b.hi	2204 <atexit_call_exitfuncs+0x78>  // b.pmore
    21f4:	d63f0040 	blr	x2
    21f8:	51000694 	sub	w20, w20, #0x1
    21fc:	d1006273 	sub	x19, x19, #0x18
    2200:	17ffffed 	b	21b4 <atexit_call_exitfuncs+0x28>
    2204:	71000c7f 	cmp	w3, #0x3
    2208:	540000a1 	b.ne	221c <atexit_call_exitfuncs+0x90>  // b.any
    220c:	aa0003e1 	mov	x1, x0
    2210:	2a1503e0 	mov	w0, w21
    2214:	d63f0040 	blr	x2
    2218:	17fffff8 	b	21f8 <atexit_call_exitfuncs+0x6c>
    221c:	7100107f 	cmp	w3, #0x4
    2220:	54fffec1 	b.ne	21f8 <atexit_call_exitfuncs+0x6c>  // b.any
    2224:	d63f0040 	blr	x2
    2228:	17fffff4 	b	21f8 <atexit_call_exitfuncs+0x6c>

000000000000222c <atexit>:
atexit():
    222c:	aa0003e1 	mov	x1, x0
    2230:	d2800003 	mov	x3, #0x0                   	// #0
    2234:	d2800002 	mov	x2, #0x0                   	// #0
    2238:	52800020 	mov	w0, #0x1                   	// #1
    223c:	14000000 	b	20dc <atexit_register>	223c: R_AARCH64_JUMP26	atexit_register

0000000000002240 <at_quick_exit>:
at_quick_exit():
    2240:	aa0003e1 	mov	x1, x0
    2244:	d2800003 	mov	x3, #0x0                   	// #0
    2248:	d2800002 	mov	x2, #0x0                   	// #0
    224c:	52800040 	mov	w0, #0x2                   	// #2
    2250:	14000000 	b	20dc <atexit_register>	2250: R_AARCH64_JUMP26	atexit_register

0000000000002254 <on_exit>:
on_exit():
    2254:	aa0103e2 	mov	x2, x1
    2258:	d2800003 	mov	x3, #0x0                   	// #0
    225c:	aa0003e1 	mov	x1, x0
    2260:	52800060 	mov	w0, #0x3                   	// #3
    2264:	14000000 	b	20dc <atexit_register>	2264: R_AARCH64_JUMP26	atexit_register

0000000000002268 <__cxa_atexit>:
__cxa_atexit():
    2268:	aa0203e3 	mov	x3, x2
    226c:	aa0103e2 	mov	x2, x1
    2270:	aa0003e1 	mov	x1, x0
    2274:	52800080 	mov	w0, #0x4                   	// #4
    2278:	14000000 	b	20dc <atexit_register>	2278: R_AARCH64_JUMP26	atexit_register
    227c:	a9be4ffe 	stp	x30, x19, [sp, #-32]!
    2280:	aa0003f3 	mov	x19, x0
    2284:	a90157f4 	stp	x20, x21, [sp, #16]
    2288:	aa0103f4 	mov	x20, x1
    228c:	aa0203f5 	mov	x21, x2
    2290:	b9402260 	ldr	w0, [x19, #32]
    2294:	aa1503e2 	mov	x2, x21
    2298:	aa1403e1 	mov	x1, x20
    229c:	94000000 	bl	2fe0 <write>	229c: R_AARCH64_CALL26	write
    22a0:	b7f800e0 	tbnz	x0, #63, 22bc <__cxa_atexit+0x54>
    22a4:	b9400261 	ldr	w1, [x19]
    22a8:	0b000021 	add	w1, w1, w0
    22ac:	b9000261 	str	w1, [x19]
    22b0:	a94157f4 	ldp	x20, x21, [sp, #16]
    22b4:	a8c24ffe 	ldp	x30, x19, [sp], #32
    22b8:	d65f03c0 	ret
    22bc:	94000000 	bl	2454 <__errno>	22bc: R_AARCH64_CALL26	__errno
    22c0:	b9400003 	ldr	w3, [x0]
    22c4:	7100007f 	cmp	w3, #0x0
    22c8:	540000ec 	b.gt	22e4 <__cxa_atexit+0x7c>
    22cc:	90000002 	adrp	x2, ebb8 <_srodata>	22cc: R_AARCH64_ADR_PREL_PG_HI21	.rodata+0x180
    22d0:	90000000 	adrp	x0, ebb8 <_srodata>	22d0: R_AARCH64_ADR_PREL_PG_HI21	.rodata+0x18d
    22d4:	91000042 	add	x2, x2, #0x0	22d4: R_AARCH64_ADD_ABS_LO12_NC	.rodata+0x180
    22d8:	91000000 	add	x0, x0, #0x0	22d8: R_AARCH64_ADD_ABS_LO12_NC	.rodata+0x18d
    22dc:	52800861 	mov	w1, #0x43                  	// #67
    22e0:	94000000 	bl	2444 <__assert>	22e0: R_AARCH64_CALL26	__assert
    22e4:	7100107f 	cmp	w3, #0x4
    22e8:	54fffd40 	b.eq	2290 <__cxa_atexit+0x28>  // b.none
    22ec:	4b0303e0 	neg	w0, w3
    22f0:	93407c00 	sxtw	x0, w0
    22f4:	17ffffef 	b	22b0 <__cxa_atexit+0x48>
    22f8:	f81e0ffe 	str	x30, [sp, #-32]!
    22fc:	d2800022 	mov	x2, #0x1                   	// #1
    2300:	39007fe1 	strb	w1, [sp, #31]
    2304:	91007fe1 	add	x1, sp, #0x1f
    2308:	94000000 	bl	0 <memcpy>	2308: R_AARCH64_CALL26	.text+0x227c
    230c:	f84207fe 	ldr	x30, [sp], #32
    2310:	d65f03c0 	ret

0000000000002314 <lib_rawoutstream>:
lib_rawoutstream():
    2314:	90000002 	adrp	x2, 0 <memcpy>	2314: R_AARCH64_ADR_PREL_PG_HI21	.text+0x22f8
    2318:	91000042 	add	x2, x2, #0x0	2318: R_AARCH64_ADD_ABS_LO12_NC	.text+0x22f8
    231c:	90000003 	adrp	x3, 0 <memcpy>	231c: R_AARCH64_ADR_PREL_PG_HI21	.text+0x227c
    2320:	91000063 	add	x3, x3, #0x0	2320: R_AARCH64_ADD_ABS_LO12_NC	.text+0x227c
    2324:	b900001f 	str	wzr, [x0]
    2328:	a9008c02 	stp	x2, x3, [x0, #8]
    232c:	90000002 	adrp	x2, 2340 <lib_noflush>	232c: R_AARCH64_ADR_PREL_PG_HI21	lib_noflush
    2330:	91000042 	add	x2, x2, #0x0	2330: R_AARCH64_ADD_ABS_LO12_NC	lib_noflush
    2334:	f9000c02 	str	x2, [x0, #24]
    2338:	b9002001 	str	w1, [x0, #32]
    233c:	d65f03c0 	ret

0000000000002340 <lib_noflush>:
lib_noflush():
    2340:	52800000 	mov	w0, #0x0                   	// #0
    2344:	d65f03c0 	ret
    2348:	a9bf4ffe 	stp	x30, x19, [sp, #-16]!
    234c:	aa0003f3 	mov	x19, x0
    2350:	9100c261 	add	x1, x19, #0x30
    2354:	a9420800 	ldp	x0, x2, [x0, #32]
    2358:	f9400803 	ldr	x3, [x0, #16]
    235c:	d63f0060 	blr	x3
    2360:	37f80040 	tbnz	w0, #31, 2368 <lib_noflush+0x28>
    2364:	f900167f 	str	xzr, [x19, #40]
    2368:	a8c14ffe 	ldp	x30, x19, [sp], #16
    236c:	d65f03c0 	ret
    2370:	a9be4ffe 	stp	x30, x19, [sp, #-32]!
    2374:	aa0003f3 	mov	x19, x0
    2378:	a90157f4 	stp	x20, x21, [sp, #16]
    237c:	aa0203f4 	mov	x20, x2
    2380:	f9401403 	ldr	x3, [x0, #40]
    2384:	8b020064 	add	x4, x3, x2
    2388:	f101009f 	cmp	x4, #0x40
    238c:	54000189 	b.ls	23bc <lib_noflush+0x7c>  // b.plast
    2390:	aa0103f5 	mov	x21, x1
    2394:	f9400c01 	ldr	x1, [x0, #24]
    2398:	d63f0020 	blr	x1
    239c:	f9401260 	ldr	x0, [x19, #32]
    23a0:	aa1403e2 	mov	x2, x20
    23a4:	aa1503e1 	mov	x1, x21
    23a8:	a94157f4 	ldp	x20, x21, [sp, #16]
    23ac:	a8c24ffe 	ldp	x30, x19, [sp], #32
    23b0:	f9400803 	ldr	x3, [x0, #16]
    23b4:	aa0303f0 	mov	x16, x3
    23b8:	d61f0200 	br	x16
    23bc:	9100c000 	add	x0, x0, #0x30
    23c0:	8b030000 	add	x0, x0, x3
    23c4:	94000000 	bl	0 <memcpy>	23c4: R_AARCH64_CALL26	memcpy
    23c8:	f9401660 	ldr	x0, [x19, #40]
    23cc:	8b140000 	add	x0, x0, x20
    23d0:	f9001660 	str	x0, [x19, #40]
    23d4:	aa1403e0 	mov	x0, x20
    23d8:	a94157f4 	ldp	x20, x21, [sp, #16]
    23dc:	a8c24ffe 	ldp	x30, x19, [sp], #32
    23e0:	d65f03c0 	ret
    23e4:	f81e0ffe 	str	x30, [sp, #-32]!
    23e8:	d2800022 	mov	x2, #0x1                   	// #1
    23ec:	39007fe1 	strb	w1, [sp, #31]
    23f0:	91007fe1 	add	x1, sp, #0x1f
    23f4:	94000000 	bl	0 <memcpy>	23f4: R_AARCH64_CALL26	.text+0x2370
    23f8:	f84207fe 	ldr	x30, [sp], #32
    23fc:	d65f03c0 	ret

0000000000002400 <lib_bufferedoutstream>:
lib_bufferedoutstream():
    2400:	90000002 	adrp	x2, 0 <memcpy>	2400: R_AARCH64_ADR_PREL_PG_HI21	.text+0x23e4
    2404:	91000042 	add	x2, x2, #0x0	2404: R_AARCH64_ADD_ABS_LO12_NC	.text+0x23e4
    2408:	90000003 	adrp	x3, 0 <memcpy>	2408: R_AARCH64_ADR_PREL_PG_HI21	.text+0x2370
    240c:	91000063 	add	x3, x3, #0x0	240c: R_AARCH64_ADD_ABS_LO12_NC	.text+0x2370
    2410:	b900001f 	str	wzr, [x0]
    2414:	a9008c02 	stp	x2, x3, [x0, #8]
    2418:	90000002 	adrp	x2, 0 <memcpy>	2418: R_AARCH64_ADR_PREL_PG_HI21	.text+0x2348
    241c:	91000042 	add	x2, x2, #0x0	241c: R_AARCH64_ADD_ABS_LO12_NC	.text+0x2348
    2420:	a9018402 	stp	x2, x1, [x0, #24]
    2424:	f900141f 	str	xzr, [x0, #40]
    2428:	d65f03c0 	ret

000000000000242c <task_get_info>:
task_get_info():
    242c:	a9bf7bfd 	stp	x29, x30, [sp, #-16]!
    2430:	910003fd 	mov	x29, sp
    2434:	9273cba0 	and	x0, x29, #0xffffffffffffe000
    2438:	a8c17bfd 	ldp	x29, x30, [sp], #16
    243c:	f9400000 	ldr	x0, [x0]
    2440:	d65f03c0 	ret

0000000000002444 <__assert>:
__assert():
    2444:	d2800003 	mov	x3, #0x0                   	// #0
    2448:	f81f0ffe 	str	x30, [sp, #-16]!
    244c:	94000000 	bl	2e98 <_assert>	244c: R_AARCH64_CALL26	_assert
    2450:	94000000 	bl	2e68 <abort>	2450: R_AARCH64_CALL26	abort

0000000000002454 <__errno>:
__errno():
    2454:	a9bf7bfd 	stp	x29, x30, [sp, #-16]!
    2458:	d283ffe2 	mov	x2, #0x1fff                	// #8191
    245c:	90000000 	adrp	x0, 2c8 <memcmp+0x48>	245c: R_AARCH64_ADR_PREL_PG_HI21	.bss
    2460:	910003fd 	mov	x29, sp
    2464:	91000000 	add	x0, x0, #0x0	2464: R_AARCH64_ADD_ABS_LO12_NC	.bss
    2468:	9273cba1 	and	x1, x29, #0xffffffffffffe000
    246c:	eb0203bf 	cmp	x29, x2
    2470:	91003021 	add	x1, x1, #0xc
    2474:	9a819000 	csel	x0, x0, x1, ls	// ls = plast
    2478:	a8c17bfd 	ldp	x29, x30, [sp], #16
    247c:	d65f03c0 	ret

0000000000002480 <nxmutex_init>:
nxmutex_init():
    2480:	a9be4ffe 	stp	x30, x19, [sp, #-32]!
    2484:	52800022 	mov	w2, #0x1                   	// #1
    2488:	52800001 	mov	w1, #0x0                   	// #0
    248c:	f9000bf4 	str	x20, [sp, #16]
    2490:	aa0003f4 	mov	x20, x0
    2494:	94000000 	bl	2a94 <nxsem_init>	2494: R_AARCH64_CALL26	nxsem_init
    2498:	2a0003f3 	mov	w19, w0
    249c:	37f800c0 	tbnz	w0, #31, 24b4 <nxmutex_init+0x34>
    24a0:	12800000 	mov	w0, #0xffffffff            	// #-1
    24a4:	b9001a80 	str	w0, [x20, #24]
    24a8:	52800081 	mov	w1, #0x4                   	// #4
    24ac:	aa1403e0 	mov	x0, x20
    24b0:	94000000 	bl	2b04 <nxsem_set_protocol>	24b0: R_AARCH64_CALL26	nxsem_set_protocol
    24b4:	f9400bf4 	ldr	x20, [sp, #16]
    24b8:	2a1303e0 	mov	w0, w19
    24bc:	a8c24ffe 	ldp	x30, x19, [sp], #32
    24c0:	d65f03c0 	ret

00000000000024c4 <nxmutex_destroy>:
nxmutex_destroy():
    24c4:	a9bf4ffe 	stp	x30, x19, [sp, #-16]!
    24c8:	aa0003f3 	mov	x19, x0
    24cc:	94000000 	bl	2f40 <nxsem_destroy>	24cc: R_AARCH64_CALL26	nxsem_destroy
    24d0:	37f80060 	tbnz	w0, #31, 24dc <nxmutex_destroy+0x18>
    24d4:	12800001 	mov	w1, #0xffffffff            	// #-1
    24d8:	b9001a61 	str	w1, [x19, #24]
    24dc:	a8c14ffe 	ldp	x30, x19, [sp], #16
    24e0:	d65f03c0 	ret

00000000000024e4 <nxmutex_is_hold>:
nxmutex_is_hold():
    24e4:	a9bf4ffe 	stp	x30, x19, [sp, #-16]!
    24e8:	b9401813 	ldr	w19, [x0, #24]
    24ec:	94000000 	bl	2ef4 <gettid>	24ec: R_AARCH64_CALL26	gettid
    24f0:	6b00027f 	cmp	w19, w0
    24f4:	1a9f17e0 	cset	w0, eq	// eq = none
    24f8:	a8c14ffe 	ldp	x30, x19, [sp], #16
    24fc:	d65f03c0 	ret

0000000000002500 <nxmutex_get_holder>:
nxmutex_get_holder():
    2500:	b9401800 	ldr	w0, [x0, #24]
    2504:	d65f03c0 	ret

0000000000002508 <nxmutex_is_locked>:
nxmutex_is_locked():
    2508:	f81e0ffe 	str	x30, [sp, #-32]!
    250c:	910073e1 	add	x1, sp, #0x1c
    2510:	94000000 	bl	2b78 <nxsem_get_value>	2510: R_AARCH64_CALL26	nxsem_get_value
    2514:	37f800c0 	tbnz	w0, #31, 252c <nxmutex_is_locked+0x24>
    2518:	b9401fe0 	ldr	w0, [sp, #28]
    251c:	7100001f 	cmp	w0, #0x0
    2520:	1a9fc7e0 	cset	w0, le
    2524:	f84207fe 	ldr	x30, [sp], #32
    2528:	d65f03c0 	ret
    252c:	52800000 	mov	w0, #0x0                   	// #0
    2530:	17fffffd 	b	2524 <nxmutex_is_locked+0x1c>

0000000000002534 <nxmutex_lock>:
nxmutex_lock():
    2534:	a9be4ffe 	stp	x30, x19, [sp, #-32]!
    2538:	f9000bf4 	str	x20, [sp, #16]
    253c:	aa0003f4 	mov	x20, x0
    2540:	94000000 	bl	24e4 <nxmutex_is_hold>	2540: R_AARCH64_CALL26	nxmutex_is_hold
    2544:	36000140 	tbz	w0, #0, 256c <nxmutex_lock+0x38>
    2548:	90000002 	adrp	x2, ebb8 <_srodata>	2548: R_AARCH64_ADR_PREL_PG_HI21	.rodata+0x1a7
    254c:	90000000 	adrp	x0, ebb8 <_srodata>	254c: R_AARCH64_ADR_PREL_PG_HI21	.rodata+0x1bf
    2550:	91000042 	add	x2, x2, #0x0	2550: R_AARCH64_ADD_ABS_LO12_NC	.rodata+0x1a7
    2554:	91000000 	add	x0, x0, #0x0	2554: R_AARCH64_ADD_ABS_LO12_NC	.rodata+0x1bf
    2558:	52801f81 	mov	w1, #0xfc                  	// #252
    255c:	94000000 	bl	2444 <__assert>	255c: R_AARCH64_CALL26	__assert
    2560:	3101f41f 	cmn	w0, #0x7d
    2564:	3a441804 	ccmn	w0, #0x4, #0x4, ne	// ne = any
    2568:	540000e1 	b.ne	2584 <nxmutex_lock+0x50>  // b.any
    256c:	aa1403e0 	mov	x0, x20
    2570:	94000000 	bl	2f88 <nxsem_wait>	2570: R_AARCH64_CALL26	nxsem_wait
    2574:	2a0003f3 	mov	w19, w0
    2578:	37ffff40 	tbnz	w0, #31, 2560 <nxmutex_lock+0x2c>
    257c:	94000000 	bl	2ef4 <gettid>	257c: R_AARCH64_CALL26	gettid
    2580:	b9001a80 	str	w0, [x20, #24]
    2584:	f9400bf4 	ldr	x20, [sp, #16]
    2588:	2a1303e0 	mov	w0, w19
    258c:	a8c24ffe 	ldp	x30, x19, [sp], #32
    2590:	d65f03c0 	ret

0000000000002594 <nxmutex_trylock>:
nxmutex_trylock():
    2594:	a9be4ffe 	stp	x30, x19, [sp, #-32]!
    2598:	f9000bf4 	str	x20, [sp, #16]
    259c:	aa0003f4 	mov	x20, x0
    25a0:	94000000 	bl	2f70 <nxsem_trywait>	25a0: R_AARCH64_CALL26	nxsem_trywait
    25a4:	2a0003f3 	mov	w19, w0
    25a8:	37f80060 	tbnz	w0, #31, 25b4 <nxmutex_trylock+0x20>
    25ac:	94000000 	bl	2ef4 <gettid>	25ac: R_AARCH64_CALL26	gettid
    25b0:	b9001a80 	str	w0, [x20, #24]
    25b4:	f9400bf4 	ldr	x20, [sp, #16]
    25b8:	2a1303e0 	mov	w0, w19
    25bc:	a8c24ffe 	ldp	x30, x19, [sp], #32
    25c0:	d65f03c0 	ret

00000000000025c4 <nxmutex_clocklock>:
nxmutex_clocklock():
    25c4:	a9bd4ffe 	stp	x30, x19, [sp, #-48]!
    25c8:	a90157f4 	stp	x20, x21, [sp, #16]
    25cc:	aa0003f4 	mov	x20, x0
    25d0:	aa0203f5 	mov	x21, x2
    25d4:	f90013f6 	str	x22, [sp, #32]
    25d8:	2a0103f6 	mov	w22, w1
    25dc:	b4000235 	cbz	x21, 2620 <nxmutex_clocklock+0x5c>
    25e0:	aa1503e2 	mov	x2, x21
    25e4:	2a1603e1 	mov	w1, w22
    25e8:	aa1403e0 	mov	x0, x20
    25ec:	94000000 	bl	2f1c <nxsem_clockwait>	25ec: R_AARCH64_CALL26	nxsem_clockwait
    25f0:	3101f41f 	cmn	w0, #0x7d
    25f4:	2a0003f3 	mov	w19, w0
    25f8:	3a441804 	ccmn	w0, #0x4, #0x4, ne	// ne = any
    25fc:	54ffff00 	b.eq	25dc <nxmutex_clocklock+0x18>  // b.none
    2600:	37f80060 	tbnz	w0, #31, 260c <nxmutex_clocklock+0x48>
    2604:	94000000 	bl	2ef4 <gettid>	2604: R_AARCH64_CALL26	gettid
    2608:	b9001a80 	str	w0, [x20, #24]
    260c:	f94013f6 	ldr	x22, [sp, #32]
    2610:	2a1303e0 	mov	w0, w19
    2614:	a94157f4 	ldp	x20, x21, [sp, #16]
    2618:	a8c34ffe 	ldp	x30, x19, [sp], #48
    261c:	d65f03c0 	ret
    2620:	aa1403e0 	mov	x0, x20
    2624:	94000000 	bl	2f88 <nxsem_wait>	2624: R_AARCH64_CALL26	nxsem_wait
    2628:	17fffff2 	b	25f0 <nxmutex_clocklock+0x2c>

000000000000262c <nxmutex_timedlock>:
nxmutex_timedlock():
    262c:	a9bc4ffe 	stp	x30, x19, [sp, #-64]!
    2630:	2a0103f3 	mov	w19, w1
    2634:	910083e1 	add	x1, sp, #0x20
    2638:	f9000bf4 	str	x20, [sp, #16]
    263c:	aa0003f4 	mov	x20, x0
    2640:	52800020 	mov	w0, #0x1                   	// #1
    2644:	94000000 	bl	2ed4 <clock_gettime>	2644: R_AARCH64_CALL26	clock_gettime
    2648:	2a1303e1 	mov	w1, w19
    264c:	d2807d00 	mov	x0, #0x3e8                 	// #1000
    2650:	9ac00822 	udiv	x2, x1, x0
    2654:	9b008441 	msub	x1, x2, x0, x1
    2658:	a94203e3 	ldp	x3, x0, [sp, #32]
    265c:	8b030043 	add	x3, x2, x3
    2660:	52884802 	mov	w2, #0x4240                	// #16960
    2664:	72a001e2 	movk	w2, #0xf, lsl #16
    2668:	9b220021 	smaddl	x1, w1, w2, x0
    266c:	d2993fe0 	mov	x0, #0xc9ff                	// #51711
    2670:	f2a77340 	movk	x0, #0x3b9a, lsl #16
    2674:	eb00003f 	cmp	x1, x0
    2678:	540000ad 	b.le	268c <nxmutex_timedlock+0x60>
    267c:	92993fe0 	mov	x0, #0xffffffffffff3600    	// #-51712
    2680:	91000463 	add	x3, x3, #0x1
    2684:	f2b88ca0 	movk	x0, #0xc465, lsl #16
    2688:	8b000021 	add	x1, x1, x0
    268c:	9100c3e2 	add	x2, sp, #0x30
    2690:	aa1403e0 	mov	x0, x20
    2694:	a90307e3 	stp	x3, x1, [sp, #48]
    2698:	52800021 	mov	w1, #0x1                   	// #1
    269c:	94000000 	bl	25c4 <nxmutex_clocklock>	269c: R_AARCH64_CALL26	nxmutex_clocklock
    26a0:	f9400bf4 	ldr	x20, [sp, #16]
    26a4:	a8c44ffe 	ldp	x30, x19, [sp], #64
    26a8:	d65f03c0 	ret

00000000000026ac <nxmutex_unlock>:
nxmutex_unlock():
    26ac:	a9be4ffe 	stp	x30, x19, [sp, #-32]!
    26b0:	f9000bf4 	str	x20, [sp, #16]
    26b4:	b9401801 	ldr	w1, [x0, #24]
    26b8:	3100083f 	cmn	w1, #0x2
    26bc:	540002c0 	b.eq	2714 <nxmutex_unlock+0x68>  // b.none
    26c0:	aa0003f3 	mov	x19, x0
    26c4:	94000000 	bl	24e4 <nxmutex_is_hold>	26c4: R_AARCH64_CALL26	nxmutex_is_hold
    26c8:	370000e0 	tbnz	w0, #0, 26e4 <nxmutex_unlock+0x38>
    26cc:	90000002 	adrp	x2, ebb8 <_srodata>	26cc: R_AARCH64_ADR_PREL_PG_HI21	.rodata+0x1d0
    26d0:	90000000 	adrp	x0, ebb8 <_srodata>	26d0: R_AARCH64_ADR_PREL_PG_HI21	.rodata+0x1bf
    26d4:	91000042 	add	x2, x2, #0x0	26d4: R_AARCH64_ADD_ABS_LO12_NC	.rodata+0x1d0
    26d8:	91000000 	add	x0, x0, #0x0	26d8: R_AARCH64_ADD_ABS_LO12_NC	.rodata+0x1bf
    26dc:	52803601 	mov	w1, #0x1b0                 	// #432
    26e0:	94000000 	bl	2444 <__assert>	26e0: R_AARCH64_CALL26	__assert
    26e4:	12800000 	mov	w0, #0xffffffff            	// #-1
    26e8:	b9001a60 	str	w0, [x19, #24]
    26ec:	aa1303e0 	mov	x0, x19
    26f0:	94000000 	bl	2f58 <nxsem_post>	26f0: R_AARCH64_CALL26	nxsem_post
    26f4:	2a0003f4 	mov	w20, w0
    26f8:	36f80060 	tbz	w0, #31, 2704 <nxmutex_unlock+0x58>
    26fc:	94000000 	bl	2ef4 <gettid>	26fc: R_AARCH64_CALL26	gettid
    2700:	b9001a60 	str	w0, [x19, #24]
    2704:	2a1403e0 	mov	w0, w20
    2708:	f9400bf4 	ldr	x20, [sp, #16]
    270c:	a8c24ffe 	ldp	x30, x19, [sp], #32
    2710:	d65f03c0 	ret
    2714:	52800014 	mov	w20, #0x0                   	// #0
    2718:	17fffffb 	b	2704 <nxmutex_unlock+0x58>

000000000000271c <nxmutex_breaklock>:
nxmutex_breaklock():
    271c:	a9be4ffe 	stp	x30, x19, [sp, #-32]!
    2720:	aa0103f3 	mov	x19, x1
    2724:	f9000bf4 	str	x20, [sp, #16]
    2728:	aa0003f4 	mov	x20, x0
    272c:	b900003f 	str	wzr, [x1]
    2730:	94000000 	bl	24e4 <nxmutex_is_hold>	2730: R_AARCH64_CALL26	nxmutex_is_hold
    2734:	36000120 	tbz	w0, #0, 2758 <nxmutex_breaklock+0x3c>
    2738:	aa1403e0 	mov	x0, x20
    273c:	94000000 	bl	26ac <nxmutex_unlock>	273c: R_AARCH64_CALL26	nxmutex_unlock
    2740:	37f80060 	tbnz	w0, #31, 274c <nxmutex_breaklock+0x30>
    2744:	52800021 	mov	w1, #0x1                   	// #1
    2748:	b9000261 	str	w1, [x19]
    274c:	f9400bf4 	ldr	x20, [sp, #16]
    2750:	a8c24ffe 	ldp	x30, x19, [sp], #32
    2754:	d65f03c0 	ret
    2758:	52800000 	mov	w0, #0x0                   	// #0
    275c:	17fffffc 	b	274c <nxmutex_breaklock+0x30>

0000000000002760 <nxmutex_restorelock>:
nxmutex_restorelock():
    2760:	34000041 	cbz	w1, 2768 <nxmutex_restorelock+0x8>
    2764:	14000000 	b	2534 <nxmutex_lock>	2764: R_AARCH64_JUMP26	nxmutex_lock
    2768:	52800000 	mov	w0, #0x0                   	// #0
    276c:	d65f03c0 	ret

0000000000002770 <nxmutex_set_protocol>:
nxmutex_set_protocol():
    2770:	14000000 	b	2b04 <nxsem_set_protocol>	2770: R_AARCH64_JUMP26	nxsem_set_protocol

0000000000002774 <nxrmutex_init>:
nxrmutex_init():
    2774:	b900201f 	str	wzr, [x0, #32]
    2778:	14000000 	b	2480 <nxmutex_init>	2778: R_AARCH64_JUMP26	nxmutex_init

000000000000277c <nxrmutex_destroy>:
nxrmutex_destroy():
    277c:	a9bf4ffe 	stp	x30, x19, [sp, #-16]!
    2780:	aa0003f3 	mov	x19, x0
    2784:	94000000 	bl	24c4 <nxmutex_destroy>	2784: R_AARCH64_CALL26	nxmutex_destroy
    2788:	37f80040 	tbnz	w0, #31, 2790 <nxrmutex_destroy+0x14>
    278c:	b900227f 	str	wzr, [x19, #32]
    2790:	a8c14ffe 	ldp	x30, x19, [sp], #16
    2794:	d65f03c0 	ret

0000000000002798 <nxrmutex_is_hold>:
nxrmutex_is_hold():
    2798:	14000000 	b	24e4 <nxmutex_is_hold>	2798: R_AARCH64_JUMP26	nxmutex_is_hold

000000000000279c <nxrmutex_is_recursive>:
nxrmutex_is_recursive():
    279c:	b9402000 	ldr	w0, [x0, #32]
    27a0:	7100041f 	cmp	w0, #0x1
    27a4:	1a9f97e0 	cset	w0, hi	// hi = pmore
    27a8:	d65f03c0 	ret

00000000000027ac <nxrmutex_get_holder>:
nxrmutex_get_holder():
    27ac:	b9401800 	ldr	w0, [x0, #24]
    27b0:	d65f03c0 	ret

00000000000027b4 <nxrmutex_is_locked>:
nxrmutex_is_locked():
    27b4:	14000000 	b	2508 <nxmutex_is_locked>	27b4: R_AARCH64_JUMP26	nxmutex_is_locked

00000000000027b8 <nxrmutex_lock>:
nxrmutex_lock():
    27b8:	a9bf4ffe 	stp	x30, x19, [sp, #-16]!
    27bc:	aa0003f3 	mov	x19, x0
    27c0:	94000000 	bl	24e4 <nxmutex_is_hold>	27c0: R_AARCH64_CALL26	nxmutex_is_hold
    27c4:	370000c0 	tbnz	w0, #0, 27dc <nxrmutex_lock+0x24>
    27c8:	aa1303e0 	mov	x0, x19
    27cc:	94000000 	bl	2534 <nxmutex_lock>	27cc: R_AARCH64_CALL26	nxmutex_lock
    27d0:	36f80080 	tbz	w0, #31, 27e0 <nxrmutex_lock+0x28>
    27d4:	a8c14ffe 	ldp	x30, x19, [sp], #16
    27d8:	d65f03c0 	ret
    27dc:	52800000 	mov	w0, #0x0                   	// #0
    27e0:	b9402261 	ldr	w1, [x19, #32]
    27e4:	3100043f 	cmn	w1, #0x1
    27e8:	540000e1 	b.ne	2804 <nxrmutex_lock+0x4c>  // b.any
    27ec:	90000002 	adrp	x2, ebb8 <_srodata>	27ec: R_AARCH64_ADR_PREL_PG_HI21	.rodata+0x1e7
    27f0:	90000000 	adrp	x0, ebb8 <_srodata>	27f0: R_AARCH64_ADR_PREL_PG_HI21	.rodata+0x1bf
    27f4:	91000042 	add	x2, x2, #0x0	27f4: R_AARCH64_ADD_ABS_LO12_NC	.rodata+0x1e7
    27f8:	91000000 	add	x0, x0, #0x0	27f8: R_AARCH64_ADD_ABS_LO12_NC	.rodata+0x1bf
    27fc:	52805f21 	mov	w1, #0x2f9                 	// #761
    2800:	94000000 	bl	2444 <__assert>	2800: R_AARCH64_CALL26	__assert
    2804:	11000421 	add	w1, w1, #0x1
    2808:	b9002261 	str	w1, [x19, #32]
    280c:	17fffff2 	b	27d4 <nxrmutex_lock+0x1c>

0000000000002810 <nxrmutex_trylock>:
nxrmutex_trylock():
    2810:	a9bf4ffe 	stp	x30, x19, [sp, #-16]!
    2814:	aa0003f3 	mov	x19, x0
    2818:	94000000 	bl	24e4 <nxmutex_is_hold>	2818: R_AARCH64_CALL26	nxmutex_is_hold
    281c:	370000c0 	tbnz	w0, #0, 2834 <nxrmutex_trylock+0x24>
    2820:	aa1303e0 	mov	x0, x19
    2824:	94000000 	bl	2594 <nxmutex_trylock>	2824: R_AARCH64_CALL26	nxmutex_trylock
    2828:	36f80080 	tbz	w0, #31, 2838 <nxrmutex_trylock+0x28>
    282c:	a8c14ffe 	ldp	x30, x19, [sp], #16
    2830:	d65f03c0 	ret
    2834:	52800000 	mov	w0, #0x0                   	// #0
    2838:	b9402261 	ldr	w1, [x19, #32]
    283c:	3100043f 	cmn	w1, #0x1
    2840:	540000e1 	b.ne	285c <nxrmutex_trylock+0x4c>  // b.any
    2844:	90000002 	adrp	x2, ebb8 <_srodata>	2844: R_AARCH64_ADR_PREL_PG_HI21	.rodata+0x1e7
    2848:	90000000 	adrp	x0, ebb8 <_srodata>	2848: R_AARCH64_ADR_PREL_PG_HI21	.rodata+0x1bf
    284c:	91000042 	add	x2, x2, #0x0	284c: R_AARCH64_ADD_ABS_LO12_NC	.rodata+0x1e7
    2850:	91000000 	add	x0, x0, #0x0	2850: R_AARCH64_ADD_ABS_LO12_NC	.rodata+0x1bf
    2854:	52806441 	mov	w1, #0x322                 	// #802
    2858:	94000000 	bl	2444 <__assert>	2858: R_AARCH64_CALL26	__assert
    285c:	11000421 	add	w1, w1, #0x1
    2860:	b9002261 	str	w1, [x19, #32]
    2864:	17fffff2 	b	282c <nxrmutex_trylock+0x1c>

0000000000002868 <nxrmutex_clocklock>:
nxrmutex_clocklock():
    2868:	a9be4ffe 	stp	x30, x19, [sp, #-32]!
    286c:	aa0003f3 	mov	x19, x0
    2870:	a90157f4 	stp	x20, x21, [sp, #16]
    2874:	2a0103f4 	mov	w20, w1
    2878:	aa0203f5 	mov	x21, x2
    287c:	94000000 	bl	24e4 <nxmutex_is_hold>	287c: R_AARCH64_CALL26	nxmutex_is_hold
    2880:	37000120 	tbnz	w0, #0, 28a4 <nxrmutex_clocklock+0x3c>
    2884:	aa1503e2 	mov	x2, x21
    2888:	2a1403e1 	mov	w1, w20
    288c:	aa1303e0 	mov	x0, x19
    2890:	94000000 	bl	25c4 <nxmutex_clocklock>	2890: R_AARCH64_CALL26	nxmutex_clocklock
    2894:	36f800a0 	tbz	w0, #31, 28a8 <nxrmutex_clocklock+0x40>
    2898:	a94157f4 	ldp	x20, x21, [sp, #16]
    289c:	a8c24ffe 	ldp	x30, x19, [sp], #32
    28a0:	d65f03c0 	ret
    28a4:	52800000 	mov	w0, #0x0                   	// #0
    28a8:	b9402261 	ldr	w1, [x19, #32]
    28ac:	3100043f 	cmn	w1, #0x1
    28b0:	540000e1 	b.ne	28cc <nxrmutex_clocklock+0x64>  // b.any
    28b4:	90000002 	adrp	x2, ebb8 <_srodata>	28b4: R_AARCH64_ADR_PREL_PG_HI21	.rodata+0x1e7
    28b8:	90000000 	adrp	x0, ebb8 <_srodata>	28b8: R_AARCH64_ADR_PREL_PG_HI21	.rodata+0x1bf
    28bc:	91000042 	add	x2, x2, #0x0	28bc: R_AARCH64_ADD_ABS_LO12_NC	.rodata+0x1e7
    28c0:	91000000 	add	x0, x0, #0x0	28c0: R_AARCH64_ADD_ABS_LO12_NC	.rodata+0x1bf
    28c4:	528069c1 	mov	w1, #0x34e                 	// #846
    28c8:	94000000 	bl	2444 <__assert>	28c8: R_AARCH64_CALL26	__assert
    28cc:	11000421 	add	w1, w1, #0x1
    28d0:	b9002261 	str	w1, [x19, #32]
    28d4:	17fffff1 	b	2898 <nxrmutex_clocklock+0x30>

00000000000028d8 <nxrmutex_timedlock>:
nxrmutex_timedlock():
    28d8:	a9be4ffe 	stp	x30, x19, [sp, #-32]!
    28dc:	aa0003f3 	mov	x19, x0
    28e0:	f9000bf4 	str	x20, [sp, #16]
    28e4:	2a0103f4 	mov	w20, w1
    28e8:	94000000 	bl	24e4 <nxmutex_is_hold>	28e8: R_AARCH64_CALL26	nxmutex_is_hold
    28ec:	37000100 	tbnz	w0, #0, 290c <nxrmutex_timedlock+0x34>
    28f0:	2a1403e1 	mov	w1, w20
    28f4:	aa1303e0 	mov	x0, x19
    28f8:	94000000 	bl	262c <nxmutex_timedlock>	28f8: R_AARCH64_CALL26	nxmutex_timedlock
    28fc:	36f800a0 	tbz	w0, #31, 2910 <nxrmutex_timedlock+0x38>
    2900:	f9400bf4 	ldr	x20, [sp, #16]
    2904:	a8c24ffe 	ldp	x30, x19, [sp], #32
    2908:	d65f03c0 	ret
    290c:	52800000 	mov	w0, #0x0                   	// #0
    2910:	b9402261 	ldr	w1, [x19, #32]
    2914:	3100043f 	cmn	w1, #0x1
    2918:	540000e1 	b.ne	2934 <nxrmutex_timedlock+0x5c>  // b.any
    291c:	90000002 	adrp	x2, ebb8 <_srodata>	291c: R_AARCH64_ADR_PREL_PG_HI21	.rodata+0x1e7
    2920:	90000000 	adrp	x0, ebb8 <_srodata>	2920: R_AARCH64_ADR_PREL_PG_HI21	.rodata+0x1bf
    2924:	91000042 	add	x2, x2, #0x0	2924: R_AARCH64_ADD_ABS_LO12_NC	.rodata+0x1e7
    2928:	91000000 	add	x0, x0, #0x0	2928: R_AARCH64_ADD_ABS_LO12_NC	.rodata+0x1bf
    292c:	52806f21 	mov	w1, #0x379                 	// #889
    2930:	94000000 	bl	2444 <__assert>	2930: R_AARCH64_CALL26	__assert
    2934:	11000421 	add	w1, w1, #0x1
    2938:	b9002261 	str	w1, [x19, #32]
    293c:	17fffff1 	b	2900 <nxrmutex_timedlock+0x28>

0000000000002940 <nxrmutex_unlock>:
nxrmutex_unlock():
    2940:	a9bf4ffe 	stp	x30, x19, [sp, #-16]!
    2944:	b9402001 	ldr	w1, [x0, #32]
    2948:	350000e1 	cbnz	w1, 2964 <nxrmutex_unlock+0x24>
    294c:	90000002 	adrp	x2, ebb8 <_srodata>	294c: R_AARCH64_ADR_PREL_PG_HI21	.rodata+0x203
    2950:	90000000 	adrp	x0, ebb8 <_srodata>	2950: R_AARCH64_ADR_PREL_PG_HI21	.rodata+0x1bf
    2954:	91000042 	add	x2, x2, #0x0	2954: R_AARCH64_ADD_ABS_LO12_NC	.rodata+0x203
    2958:	91000000 	add	x0, x0, #0x0	2958: R_AARCH64_ADD_ABS_LO12_NC	.rodata+0x1bf
    295c:	52807321 	mov	w1, #0x399                 	// #921
    2960:	94000000 	bl	2444 <__assert>	2960: R_AARCH64_CALL26	__assert
    2964:	51000421 	sub	w1, w1, #0x1
    2968:	b9002001 	str	w1, [x0, #32]
    296c:	aa0003f3 	mov	x19, x0
    2970:	35000101 	cbnz	w1, 2990 <nxrmutex_unlock+0x50>
    2974:	94000000 	bl	26ac <nxmutex_unlock>	2974: R_AARCH64_CALL26	nxmutex_unlock
    2978:	36f80080 	tbz	w0, #31, 2988 <nxrmutex_unlock+0x48>
    297c:	b9402261 	ldr	w1, [x19, #32]
    2980:	11000421 	add	w1, w1, #0x1
    2984:	b9002261 	str	w1, [x19, #32]
    2988:	a8c14ffe 	ldp	x30, x19, [sp], #16
    298c:	d65f03c0 	ret
    2990:	52800000 	mov	w0, #0x0                   	// #0
    2994:	17fffffd 	b	2988 <nxrmutex_unlock+0x48>

0000000000002998 <nxrmutex_breaklock>:
nxrmutex_breaklock():
    2998:	a9be4ffe 	stp	x30, x19, [sp, #-32]!
    299c:	aa0003f3 	mov	x19, x0
    29a0:	f9000bf4 	str	x20, [sp, #16]
    29a4:	aa0103f4 	mov	x20, x1
    29a8:	b900003f 	str	wzr, [x1]
    29ac:	94000000 	bl	24e4 <nxmutex_is_hold>	29ac: R_AARCH64_CALL26	nxmutex_is_hold
    29b0:	36000180 	tbz	w0, #0, 29e0 <nxrmutex_breaklock+0x48>
    29b4:	b9402260 	ldr	w0, [x19, #32]
    29b8:	b9000280 	str	w0, [x20]
    29bc:	aa1303e0 	mov	x0, x19
    29c0:	b900227f 	str	wzr, [x19, #32]
    29c4:	94000000 	bl	26ac <nxmutex_unlock>	29c4: R_AARCH64_CALL26	nxmutex_unlock
    29c8:	36f80060 	tbz	w0, #31, 29d4 <nxrmutex_breaklock+0x3c>
    29cc:	b9400281 	ldr	w1, [x20]
    29d0:	b9002261 	str	w1, [x19, #32]
    29d4:	f9400bf4 	ldr	x20, [sp, #16]
    29d8:	a8c24ffe 	ldp	x30, x19, [sp], #32
    29dc:	d65f03c0 	ret
    29e0:	52800000 	mov	w0, #0x0                   	// #0
    29e4:	17fffffc 	b	29d4 <nxrmutex_breaklock+0x3c>

00000000000029e8 <nxrmutex_restorelock>:
nxrmutex_restorelock():
    29e8:	34000161 	cbz	w1, 2a14 <nxrmutex_restorelock+0x2c>
    29ec:	a9be4ffe 	stp	x30, x19, [sp, #-32]!
    29f0:	2a0103f3 	mov	w19, w1
    29f4:	f9000bf4 	str	x20, [sp, #16]
    29f8:	aa0003f4 	mov	x20, x0
    29fc:	94000000 	bl	2534 <nxmutex_lock>	29fc: R_AARCH64_CALL26	nxmutex_lock
    2a00:	37f80040 	tbnz	w0, #31, 2a08 <nxrmutex_restorelock+0x20>
    2a04:	b9002293 	str	w19, [x20, #32]
    2a08:	f9400bf4 	ldr	x20, [sp, #16]
    2a0c:	a8c24ffe 	ldp	x30, x19, [sp], #32
    2a10:	d65f03c0 	ret
    2a14:	52800000 	mov	w0, #0x0                   	// #0
    2a18:	d65f03c0 	ret

0000000000002a1c <task_setcancelstate>:
task_setcancelstate():
    2a1c:	a9bf7bfd 	stp	x29, x30, [sp, #-16]!
    2a20:	910003fd 	mov	x29, sp
    2a24:	9273cba2 	and	x2, x29, #0xffffffffffffe000
    2a28:	b4000081 	cbz	x1, 2a38 <task_setcancelstate+0x1c>
    2a2c:	39402043 	ldrb	w3, [x2, #8]
    2a30:	12000063 	and	w3, w3, #0x1
    2a34:	b9000023 	str	w3, [x1]
    2a38:	35000140 	cbnz	w0, 2a60 <task_setcancelstate+0x44>
    2a3c:	39402040 	ldrb	w0, [x2, #8]
    2a40:	121f7801 	and	w1, w0, #0xfffffffe
    2a44:	39002041 	strb	w1, [x2, #8]
    2a48:	36100160 	tbz	w0, #2, 2a74 <task_setcancelstate+0x58>
    2a4c:	128000a1 	mov	w1, #0xfffffffa            	// #-6
    2a50:	0a010000 	and	w0, w0, w1
    2a54:	39002040 	strb	w0, [x2, #8]
    2a58:	92800000 	mov	x0, #0xffffffffffffffff    	// #-1
    2a5c:	94000000 	bl	2e74 <pthread_exit>	2a5c: R_AARCH64_CALL26	pthread_exit
    2a60:	7100041f 	cmp	w0, #0x1
    2a64:	540000e1 	b.ne	2a80 <task_setcancelstate+0x64>  // b.any
    2a68:	39402040 	ldrb	w0, [x2, #8]
    2a6c:	32000000 	orr	w0, w0, #0x1
    2a70:	39002040 	strb	w0, [x2, #8]
    2a74:	52800000 	mov	w0, #0x0                   	// #0
    2a78:	a8c17bfd 	ldp	x29, x30, [sp], #16
    2a7c:	d65f03c0 	ret
    2a80:	94000000 	bl	2454 <__errno>	2a80: R_AARCH64_CALL26	__errno
    2a84:	528002c1 	mov	w1, #0x16                  	// #22
    2a88:	b9000001 	str	w1, [x0]
    2a8c:	12800000 	mov	w0, #0xffffffff            	// #-1
    2a90:	17fffffa 	b	2a78 <task_setcancelstate+0x5c>

0000000000002a94 <nxsem_init>:
nxsem_init():
    2a94:	f100001f 	cmp	x0, #0x0
    2a98:	7a401841 	ccmp	w2, #0x0, #0x1, ne	// ne = any
    2a9c:	5400010a 	b.ge	2abc <nxsem_init+0x28>  // b.tcont
    2aa0:	f81f0ffe 	str	x30, [sp, #-16]!
    2aa4:	90000002 	adrp	x2, ebb8 <_srodata>	2aa4: R_AARCH64_ADR_PREL_PG_HI21	.rodata+0x215
    2aa8:	90000000 	adrp	x0, ebb8 <_srodata>	2aa8: R_AARCH64_ADR_PREL_PG_HI21	.rodata+0x23e
    2aac:	91000042 	add	x2, x2, #0x0	2aac: R_AARCH64_ADD_ABS_LO12_NC	.rodata+0x215
    2ab0:	91000000 	add	x0, x0, #0x0	2ab0: R_AARCH64_ADD_ABS_LO12_NC	.rodata+0x23e
    2ab4:	528008a1 	mov	w1, #0x45                  	// #69
    2ab8:	94000000 	bl	2444 <__assert>	2ab8: R_AARCH64_CALL26	__assert
    2abc:	b9000002 	str	w2, [x0]
    2ac0:	3900101f 	strb	wzr, [x0, #4]
    2ac4:	a900fc1f 	stp	xzr, xzr, [x0, #8]
    2ac8:	52800000 	mov	w0, #0x0                   	// #0
    2acc:	d65f03c0 	ret

0000000000002ad0 <sem_init>:
sem_init():
    2ad0:	f81f0ffe 	str	x30, [sp, #-16]!
    2ad4:	f100001f 	cmp	x0, #0x0
    2ad8:	7a401841 	ccmp	w2, #0x0, #0x1, ne	// ne = any
    2adc:	540000ea 	b.ge	2af8 <sem_init+0x28>  // b.tcont
    2ae0:	94000000 	bl	2454 <__errno>	2ae0: R_AARCH64_CALL26	__errno
    2ae4:	528002c1 	mov	w1, #0x16                  	// #22
    2ae8:	b9000001 	str	w1, [x0]
    2aec:	12800000 	mov	w0, #0xffffffff            	// #-1
    2af0:	f84107fe 	ldr	x30, [sp], #16
    2af4:	d65f03c0 	ret
    2af8:	94000000 	bl	2a94 <nxsem_init>	2af8: R_AARCH64_CALL26	nxsem_init
    2afc:	52800000 	mov	w0, #0x0                   	// #0
    2b00:	17fffffc 	b	2af0 <sem_init+0x20>

0000000000002b04 <nxsem_set_protocol>:
nxsem_set_protocol():
    2b04:	b5000100 	cbnz	x0, 2b24 <nxsem_set_protocol+0x20>
    2b08:	f81f0ffe 	str	x30, [sp, #-16]!
    2b0c:	90000002 	adrp	x2, ebb8 <_srodata>	2b0c: R_AARCH64_ADR_PREL_PG_HI21	.rodata+0x253
    2b10:	90000000 	adrp	x0, ebb8 <_srodata>	2b10: R_AARCH64_ADR_PREL_PG_HI21	.rodata+0x265
    2b14:	91000042 	add	x2, x2, #0x0	2b14: R_AARCH64_ADD_ABS_LO12_NC	.rodata+0x253
    2b18:	91000000 	add	x0, x0, #0x0	2b18: R_AARCH64_ADD_ABS_LO12_NC	.rodata+0x265
    2b1c:	52800a01 	mov	w1, #0x50                  	// #80
    2b20:	94000000 	bl	2444 <__assert>	2b20: R_AARCH64_CALL26	__assert
    2b24:	aa0003e2 	mov	x2, x0
    2b28:	72000420 	ands	w0, w1, #0x3
    2b2c:	540000c0 	b.eq	2b44 <nxsem_set_protocol+0x40>  // b.none
    2b30:	71000c1f 	cmp	w0, #0x3
    2b34:	12801121 	mov	w1, #0xffffff76            	// #-138
    2b38:	128002a0 	mov	w0, #0xffffffea            	// #-22
    2b3c:	1a810000 	csel	w0, w0, w1, eq	// eq = none
    2b40:	d65f03c0 	ret
    2b44:	39001041 	strb	w1, [x2, #4]
    2b48:	d65f03c0 	ret

0000000000002b4c <sem_setprotocol>:
sem_setprotocol():
    2b4c:	a9bf4ffe 	stp	x30, x19, [sp, #-16]!
    2b50:	94000000 	bl	2b04 <nxsem_set_protocol>	2b50: R_AARCH64_CALL26	nxsem_set_protocol
    2b54:	2a0003f3 	mov	w19, w0
    2b58:	340000a0 	cbz	w0, 2b6c <sem_setprotocol+0x20>
    2b5c:	4b1303f3 	neg	w19, w19
    2b60:	94000000 	bl	2454 <__errno>	2b60: R_AARCH64_CALL26	__errno
    2b64:	b9000013 	str	w19, [x0]
    2b68:	12800013 	mov	w19, #0xffffffff            	// #-1
    2b6c:	2a1303e0 	mov	w0, w19
    2b70:	a8c14ffe 	ldp	x30, x19, [sp], #16
    2b74:	d65f03c0 	ret

0000000000002b78 <nxsem_get_value>:
nxsem_get_value():
    2b78:	f100001f 	cmp	x0, #0x0
    2b7c:	fa401824 	ccmp	x1, #0x0, #0x4, ne	// ne = any
    2b80:	540000a0 	b.eq	2b94 <nxsem_get_value+0x1c>  // b.none
    2b84:	b9400000 	ldr	w0, [x0]
    2b88:	b9000020 	str	w0, [x1]
    2b8c:	52800000 	mov	w0, #0x0                   	// #0
    2b90:	d65f03c0 	ret
    2b94:	128002a0 	mov	w0, #0xffffffea            	// #-22
    2b98:	17fffffe 	b	2b90 <nxsem_get_value+0x18>

0000000000002b9c <sem_getvalue>:
sem_getvalue():
    2b9c:	f81f0ffe 	str	x30, [sp, #-16]!
    2ba0:	94000000 	bl	2b78 <nxsem_get_value>	2ba0: R_AARCH64_CALL26	nxsem_get_value
    2ba4:	340000a0 	cbz	w0, 2bb8 <sem_getvalue+0x1c>
    2ba8:	94000000 	bl	2454 <__errno>	2ba8: R_AARCH64_CALL26	__errno
    2bac:	528002c1 	mov	w1, #0x16                  	// #22
    2bb0:	b9000001 	str	w1, [x0]
    2bb4:	12800000 	mov	w0, #0xffffffff            	// #-1
    2bb8:	f84107fe 	ldr	x30, [sp], #16
    2bbc:	d65f03c0 	ret

0000000000002bc0 <fflush_unlocked>:
fflush_unlocked():
    2bc0:	a9bf4ffe 	stp	x30, x19, [sp, #-16]!
    2bc4:	b5000180 	cbnz	x0, 2bf4 <fflush_unlocked+0x34>
    2bc8:	94000000 	bl	2e30 <lib_get_streams>	2bc8: R_AARCH64_CALL26	lib_get_streams
    2bcc:	94000000 	bl	2c38 <lib_flushall_unlocked>	2bcc: R_AARCH64_CALL26	lib_flushall_unlocked
    2bd0:	2a0003f3 	mov	w19, w0
    2bd4:	52800000 	mov	w0, #0x0                   	// #0
    2bd8:	36f800b3 	tbz	w19, #31, 2bec <fflush_unlocked+0x2c>
    2bdc:	94000000 	bl	2454 <__errno>	2bdc: R_AARCH64_CALL26	__errno
    2be0:	4b1303f3 	neg	w19, w19
    2be4:	b9000013 	str	w19, [x0]
    2be8:	12800000 	mov	w0, #0xffffffff            	// #-1
    2bec:	a8c14ffe 	ldp	x30, x19, [sp], #16
    2bf0:	d65f03c0 	ret
    2bf4:	94000000 	bl	2d34 <lib_fflush_unlocked>	2bf4: R_AARCH64_CALL26	lib_fflush_unlocked
    2bf8:	17fffff6 	b	2bd0 <fflush_unlocked+0x10>

0000000000002bfc <fflush>:
fflush():
    2bfc:	a9bf4ffe 	stp	x30, x19, [sp, #-16]!
    2c00:	b5000180 	cbnz	x0, 2c30 <fflush+0x34>
    2c04:	94000000 	bl	2e30 <lib_get_streams>	2c04: R_AARCH64_CALL26	lib_get_streams
    2c08:	94000000 	bl	2cb0 <lib_flushall>	2c08: R_AARCH64_CALL26	lib_flushall
    2c0c:	2a0003f3 	mov	w19, w0
    2c10:	52800000 	mov	w0, #0x0                   	// #0
    2c14:	36f800b3 	tbz	w19, #31, 2c28 <fflush+0x2c>
    2c18:	94000000 	bl	2454 <__errno>	2c18: R_AARCH64_CALL26	__errno
    2c1c:	4b1303f3 	neg	w19, w19
    2c20:	b9000013 	str	w19, [x0]
    2c24:	12800000 	mov	w0, #0xffffffff            	// #-1
    2c28:	a8c14ffe 	ldp	x30, x19, [sp], #16
    2c2c:	d65f03c0 	ret
    2c30:	94000000 	bl	2de4 <lib_fflush>	2c30: R_AARCH64_CALL26	lib_fflush
    2c34:	17fffff6 	b	2c0c <fflush+0x10>

0000000000002c38 <lib_flushall_unlocked>:
lib_flushall_unlocked():
    2c38:	a9be4ffe 	stp	x30, x19, [sp, #-32]!
    2c3c:	f9000bf4 	str	x20, [sp, #16]
    2c40:	b4000340 	cbz	x0, 2ca8 <lib_flushall_unlocked+0x70>
    2c44:	aa0003f3 	mov	x19, x0
    2c48:	91008000 	add	x0, x0, #0x20
    2c4c:	94000000 	bl	2d34 <lib_fflush_unlocked>	2c4c: R_AARCH64_CALL26	lib_fflush_unlocked
    2c50:	52800014 	mov	w20, #0x0                   	// #0
    2c54:	91038260 	add	x0, x19, #0xe0
    2c58:	94000000 	bl	2d34 <lib_fflush_unlocked>	2c58: R_AARCH64_CALL26	lib_fflush_unlocked
    2c5c:	91068260 	add	x0, x19, #0x1a0
    2c60:	94000000 	bl	2d34 <lib_fflush_unlocked>	2c60: R_AARCH64_CALL26	lib_fflush_unlocked
    2c64:	f9413273 	ldr	x19, [x19, #608]
    2c68:	b50000b3 	cbnz	x19, 2c7c <lib_flushall_unlocked+0x44>
    2c6c:	2a1403e0 	mov	w0, w20
    2c70:	f9400bf4 	ldr	x20, [sp, #16]
    2c74:	a8c24ffe 	ldp	x30, x19, [sp], #32
    2c78:	d65f03c0 	ret
    2c7c:	79417260 	ldrh	w0, [x19, #184]
    2c80:	370800a0 	tbnz	w0, #1, 2c94 <lib_flushall_unlocked+0x5c>
    2c84:	2a1403e1 	mov	w1, w20
    2c88:	f9400273 	ldr	x19, [x19]
    2c8c:	2a0103f4 	mov	w20, w1
    2c90:	17fffff6 	b	2c68 <lib_flushall_unlocked+0x30>
    2c94:	aa1303e0 	mov	x0, x19
    2c98:	94000000 	bl	2d34 <lib_fflush_unlocked>	2c98: R_AARCH64_CALL26	lib_fflush_unlocked
    2c9c:	2a0003e1 	mov	w1, w0
    2ca0:	36ffff20 	tbz	w0, #31, 2c84 <lib_flushall_unlocked+0x4c>
    2ca4:	17fffff9 	b	2c88 <lib_flushall_unlocked+0x50>
    2ca8:	52800014 	mov	w20, #0x0                   	// #0
    2cac:	17fffff0 	b	2c6c <lib_flushall_unlocked+0x34>

0000000000002cb0 <lib_flushall>:
lib_flushall():
    2cb0:	a9be4ffe 	stp	x30, x19, [sp, #-32]!
    2cb4:	a90157f4 	stp	x20, x21, [sp, #16]
    2cb8:	b40003a0 	cbz	x0, 2d2c <lib_flushall+0x7c>
    2cbc:	aa0003f3 	mov	x19, x0
    2cc0:	94000000 	bl	2534 <nxmutex_lock>	2cc0: R_AARCH64_CALL26	nxmutex_lock
    2cc4:	91008260 	add	x0, x19, #0x20
    2cc8:	94000000 	bl	2de4 <lib_fflush>	2cc8: R_AARCH64_CALL26	lib_fflush
    2ccc:	91038260 	add	x0, x19, #0xe0
    2cd0:	94000000 	bl	2de4 <lib_fflush>	2cd0: R_AARCH64_CALL26	lib_fflush
    2cd4:	91068260 	add	x0, x19, #0x1a0
    2cd8:	94000000 	bl	2de4 <lib_fflush>	2cd8: R_AARCH64_CALL26	lib_fflush
    2cdc:	f9413274 	ldr	x20, [x19, #608]
    2ce0:	52800015 	mov	w21, #0x0                   	// #0
    2ce4:	b50000f4 	cbnz	x20, 2d00 <lib_flushall+0x50>
    2ce8:	aa1303e0 	mov	x0, x19
    2cec:	94000000 	bl	26ac <nxmutex_unlock>	2cec: R_AARCH64_CALL26	nxmutex_unlock
    2cf0:	2a1503e0 	mov	w0, w21
    2cf4:	a94157f4 	ldp	x20, x21, [sp, #16]
    2cf8:	a8c24ffe 	ldp	x30, x19, [sp], #32
    2cfc:	d65f03c0 	ret
    2d00:	79417280 	ldrh	w0, [x20, #184]
    2d04:	370800a0 	tbnz	w0, #1, 2d18 <lib_flushall+0x68>
    2d08:	2a1503e1 	mov	w1, w21
    2d0c:	f9400294 	ldr	x20, [x20]
    2d10:	2a0103f5 	mov	w21, w1
    2d14:	17fffff4 	b	2ce4 <lib_flushall+0x34>
    2d18:	aa1403e0 	mov	x0, x20
    2d1c:	94000000 	bl	2de4 <lib_fflush>	2d1c: R_AARCH64_CALL26	lib_fflush
    2d20:	2a0003e1 	mov	w1, w0
    2d24:	36ffff20 	tbz	w0, #31, 2d08 <lib_flushall+0x58>
    2d28:	17fffff9 	b	2d0c <lib_flushall+0x5c>
    2d2c:	52800015 	mov	w21, #0x0                   	// #0
    2d30:	17fffff0 	b	2cf0 <lib_flushall+0x40>

0000000000002d34 <lib_fflush_unlocked>:
lib_fflush_unlocked():
    2d34:	a9be4ffe 	stp	x30, x19, [sp, #-32]!
    2d38:	aa0003f3 	mov	x19, x0
    2d3c:	a90157f4 	stp	x20, x21, [sp, #16]
    2d40:	79417000 	ldrh	w0, [x0, #184]
    2d44:	360804c0 	tbz	w0, #1, 2ddc <lib_fflush_unlocked+0xa8>
    2d48:	f9402e75 	ldr	x21, [x19, #88]
    2d4c:	b50000b5 	cbnz	x21, 2d60 <lib_fflush_unlocked+0x2c>
    2d50:	d2800000 	mov	x0, #0x0                   	// #0
    2d54:	a94157f4 	ldp	x20, x21, [sp, #16]
    2d58:	a8c24ffe 	ldp	x30, x19, [sp], #32
    2d5c:	d65f03c0 	ret
    2d60:	f9403674 	ldr	x20, [x19, #104]
    2d64:	eb1402bf 	cmp	x21, x20
    2d68:	54ffff40 	b.eq	2d50 <lib_fflush_unlocked+0x1c>  // b.none
    2d6c:	f9403a60 	ldr	x0, [x19, #112]
    2d70:	eb0002bf 	cmp	x21, x0
    2d74:	54fffee1 	b.ne	2d50 <lib_fflush_unlocked+0x1c>  // b.any
    2d78:	cb150294 	sub	x20, x20, x21
    2d7c:	f9401e63 	ldr	x3, [x19, #56]
    2d80:	aa1403e2 	mov	x2, x20
    2d84:	f9402a60 	ldr	x0, [x19, #80]
    2d88:	aa1503e1 	mov	x1, x21
    2d8c:	b4000163 	cbz	x3, 2db8 <lib_fflush_unlocked+0x84>
    2d90:	d63f0060 	blr	x3
    2d94:	b6f80160 	tbz	x0, #63, 2dc0 <lib_fflush_unlocked+0x8c>
    2d98:	3942ea60 	ldrb	w0, [x19, #186]
    2d9c:	321f0000 	orr	w0, w0, #0x2
    2da0:	3902ea60 	strb	w0, [x19, #186]
    2da4:	94000000 	bl	2454 <__errno>	2da4: R_AARCH64_CALL26	__errno
    2da8:	b9400000 	ldr	w0, [x0]
    2dac:	4b0003e0 	neg	w0, w0
    2db0:	93407c00 	sxtw	x0, w0
    2db4:	17ffffe8 	b	2d54 <lib_fflush_unlocked+0x20>
    2db8:	94000000 	bl	2fe0 <write>	2db8: R_AARCH64_CALL26	write
    2dbc:	17fffff6 	b	2d94 <lib_fflush_unlocked+0x60>
    2dc0:	cb000294 	sub	x20, x20, x0
    2dc4:	8b0002b5 	add	x21, x21, x0
    2dc8:	f100029f 	cmp	x20, #0x0
    2dcc:	54fffd8c 	b.gt	2d7c <lib_fflush_unlocked+0x48>
    2dd0:	f9402e60 	ldr	x0, [x19, #88]
    2dd4:	f9003660 	str	x0, [x19, #104]
    2dd8:	17ffffde 	b	2d50 <lib_fflush_unlocked+0x1c>
    2ddc:	92800100 	mov	x0, #0xfffffffffffffff7    	// #-9
    2de0:	17ffffdd 	b	2d54 <lib_fflush_unlocked+0x20>

0000000000002de4 <lib_fflush>:
lib_fflush():
    2de4:	a9be4ffe 	stp	x30, x19, [sp, #-32]!
    2de8:	aa0003f3 	mov	x19, x0
    2dec:	f9000bf4 	str	x20, [sp, #16]
    2df0:	94000000 	bl	2e18 <flockfile>	2df0: R_AARCH64_CALL26	flockfile
    2df4:	aa1303e0 	mov	x0, x19
    2df8:	94000000 	bl	2d34 <lib_fflush_unlocked>	2df8: R_AARCH64_CALL26	lib_fflush_unlocked
    2dfc:	aa0003f4 	mov	x20, x0
    2e00:	aa1303e0 	mov	x0, x19
    2e04:	94000000 	bl	2e28 <funlockfile>	2e04: R_AARCH64_CALL26	funlockfile
    2e08:	aa1403e0 	mov	x0, x20
    2e0c:	f9400bf4 	ldr	x20, [sp, #16]
    2e10:	a8c24ffe 	ldp	x30, x19, [sp], #32
    2e14:	d65f03c0 	ret

0000000000002e18 <flockfile>:
flockfile():
    2e18:	91002000 	add	x0, x0, #0x8
    2e1c:	14000000 	b	27b8 <nxrmutex_lock>	2e1c: R_AARCH64_JUMP26	nxrmutex_lock

0000000000002e20 <ftrylockfile>:
ftrylockfile():
    2e20:	91002000 	add	x0, x0, #0x8
    2e24:	14000000 	b	2810 <nxrmutex_trylock>	2e24: R_AARCH64_JUMP26	nxrmutex_trylock

0000000000002e28 <funlockfile>:
funlockfile():
    2e28:	91002000 	add	x0, x0, #0x8
    2e2c:	14000000 	b	2940 <nxrmutex_unlock>	2e2c: R_AARCH64_JUMP26	nxrmutex_unlock

0000000000002e30 <lib_get_streams>:
lib_get_streams():
    2e30:	f81f0ffe 	str	x30, [sp, #-16]!
    2e34:	94000000 	bl	242c <task_get_info>	2e34: R_AARCH64_CALL26	task_get_info
    2e38:	9106a000 	add	x0, x0, #0x1a8
    2e3c:	f84107fe 	ldr	x30, [sp], #16
    2e40:	d65f03c0 	ret

0000000000002e44 <lib_get_stream>:
lib_get_stream():
    2e44:	a9bf4ffe 	stp	x30, x19, [sp, #-16]!
    2e48:	2a0003f3 	mov	w19, w0
    2e4c:	94000000 	bl	242c <task_get_info>	2e4c: R_AARCH64_CALL26	task_get_info
    2e50:	52801802 	mov	w2, #0xc0                  	// #192
    2e54:	d2803901 	mov	x1, #0x1c8                 	// #456
    2e58:	9b220673 	smaddl	x19, w19, w2, x1
    2e5c:	8b130000 	add	x0, x0, x19
    2e60:	a8c14ffe 	ldp	x30, x19, [sp], #16
    2e64:	d65f03c0 	ret

0000000000002e68 <abort>:
abort():
    2e68:	f81f0ffe 	str	x30, [sp, #-16]!
    2e6c:	52800020 	mov	w0, #0x1                   	// #1
    2e70:	94000000 	bl	2ec0 <_exit>	2e70: R_AARCH64_CALL26	_exit

0000000000002e74 <pthread_exit>:
pthread_exit():
    2e74:	a9be7bfd 	stp	x29, x30, [sp, #-32]!
    2e78:	d2800001 	mov	x1, #0x0                   	// #0
    2e7c:	910003fd 	mov	x29, sp
    2e80:	f9000bf3 	str	x19, [sp, #16]
    2e84:	aa0003f3 	mov	x19, x0
    2e88:	52800020 	mov	w0, #0x1                   	// #1
    2e8c:	94000000 	bl	2a1c <task_setcancelstate>	2e8c: R_AARCH64_CALL26	task_setcancelstate
    2e90:	aa1303e0 	mov	x0, x19
    2e94:	94000000 	bl	2f08 <nx_pthread_exit>	2e94: R_AARCH64_CALL26	nx_pthread_exit

0000000000002e98 <_assert>:
_assert():
    2e98:	aa0003e5 	mov	x5, x0
    2e9c:	aa0303e4 	mov	x4, x3
    2ea0:	d28000e0 	mov	x0, #0x7                   	// #7
    2ea4:	aa0203e3 	mov	x3, x2
    2ea8:	93407c22 	sxtw	x2, w1
    2eac:	aa0503e1 	mov	x1, x5
    2eb0:	f81f0ffe 	str	x30, [sp, #-16]!
    2eb4:	d4000001 	svc	#0x0
    2eb8:	f84107fe 	ldr	x30, [sp], #16
    2ebc:	d65f03c0 	ret

0000000000002ec0 <_exit>:
_exit():
    2ec0:	93407c01 	sxtw	x1, w0
    2ec4:	d28000c0 	mov	x0, #0x6                   	// #6
    2ec8:	f81f0ffe 	str	x30, [sp, #-16]!
    2ecc:	d4000001 	svc	#0x0
    2ed0:	14000000 	b	2ed0 <_exit+0x10>

0000000000002ed4 <clock_gettime>:
clock_gettime():
    2ed4:	2a0003e3 	mov	w3, w0
    2ed8:	aa0103e2 	mov	x2, x1
    2edc:	d2800620 	mov	x0, #0x31                  	// #49
    2ee0:	f81f0ffe 	str	x30, [sp, #-16]!
    2ee4:	93407c61 	sxtw	x1, w3
    2ee8:	d4000001 	svc	#0x0
    2eec:	f84107fe 	ldr	x30, [sp], #16
    2ef0:	d65f03c0 	ret

0000000000002ef4 <gettid>:
gettid():
    2ef4:	d2800120 	mov	x0, #0x9                   	// #9
    2ef8:	f81f0ffe 	str	x30, [sp, #-16]!
    2efc:	d4000001 	svc	#0x0
    2f00:	f84107fe 	ldr	x30, [sp], #16
    2f04:	d65f03c0 	ret

0000000000002f08 <nx_pthread_exit>:
nx_pthread_exit():
    2f08:	aa0003e1 	mov	x1, x0
    2f0c:	d2800e00 	mov	x0, #0x70                  	// #112
    2f10:	f81f0ffe 	str	x30, [sp, #-16]!
    2f14:	d4000001 	svc	#0x0
    2f18:	14000000 	b	2f18 <nx_pthread_exit+0x10>

0000000000002f1c <nxsem_clockwait>:
nxsem_clockwait():
    2f1c:	aa0003e4 	mov	x4, x0
    2f20:	aa0203e3 	mov	x3, x2
    2f24:	d2800380 	mov	x0, #0x1c                  	// #28
    2f28:	93407c22 	sxtw	x2, w1
    2f2c:	aa0403e1 	mov	x1, x4
    2f30:	f81f0ffe 	str	x30, [sp, #-16]!
    2f34:	d4000001 	svc	#0x0
    2f38:	f84107fe 	ldr	x30, [sp], #16
    2f3c:	d65f03c0 	ret

0000000000002f40 <nxsem_destroy>:
nxsem_destroy():
    2f40:	aa0003e1 	mov	x1, x0
    2f44:	d2800340 	mov	x0, #0x1a                  	// #26
    2f48:	f81f0ffe 	str	x30, [sp, #-16]!
    2f4c:	d4000001 	svc	#0x0
    2f50:	f84107fe 	ldr	x30, [sp], #16
    2f54:	d65f03c0 	ret

0000000000002f58 <nxsem_post>:
nxsem_post():
    2f58:	aa0003e1 	mov	x1, x0
    2f5c:	d2800360 	mov	x0, #0x1b                  	// #27
    2f60:	f81f0ffe 	str	x30, [sp, #-16]!
    2f64:	d4000001 	svc	#0x0
    2f68:	f84107fe 	ldr	x30, [sp], #16
    2f6c:	d65f03c0 	ret

0000000000002f70 <nxsem_trywait>:
nxsem_trywait():
    2f70:	aa0003e1 	mov	x1, x0
    2f74:	d28003c0 	mov	x0, #0x1e                  	// #30
    2f78:	f81f0ffe 	str	x30, [sp, #-16]!
    2f7c:	d4000001 	svc	#0x0
    2f80:	f84107fe 	ldr	x30, [sp], #16
    2f84:	d65f03c0 	ret

0000000000002f88 <nxsem_wait>:
nxsem_wait():
    2f88:	aa0003e1 	mov	x1, x0
    2f8c:	d28003e0 	mov	x0, #0x1f                  	// #31
    2f90:	f81f0ffe 	str	x30, [sp, #-16]!
    2f94:	d4000001 	svc	#0x0
    2f98:	f84107fe 	ldr	x30, [sp], #16
    2f9c:	d65f03c0 	ret

0000000000002fa0 <sched_getparam>:
sched_getparam():
    2fa0:	2a0003e3 	mov	w3, w0
    2fa4:	aa0103e2 	mov	x2, x1
    2fa8:	d28001a0 	mov	x0, #0xd                   	// #13
    2fac:	f81f0ffe 	str	x30, [sp, #-16]!
    2fb0:	93407c61 	sxtw	x1, w3
    2fb4:	d4000001 	svc	#0x0
    2fb8:	f84107fe 	ldr	x30, [sp], #16
    2fbc:	d65f03c0 	ret

0000000000002fc0 <sched_setparam>:
sched_setparam():
    2fc0:	2a0003e3 	mov	w3, w0
    2fc4:	aa0103e2 	mov	x2, x1
    2fc8:	d2800240 	mov	x0, #0x12                  	// #18
    2fcc:	f81f0ffe 	str	x30, [sp, #-16]!
    2fd0:	93407c61 	sxtw	x1, w3
    2fd4:	d4000001 	svc	#0x0
    2fd8:	f84107fe 	ldr	x30, [sp], #16
    2fdc:	d65f03c0 	ret

0000000000002fe0 <write>:
write():
    2fe0:	2a0003e4 	mov	w4, w0
    2fe4:	aa0203e3 	mov	x3, x2
    2fe8:	d28007c0 	mov	x0, #0x3e                  	// #62
    2fec:	aa0103e2 	mov	x2, x1
    2ff0:	93407c81 	sxtw	x1, w4
    2ff4:	f81f0ffe 	str	x30, [sp, #-16]!
    2ff8:	d4000001 	svc	#0x0
    2ffc:	f84107fe 	ldr	x30, [sp], #16
    3000:	d65f03c0 	ret

0000000000003004 <nsh_consolemain>:
nsh_consolemain():
    3004:	a9be4ffe 	stp	x30, x19, [sp, #-32]!
    3008:	a90157f4 	stp	x20, x21, [sp, #16]
    300c:	2a0003f4 	mov	w20, w0
    3010:	aa0103f5 	mov	x21, x1
    3014:	52800020 	mov	w0, #0x1                   	// #1
    3018:	94000000 	bl	3700 <nsh_newconsole>	3018: R_AARCH64_CALL26	nsh_newconsole
    301c:	b50000e0 	cbnz	x0, 3038 <nsh_consolemain+0x34>
    3020:	90000002 	adrp	x2, ebb8 <_srodata>	3020: R_AARCH64_ADR_PREL_PG_HI21	.rodata+0x281
    3024:	90000000 	adrp	x0, ebb8 <_srodata>	3024: R_AARCH64_ADR_PREL_PG_HI21	.rodata+0x296
    3028:	91000042 	add	x2, x2, #0x0	3028: R_AARCH64_ADD_ABS_LO12_NC	.rodata+0x281
    302c:	91000000 	add	x0, x0, #0x0	302c: R_AARCH64_ADD_ABS_LO12_NC	.rodata+0x296
    3030:	528008a1 	mov	w1, #0x45                  	// #69
    3034:	94000000 	bl	2444 <__assert>	3034: R_AARCH64_CALL26	__assert
    3038:	aa0003f3 	mov	x19, x0
    303c:	2a1403e2 	mov	w2, w20
    3040:	52800021 	mov	w1, #0x1                   	// #1
    3044:	aa1503e3 	mov	x3, x21
    3048:	94000000 	bl	30ec <nsh_session>	3048: R_AARCH64_CALL26	nsh_session
    304c:	2a0003e1 	mov	w1, w0
    3050:	f9402e62 	ldr	x2, [x19, #88]
    3054:	aa1303e0 	mov	x0, x19
    3058:	d63f0040 	blr	x2

000000000000305c <nsh_initialize>:
nsh_initialize():
    305c:	f81f0ffe 	str	x30, [sp, #-16]!
    3060:	94000000 	bl	3074 <nsh_update_prompt>	3060: R_AARCH64_CALL26	nsh_update_prompt
    3064:	f84107fe 	ldr	x30, [sp], #16
    3068:	d2800001 	mov	x1, #0x0                   	// #0
    306c:	529fe020 	mov	w0, #0xff01                	// #65281
    3070:	14000000 	b	e7cc <boardctl>	3070: R_AARCH64_JUMP26	boardctl

0000000000003074 <nsh_update_prompt>:
nsh_update_prompt():
    3074:	a9be4ffe 	stp	x30, x19, [sp, #-32]!
    3078:	90000013 	adrp	x19, 50 <memcpy+0x50>	3078: R_AARCH64_ADR_PREL_PG_HI21	.data+0x8
    307c:	91000273 	add	x19, x19, #0x0	307c: R_AARCH64_ADD_ABS_LO12_NC	.data+0x8
    3080:	f9000bf4 	str	x20, [sp, #16]
    3084:	90000014 	adrp	x20, ebb8 <_srodata>	3084: R_AARCH64_ADR_PREL_PG_HI21	.rodata+0x2a8
    3088:	91000294 	add	x20, x20, #0x0	3088: R_AARCH64_ADD_ABS_LO12_NC	.rodata+0x2a8
    308c:	aa1403e0 	mov	x0, x20
    3090:	94000000 	bl	e860 <getenv>	3090: R_AARCH64_CALL26	getenv
    3094:	b40001a0 	cbz	x0, 30c8 <nsh_update_prompt+0x54>
    3098:	aa1403e0 	mov	x0, x20
    309c:	94000000 	bl	e860 <getenv>	309c: R_AARCH64_CALL26	getenv
    30a0:	d28003c2 	mov	x2, #0x1e                  	// #30
    30a4:	aa0003e1 	mov	x1, x0
    30a8:	aa1303e0 	mov	x0, x19
    30ac:	94000000 	bl	dc70 <strlcpy>	30ac: R_AARCH64_CALL26	strlcpy
    30b0:	f9400bf4 	ldr	x20, [sp, #16]
    30b4:	aa1303e0 	mov	x0, x19
    30b8:	a8c24ffe 	ldp	x30, x19, [sp], #32
    30bc:	90000001 	adrp	x1, ebb8 <_srodata>	30bc: R_AARCH64_ADR_PREL_PG_HI21	.rodata+0x2ac
    30c0:	91000021 	add	x1, x1, #0x0	30c0: R_AARCH64_ADD_ABS_LO12_NC	.rodata+0x2ac
    30c4:	14000000 	b	dcac <strcat>	30c4: R_AARCH64_JUMP26	strcat
    30c8:	f9400bf4 	ldr	x20, [sp, #16]
    30cc:	aa1303e0 	mov	x0, x19
    30d0:	a8c24ffe 	ldp	x30, x19, [sp], #32
    30d4:	90000001 	adrp	x1, ebb8 <_srodata>	30d4: R_AARCH64_ADR_PREL_PG_HI21	.rodata+0x2af
    30d8:	91000021 	add	x1, x1, #0x0	30d8: R_AARCH64_ADD_ABS_LO12_NC	.rodata+0x2af
    30dc:	14000000 	b	780 <strcpy>	30dc: R_AARCH64_JUMP26	strcpy

00000000000030e0 <nsh_prompt>:
nsh_prompt():
    30e0:	90000000 	adrp	x0, 50 <memcpy+0x50>	30e0: R_AARCH64_ADR_PREL_PG_HI21	.data+0x8
    30e4:	91000000 	add	x0, x0, #0x0	30e4: R_AARCH64_ADD_ABS_LO12_NC	.data+0x8
    30e8:	d65f03c0 	ret

00000000000030ec <nsh_session>:
nsh_session():
    30ec:	a9bd4ffe 	stp	x30, x19, [sp, #-48]!
    30f0:	a90157f4 	stp	x20, x21, [sp, #16]
    30f4:	f90013f6 	str	x22, [sp, #32]
    30f8:	b50000e0 	cbnz	x0, 3114 <nsh_session+0x28>
    30fc:	90000002 	adrp	x2, ebb8 <_srodata>	30fc: R_AARCH64_ADR_PREL_PG_HI21	.rodata+0x2b5
    3100:	90000000 	adrp	x0, ebb8 <_srodata>	3100: R_AARCH64_ADR_PREL_PG_HI21	.rodata+0x2bc
    3104:	91000042 	add	x2, x2, #0x0	3104: R_AARCH64_ADD_ABS_LO12_NC	.rodata+0x2b5
    3108:	91000000 	add	x0, x0, #0x0	3108: R_AARCH64_ADD_ABS_LO12_NC	.rodata+0x2bc
    310c:	528009a1 	mov	w1, #0x4d                  	// #77
    3110:	94000000 	bl	2444 <__assert>	3110: R_AARCH64_CALL26	__assert
    3114:	aa0003f3 	mov	x19, x0
    3118:	2a0203f6 	mov	w22, w2
    311c:	aa0303f4 	mov	x20, x3
    3120:	34000121 	cbz	w1, 3144 <nsh_session+0x58>
    3124:	90000015 	adrp	x21, f175 <g_nshgreeting>	3124: R_AARCH64_ADR_PREL_PG_HI21	g_nshgreeting
    3128:	910002b5 	add	x21, x21, #0x0	3128: R_AARCH64_ADD_ABS_LO12_NC	g_nshgreeting
    312c:	aa1503e0 	mov	x0, x21
    3130:	94000000 	bl	940 <strlen>	3130: R_AARCH64_CALL26	strlen
    3134:	aa0003e2 	mov	x2, x0
    3138:	b9432660 	ldr	w0, [x19, #804]
    313c:	aa1503e1 	mov	x1, x21
    3140:	94000000 	bl	2fe0 <write>	3140: R_AARCH64_CALL26	write
    3144:	710006df 	cmp	w22, #0x1
    3148:	540003cc 	b.gt	31c0 <nsh_session+0xd4>
    314c:	910cb275 	add	x21, x19, #0x32c
    3150:	b9432676 	ldr	w22, [x19, #804]
    3154:	94000000 	bl	30e0 <nsh_prompt>	3154: R_AARCH64_CALL26	nsh_prompt
    3158:	aa0003f4 	mov	x20, x0
    315c:	94000000 	bl	30e0 <nsh_prompt>	315c: R_AARCH64_CALL26	nsh_prompt
    3160:	94000000 	bl	940 <strlen>	3160: R_AARCH64_CALL26	strlen
    3164:	aa0003e2 	mov	x2, x0
    3168:	aa1403e1 	mov	x1, x20
    316c:	2a1603e0 	mov	w0, w22
    3170:	94000000 	bl	2fe0 <write>	3170: R_AARCH64_CALL26	write
    3174:	b9432262 	ldr	w2, [x19, #800]
    3178:	aa1503e0 	mov	x0, x21
    317c:	b9432663 	ldr	w3, [x19, #804]
    3180:	52800a01 	mov	w1, #0x50                  	// #80
    3184:	94000000 	bl	33b0 <readline_fd>	3184: R_AARCH64_CALL26	readline_fd
    3188:	3100041f 	cmn	w0, #0x1
    318c:	54000861 	b.ne	3298 <nsh_session+0x1ac>  // b.any
    3190:	b9432a73 	ldr	w19, [x19, #808]
    3194:	94000000 	bl	2454 <__errno>	3194: R_AARCH64_CALL26	__errno
    3198:	b9400004 	ldr	w4, [x0]
    319c:	90000003 	adrp	x3, ebb8 <_srodata>	319c: R_AARCH64_ADR_PREL_PG_HI21	.rodata+0x2f8
    31a0:	2a1303e0 	mov	w0, w19
    31a4:	91000063 	add	x3, x3, #0x0	31a4: R_AARCH64_ADD_ABS_LO12_NC	.rodata+0x2f8
    31a8:	90000002 	adrp	x2, ebb8 <_srodata>	31a8: R_AARCH64_ADR_PREL_PG_HI21	.rodata+0x301
    31ac:	90000001 	adrp	x1, f03d <g_fmtcmdfailed>	31ac: R_AARCH64_ADR_PREL_PG_HI21	g_fmtcmdfailed
    31b0:	91000042 	add	x2, x2, #0x0	31b0: R_AARCH64_ADD_ABS_LO12_NC	.rodata+0x301
    31b4:	91000021 	add	x1, x1, #0x0	31b4: R_AARCH64_ADD_ABS_LO12_NC	g_fmtcmdfailed
    31b8:	94000000 	bl	ef8 <dprintf>	31b8: R_AARCH64_CALL26	dprintf
    31bc:	1400000d 	b	31f0 <nsh_session+0x104>
    31c0:	f9400695 	ldr	x21, [x20, #8]
    31c4:	90000001 	adrp	x1, ebb8 <_srodata>	31c4: R_AARCH64_ADR_PREL_PG_HI21	.rodata+0x2ca
    31c8:	91000021 	add	x1, x1, #0x0	31c8: R_AARCH64_ADD_ABS_LO12_NC	.rodata+0x2ca
    31cc:	aa1503e0 	mov	x0, x21
    31d0:	94000000 	bl	680 <strcmp>	31d0: R_AARCH64_CALL26	strcmp
    31d4:	35000120 	cbnz	w0, 31f8 <nsh_session+0x10c>
    31d8:	f9400282 	ldr	x2, [x20]
    31dc:	90000001 	adrp	x1, ebb8 <_srodata>	31dc: R_AARCH64_ADR_PREL_PG_HI21	.rodata+0x2cd
    31e0:	f9401e63 	ldr	x3, [x19, #56]
    31e4:	91000021 	add	x1, x1, #0x0	31e4: R_AARCH64_ADD_ABS_LO12_NC	.rodata+0x2cd
    31e8:	aa1303e0 	mov	x0, x19
    31ec:	d63f0060 	blr	x3
    31f0:	52800000 	mov	w0, #0x0                   	// #0
    31f4:	14000015 	b	3248 <nsh_session+0x15c>
    31f8:	90000001 	adrp	x1, ebb8 <_srodata>	31f8: R_AARCH64_ADR_PREL_PG_HI21	.rodata+0x2f5
    31fc:	aa1503e0 	mov	x0, x21
    3200:	91000021 	add	x1, x1, #0x0	3200: R_AARCH64_ADD_ABS_LO12_NC	.rodata+0x2f5
    3204:	94000000 	bl	680 <strcmp>	3204: R_AARCH64_CALL26	strcmp
    3208:	35000280 	cbnz	w0, 3258 <nsh_session+0x16c>
    320c:	71000adf 	cmp	w22, #0x2
    3210:	540000e0 	b.eq	322c <nsh_session+0x140>  // b.none
    3214:	f9400a81 	ldr	x1, [x20, #16]
    3218:	aa1303e0 	mov	x0, x19
    321c:	f94013f6 	ldr	x22, [sp, #32]
    3220:	a94157f4 	ldp	x20, x21, [sp, #16]
    3224:	a8c34ffe 	ldp	x30, x19, [sp], #48
    3228:	14000000 	b	4c98 <nsh_parse>	3228: R_AARCH64_JUMP26	nsh_parse
    322c:	f9400282 	ldr	x2, [x20]
    3230:	90000001 	adrp	x1, f137 <g_fmtargrequired>	3230: R_AARCH64_ADR_PREL_PG_HI21	g_fmtargrequired
    3234:	f9401a63 	ldr	x3, [x19, #48]
    3238:	91000021 	add	x1, x1, #0x0	3238: R_AARCH64_ADD_ABS_LO12_NC	g_fmtargrequired
    323c:	aa1303e0 	mov	x0, x19
    3240:	d63f0060 	blr	x3
    3244:	52800020 	mov	w0, #0x1                   	// #1
    3248:	f94013f6 	ldr	x22, [sp, #32]
    324c:	a94157f4 	ldp	x20, x21, [sp, #16]
    3250:	a8c34ffe 	ldp	x30, x19, [sp], #48
    3254:	d65f03c0 	ret
    3258:	394002a0 	ldrb	w0, [x21]
    325c:	f9400281 	ldr	x1, [x20]
    3260:	7100b41f 	cmp	w0, #0x2d
    3264:	540000c1 	b.ne	327c <nsh_session+0x190>  // b.any
    3268:	f9401a63 	ldr	x3, [x19, #48]
    326c:	aa0103e2 	mov	x2, x1
    3270:	90000001 	adrp	x1, f15e <g_fmtsyntax>	3270: R_AARCH64_ADR_PREL_PG_HI21	g_fmtsyntax
    3274:	91000021 	add	x1, x1, #0x0	3274: R_AARCH64_ADD_ABS_LO12_NC	g_fmtsyntax
    3278:	17fffff1 	b	323c <nsh_session+0x150>
    327c:	f94013f6 	ldr	x22, [sp, #32]
    3280:	aa1503e2 	mov	x2, x21
    3284:	aa1303e0 	mov	x0, x19
    3288:	52800023 	mov	w3, #0x1                   	// #1
    328c:	a94157f4 	ldp	x20, x21, [sp, #16]
    3290:	a8c34ffe 	ldp	x30, x19, [sp], #48
    3294:	14000000 	b	4e10 <nsh_script>	3294: R_AARCH64_JUMP26	nsh_script
    3298:	aa1503e1 	mov	x1, x21
    329c:	aa1303e0 	mov	x0, x19
    32a0:	94000000 	bl	4c98 <nsh_parse>	32a0: R_AARCH64_CALL26	nsh_parse
    32a4:	94000000 	bl	3074 <nsh_update_prompt>	32a4: R_AARCH64_CALL26	nsh_update_prompt
    32a8:	17ffffaa 	b	3150 <nsh_session+0x64>
    32ac:	f100001f 	cmp	x0, #0x0
    32b0:	fa401824 	ccmp	x1, #0x0, #0x4, ne	// ne = any
    32b4:	54000040 	b.eq	32bc <nsh_session+0x1d0>  // b.none
    32b8:	b5000102 	cbnz	x2, 32d8 <nsh_session+0x1ec>
    32bc:	f81f0ffe 	str	x30, [sp, #-16]!
    32c0:	90000002 	adrp	x2, ebb8 <_srodata>	32c0: R_AARCH64_ADR_PREL_PG_HI21	.rodata+0x30d
    32c4:	90000000 	adrp	x0, ebb8 <_srodata>	32c4: R_AARCH64_ADR_PREL_PG_HI21	.rodata+0x32a
    32c8:	91000042 	add	x2, x2, #0x0	32c8: R_AARCH64_ADD_ABS_LO12_NC	.rodata+0x30d
    32cc:	91000000 	add	x0, x0, #0x0	32cc: R_AARCH64_ADD_ABS_LO12_NC	.rodata+0x32a
    32d0:	52801401 	mov	w1, #0xa0                  	// #160
    32d4:	94000000 	bl	2444 <__assert>	32d4: R_AARCH64_CALL26	__assert
    32d8:	b9401c00 	ldr	w0, [x0, #28]
    32dc:	37f80040 	tbnz	w0, #31, 32e4 <nsh_session+0x1f8>
    32e0:	14000000 	b	2fe0 <write>	32e0: R_AARCH64_JUMP26	write
    32e4:	d65f03c0 	ret
    32e8:	a9be4ffe 	stp	x30, x19, [sp, #-32]!
    32ec:	39007fe1 	strb	w1, [sp, #31]
    32f0:	b50000e0 	cbnz	x0, 330c <nsh_session+0x220>
    32f4:	90000002 	adrp	x2, ebb8 <_srodata>	32f4: R_AARCH64_ADR_PREL_PG_HI21	.rodata+0x338
    32f8:	90000000 	adrp	x0, ebb8 <_srodata>	32f8: R_AARCH64_ADR_PREL_PG_HI21	.rodata+0x32a
    32fc:	91000042 	add	x2, x2, #0x0	32fc: R_AARCH64_ADD_ABS_LO12_NC	.rodata+0x338
    3300:	91000000 	add	x0, x0, #0x0	3300: R_AARCH64_ADD_ABS_LO12_NC	.rodata+0x32a
    3304:	52800f21 	mov	w1, #0x79                  	// #121
    3308:	94000000 	bl	2444 <__assert>	3308: R_AARCH64_CALL26	__assert
    330c:	aa0003f3 	mov	x19, x0
    3310:	b9401c00 	ldr	w0, [x0, #28]
    3314:	37f80100 	tbnz	w0, #31, 3334 <nsh_session+0x248>
    3318:	b9401e60 	ldr	w0, [x19, #28]
    331c:	91007fe1 	add	x1, sp, #0x1f
    3320:	d2800022 	mov	x2, #0x1                   	// #1
    3324:	94000000 	bl	2fe0 <write>	3324: R_AARCH64_CALL26	write
    3328:	f100001f 	cmp	x0, #0x0
    332c:	5400008b 	b.lt	333c <nsh_session+0x250>  // b.tstop
    3330:	54ffff40 	b.eq	3318 <nsh_session+0x22c>  // b.none
    3334:	a8c24ffe 	ldp	x30, x19, [sp], #32
    3338:	d65f03c0 	ret
    333c:	94000000 	bl	2454 <__errno>	333c: R_AARCH64_CALL26	__errno
    3340:	b9400000 	ldr	w0, [x0]
    3344:	7100101f 	cmp	w0, #0x4
    3348:	17fffffa 	b	3330 <nsh_session+0x244>
    334c:	a9be4ffe 	stp	x30, x19, [sp, #-32]!
    3350:	b50000e0 	cbnz	x0, 336c <nsh_session+0x280>
    3354:	90000002 	adrp	x2, ebb8 <_srodata>	3354: R_AARCH64_ADR_PREL_PG_HI21	.rodata+0x338
    3358:	90000000 	adrp	x0, ebb8 <_srodata>	3358: R_AARCH64_ADR_PREL_PG_HI21	.rodata+0x32a
    335c:	91000042 	add	x2, x2, #0x0	335c: R_AARCH64_ADD_ABS_LO12_NC	.rodata+0x338
    3360:	91000000 	add	x0, x0, #0x0	3360: R_AARCH64_ADD_ABS_LO12_NC	.rodata+0x32a
    3364:	52800821 	mov	w1, #0x41                  	// #65
    3368:	94000000 	bl	2444 <__assert>	3368: R_AARCH64_CALL26	__assert
    336c:	aa0003f3 	mov	x19, x0
    3370:	b9401a60 	ldr	w0, [x19, #24]
    3374:	91007fe1 	add	x1, sp, #0x1f
    3378:	d2800022 	mov	x2, #0x1                   	// #1
    337c:	94000000 	bl	ea70 <read>	337c: R_AARCH64_CALL26	read
    3380:	f100001f 	cmp	x0, #0x0
    3384:	b4000120 	cbz	x0, 33a8 <nsh_session+0x2bc>
    3388:	5400008b 	b.lt	3398 <nsh_session+0x2ac>  // b.tstop
    338c:	39407fe0 	ldrb	w0, [sp, #31]
    3390:	a8c24ffe 	ldp	x30, x19, [sp], #32
    3394:	d65f03c0 	ret
    3398:	94000000 	bl	2454 <__errno>	3398: R_AARCH64_CALL26	__errno
    339c:	b9400000 	ldr	w0, [x0]
    33a0:	7100101f 	cmp	w0, #0x4
    33a4:	54fffe60 	b.eq	3370 <nsh_session+0x284>  // b.none
    33a8:	12800000 	mov	w0, #0xffffffff            	// #-1
    33ac:	17fffff9 	b	3390 <nsh_session+0x2a4>

00000000000033b0 <readline_fd>:
readline_fd():
    33b0:	a9b84ffe 	stp	x30, x19, [sp, #-128]!
    33b4:	2a0203f3 	mov	w19, w2
    33b8:	a90157f4 	stp	x20, x21, [sp, #16]
    33bc:	aa0003f4 	mov	x20, x0
    33c0:	2a0103f5 	mov	w21, w1
    33c4:	2a0203e0 	mov	w0, w2
    33c8:	f90013f6 	str	x22, [sp, #32]
    33cc:	2a0303f6 	mov	w22, w3
    33d0:	94000000 	bl	dda0 <isatty>	33d0: R_AARCH64_CALL26	isatty
    33d4:	340001e0 	cbz	w0, 3410 <readline_fd+0x60>
    33d8:	910163e1 	add	x1, sp, #0x58
    33dc:	2a1303e0 	mov	w0, w19
    33e0:	94000000 	bl	ddbc <tcgetattr>	33e0: R_AARCH64_CALL26	tcgetattr
    33e4:	b94067e4 	ldr	w4, [sp, #100]
    33e8:	36080144 	tbz	w4, #1, 3410 <readline_fd+0x60>
    33ec:	121e7884 	and	w4, w4, #0xfffffffd
    33f0:	910163e2 	add	x2, sp, #0x58
    33f4:	2a1303e0 	mov	w0, w19
    33f8:	52800001 	mov	w1, #0x0                   	// #0
    33fc:	b90067e4 	str	w4, [sp, #100]
    3400:	94000000 	bl	ddc8 <tcsetattr>	3400: R_AARCH64_CALL26	tcsetattr
    3404:	b94067e0 	ldr	w0, [sp, #100]
    3408:	321f0000 	orr	w0, w0, #0x2
    340c:	b90067e0 	str	w0, [sp, #100]
    3410:	90000000 	adrp	x0, 0 <memcpy>	3410: R_AARCH64_ADR_PREL_PG_HI21	.text+0x334c
    3414:	91000000 	add	x0, x0, #0x0	3414: R_AARCH64_ADD_ABS_LO12_NC	.text+0x334c
    3418:	aa1403e1 	mov	x1, x20
    341c:	2a1503e2 	mov	w2, w21
    3420:	f9001fe0 	str	x0, [sp, #56]
    3424:	90000000 	adrp	x0, 0 <memcpy>	3424: R_AARCH64_ADR_PREL_PG_HI21	.text+0x32e8
    3428:	91000000 	add	x0, x0, #0x0	3428: R_AARCH64_ADD_ABS_LO12_NC	.text+0x32e8
    342c:	f90023e0 	str	x0, [sp, #64]
    3430:	90000000 	adrp	x0, 0 <memcpy>	3430: R_AARCH64_ADR_PREL_PG_HI21	.text+0x32ac
    3434:	91000000 	add	x0, x0, #0x0	3434: R_AARCH64_ADD_ABS_LO12_NC	.text+0x32ac
    3438:	f90027e0 	str	x0, [sp, #72]
    343c:	9100e3e0 	add	x0, sp, #0x38
    3440:	290a5bf3 	stp	w19, w22, [sp, #80]
    3444:	94000000 	bl	4fa0 <readline_common>	3444: R_AARCH64_CALL26	readline_common
    3448:	aa0003f4 	mov	x20, x0
    344c:	2a1303e0 	mov	w0, w19
    3450:	94000000 	bl	dda0 <isatty>	3450: R_AARCH64_CALL26	isatty
    3454:	340000e0 	cbz	w0, 3470 <readline_fd+0xc0>
    3458:	b94067e0 	ldr	w0, [sp, #100]
    345c:	360800a0 	tbz	w0, #1, 3470 <readline_fd+0xc0>
    3460:	910163e2 	add	x2, sp, #0x58
    3464:	2a1303e0 	mov	w0, w19
    3468:	52800001 	mov	w1, #0x0                   	// #0
    346c:	94000000 	bl	ddc8 <tcsetattr>	346c: R_AARCH64_CALL26	tcsetattr
    3470:	f94013f6 	ldr	x22, [sp, #32]
    3474:	aa1403e0 	mov	x0, x20
    3478:	a94157f4 	ldp	x20, x21, [sp, #16]
    347c:	a8c84ffe 	ldp	x30, x19, [sp], #128
    3480:	d65f03c0 	ret
    3484:	910cb000 	add	x0, x0, #0x32c
    3488:	d65f03c0 	ret
    348c:	b40000e3 	cbz	x3, 34a8 <readline_fd+0xf8>
    3490:	b9432804 	ldr	w4, [x0, #808]
    3494:	b9000464 	str	w4, [x3, #4]
    3498:	b9432404 	ldr	w4, [x0, #804]
    349c:	b9000864 	str	w4, [x3, #8]
    34a0:	b9432004 	ldr	w4, [x0, #800]
    34a4:	b9000064 	str	w4, [x3]
    34a8:	b9032001 	str	w1, [x0, #800]
    34ac:	b9032402 	str	w2, [x0, #804]
    34b0:	d65f03c0 	ret
    34b4:	a9bf4ffe 	stp	x30, x19, [sp, #-16]!
    34b8:	aa0003f3 	mov	x19, x0
    34bc:	b9432400 	ldr	w0, [x0, #804]
    34c0:	7100001f 	cmp	w0, #0x0
    34c4:	7a41a804 	ccmp	w0, #0x1, #0x4, ge	// ge = tcont
    34c8:	54000040 	b.eq	34d0 <readline_fd+0x120>  // b.none
    34cc:	94000000 	bl	e814 <close>	34cc: R_AARCH64_CALL26	close
    34d0:	b9432a60 	ldr	w0, [x19, #808]
    34d4:	7100001f 	cmp	w0, #0x0
    34d8:	7a42a804 	ccmp	w0, #0x2, #0x4, ge	// ge = tcont
    34dc:	540000a0 	b.eq	34f0 <readline_fd+0x140>  // b.none
    34e0:	b9432661 	ldr	w1, [x19, #804]
    34e4:	6b00003f 	cmp	w1, w0
    34e8:	54000040 	b.eq	34f0 <readline_fd+0x140>  // b.none
    34ec:	94000000 	bl	e814 <close>	34ec: R_AARCH64_CALL26	close
    34f0:	b9432260 	ldr	w0, [x19, #800]
    34f4:	7100001f 	cmp	w0, #0x0
    34f8:	5400004d 	b.le	3500 <readline_fd+0x150>
    34fc:	94000000 	bl	e814 <close>	34fc: R_AARCH64_CALL26	close
    3500:	92800000 	mov	x0, #0xffffffffffffffff    	// #-1
    3504:	f9019260 	str	x0, [x19, #800]
    3508:	b9032a60 	str	w0, [x19, #808]
    350c:	a8c14ffe 	ldp	x30, x19, [sp], #16
    3510:	d65f03c0 	ret
    3514:	a9be4ffe 	stp	x30, x19, [sp, #-32]!
    3518:	aa0003f3 	mov	x19, x0
    351c:	f9000bf4 	str	x20, [sp, #16]
    3520:	aa0103f4 	mov	x20, x1
    3524:	94000000 	bl	0 <memcpy>	3524: R_AARCH64_CALL26	.text+0x34b4
    3528:	b9400680 	ldr	w0, [x20, #4]
    352c:	b9032a60 	str	w0, [x19, #808]
    3530:	b9400a80 	ldr	w0, [x20, #8]
    3534:	b9032660 	str	w0, [x19, #804]
    3538:	b9400280 	ldr	w0, [x20]
    353c:	b9032260 	str	w0, [x19, #800]
    3540:	f9400bf4 	ldr	x20, [sp, #16]
    3544:	a8c24ffe 	ldp	x30, x19, [sp], #32
    3548:	d65f03c0 	ret
    354c:	d10403ff 	sub	sp, sp, #0x100
    3550:	a90d0fe2 	stp	x2, x3, [sp, #208]
    3554:	910403e2 	add	x2, sp, #0x100
    3558:	a9030be2 	stp	x2, x2, [sp, #48]
    355c:	910343e2 	add	x2, sp, #0xd0
    3560:	3dc00fff 	ldr	q31, [sp, #48]
    3564:	f90023e2 	str	x2, [sp, #64]
    3568:	128005e2 	mov	w2, #0xffffffd0            	// #-48
    356c:	b9004be2 	str	w2, [sp, #72]
    3570:	12800fe2 	mov	w2, #0xffffff80            	// #-128
    3574:	b9004fe2 	str	w2, [sp, #76]
    3578:	3d8007ff 	str	q31, [sp, #16]
    357c:	910043e2 	add	x2, sp, #0x10
    3580:	3dc013ff 	ldr	q31, [sp, #64]
    3584:	f90003fe 	str	x30, [sp]
    3588:	a90e17e4 	stp	x4, x5, [sp, #224]
    358c:	a90f1fe6 	stp	x6, x7, [sp, #240]
    3590:	3d800bff 	str	q31, [sp, #32]
    3594:	ad0287e0 	stp	q0, q1, [sp, #80]
    3598:	ad038fe2 	stp	q2, q3, [sp, #112]
    359c:	ad0497e4 	stp	q4, q5, [sp, #144]
    35a0:	ad059fe6 	stp	q6, q7, [sp, #176]
    35a4:	b9432800 	ldr	w0, [x0, #808]
    35a8:	94000000 	bl	f60 <vdprintf>	35a8: R_AARCH64_CALL26	vdprintf
    35ac:	f94003fe 	ldr	x30, [sp]
    35b0:	910403ff 	add	sp, sp, #0x100
    35b4:	d65f03c0 	ret
    35b8:	d10403ff 	sub	sp, sp, #0x100
    35bc:	a90d0fe2 	stp	x2, x3, [sp, #208]
    35c0:	910403e2 	add	x2, sp, #0x100
    35c4:	a9030be2 	stp	x2, x2, [sp, #48]
    35c8:	910343e2 	add	x2, sp, #0xd0
    35cc:	3dc00fff 	ldr	q31, [sp, #48]
    35d0:	f90023e2 	str	x2, [sp, #64]
    35d4:	128005e2 	mov	w2, #0xffffffd0            	// #-48
    35d8:	b9004be2 	str	w2, [sp, #72]
    35dc:	12800fe2 	mov	w2, #0xffffff80            	// #-128
    35e0:	b9004fe2 	str	w2, [sp, #76]
    35e4:	3d8007ff 	str	q31, [sp, #16]
    35e8:	910043e2 	add	x2, sp, #0x10
    35ec:	3dc013ff 	ldr	q31, [sp, #64]
    35f0:	f90003fe 	str	x30, [sp]
    35f4:	a90e17e4 	stp	x4, x5, [sp, #224]
    35f8:	a90f1fe6 	stp	x6, x7, [sp, #240]
    35fc:	3d800bff 	str	q31, [sp, #32]
    3600:	ad0287e0 	stp	q0, q1, [sp, #80]
    3604:	ad038fe2 	stp	q2, q3, [sp, #112]
    3608:	ad0497e4 	stp	q4, q5, [sp, #144]
    360c:	ad059fe6 	stp	q6, q7, [sp, #176]
    3610:	b9432400 	ldr	w0, [x0, #804]
    3614:	94000000 	bl	f60 <vdprintf>	3614: R_AARCH64_CALL26	vdprintf
    3618:	f94003fe 	ldr	x30, [sp]
    361c:	910403ff 	add	sp, sp, #0x100
    3620:	d65f03c0 	ret
    3624:	b9432400 	ldr	w0, [x0, #804]
    3628:	14000000 	b	e8ac <ioctl>	3628: R_AARCH64_JUMP26	ioctl
    362c:	a9bf4ffe 	stp	x30, x19, [sp, #-16]!
    3630:	aa0003f3 	mov	x19, x0
    3634:	94000000 	bl	0 <memcpy>	3634: R_AARCH64_CALL26	.text+0x34b4
    3638:	aa1303e0 	mov	x0, x19
    363c:	a8c14ffe 	ldp	x30, x19, [sp], #16
    3640:	14000000 	b	b598 <free>	3640: R_AARCH64_JUMP26	free
    3644:	a9bf4ffe 	stp	x30, x19, [sp, #-16]!
    3648:	2a0103f3 	mov	w19, w1
    364c:	94000000 	bl	0 <memcpy>	364c: R_AARCH64_CALL26	.text+0x362c
    3650:	2a1303e0 	mov	w0, w19
    3654:	94000000 	bl	206c <exit>	3654: R_AARCH64_CALL26	exit
    3658:	a9be4ffe 	stp	x30, x19, [sp, #-32]!
    365c:	f9000bf4 	str	x20, [sp, #16]
    3660:	aa0003f4 	mov	x20, x0
    3664:	b9432000 	ldr	w0, [x0, #800]
    3668:	94000000 	bl	ea70 <read>	3668: R_AARCH64_CALL26	read
    366c:	aa0003f3 	mov	x19, x0
    3670:	b6f80160 	tbz	x0, #63, 369c <readline_fd+0x2ec>
    3674:	b9432294 	ldr	w20, [x20, #800]
    3678:	94000000 	bl	2454 <__errno>	3678: R_AARCH64_CALL26	__errno
    367c:	b9400004 	ldr	w4, [x0]
    3680:	90000002 	adrp	x2, ebb8 <_srodata>	3680: R_AARCH64_ADR_PREL_PG_HI21	.rodata+0x3a4
    3684:	90000001 	adrp	x1, ebb8 <_srodata>	3684: R_AARCH64_ADR_PREL_PG_HI21	.rodata+0x33d
    3688:	2a1403e3 	mov	w3, w20
    368c:	91000042 	add	x2, x2, #0x0	368c: R_AARCH64_ADD_ABS_LO12_NC	.rodata+0x3a4
    3690:	91000021 	add	x1, x1, #0x0	3690: R_AARCH64_ADD_ABS_LO12_NC	.rodata+0x33d
    3694:	52800060 	mov	w0, #0x3                   	// #3
    3698:	94000000 	bl	dd24 <syslog>	3698: R_AARCH64_CALL26	syslog
    369c:	f9400bf4 	ldr	x20, [sp, #16]
    36a0:	aa1303e0 	mov	x0, x19
    36a4:	a8c24ffe 	ldp	x30, x19, [sp], #32
    36a8:	d65f03c0 	ret
    36ac:	a9be4ffe 	stp	x30, x19, [sp, #-32]!
    36b0:	f9000bf4 	str	x20, [sp, #16]
    36b4:	aa0003f4 	mov	x20, x0
    36b8:	b9432400 	ldr	w0, [x0, #804]
    36bc:	94000000 	bl	2fe0 <write>	36bc: R_AARCH64_CALL26	write
    36c0:	aa0003f3 	mov	x19, x0
    36c4:	b6f80160 	tbz	x0, #63, 36f0 <readline_fd+0x340>
    36c8:	b9432694 	ldr	w20, [x20, #804]
    36cc:	94000000 	bl	2454 <__errno>	36cc: R_AARCH64_CALL26	__errno
    36d0:	b9400004 	ldr	w4, [x0]
    36d4:	90000002 	adrp	x2, ebb8 <_srodata>	36d4: R_AARCH64_ADR_PREL_PG_HI21	.rodata+0x393
    36d8:	90000001 	adrp	x1, ebb8 <_srodata>	36d8: R_AARCH64_ADR_PREL_PG_HI21	.rodata+0x368
    36dc:	2a1403e3 	mov	w3, w20
    36e0:	91000042 	add	x2, x2, #0x0	36e0: R_AARCH64_ADD_ABS_LO12_NC	.rodata+0x393
    36e4:	91000021 	add	x1, x1, #0x0	36e4: R_AARCH64_ADD_ABS_LO12_NC	.rodata+0x368
    36e8:	52800060 	mov	w0, #0x3                   	// #3
    36ec:	94000000 	bl	dd24 <syslog>	36ec: R_AARCH64_CALL26	syslog
    36f0:	f9400bf4 	ldr	x20, [sp, #16]
    36f4:	aa1303e0 	mov	x0, x19
    36f8:	a8c24ffe 	ldp	x30, x19, [sp], #32
    36fc:	d65f03c0 	ret

0000000000003700 <nsh_newconsole>:
nsh_newconsole():
    3700:	a9bf4ffe 	stp	x30, x19, [sp, #-16]!
    3704:	12001c13 	and	w19, w0, #0xff
    3708:	d2807000 	mov	x0, #0x380                 	// #896
    370c:	94000000 	bl	b66c <zalloc>	370c: R_AARCH64_CALL26	zalloc
    3710:	b4000480 	cbz	x0, 37a0 <nsh_newconsole+0xa0>
    3714:	90000001 	adrp	x1, 0 <memcpy>	3714: R_AARCH64_ADR_PREL_PG_HI21	.text+0x37a8
    3718:	91000021 	add	x1, x1, #0x0	3718: R_AARCH64_ADD_ABS_LO12_NC	.text+0x37a8
    371c:	f9000001 	str	x1, [x0]
    3720:	90000001 	adrp	x1, 0 <memcpy>	3720: R_AARCH64_ADR_PREL_PG_HI21	.text+0x362c
    3724:	91000021 	add	x1, x1, #0x0	3724: R_AARCH64_ADD_ABS_LO12_NC	.text+0x362c
    3728:	90000002 	adrp	x2, 0 <memcpy>	3728: R_AARCH64_ADR_PREL_PG_HI21	.text+0x36ac
    372c:	91000042 	add	x2, x2, #0x0	372c: R_AARCH64_ADD_ABS_LO12_NC	.text+0x36ac
    3730:	a9010801 	stp	x1, x2, [x0, #16]
    3734:	90000001 	adrp	x1, 0 <memcpy>	3734: R_AARCH64_ADR_PREL_PG_HI21	.text+0x3658
    3738:	91000021 	add	x1, x1, #0x0	3738: R_AARCH64_ADD_ABS_LO12_NC	.text+0x3658
    373c:	90000002 	adrp	x2, 0 <memcpy>	373c: R_AARCH64_ADR_PREL_PG_HI21	.text+0x3624
    3740:	91000042 	add	x2, x2, #0x0	3740: R_AARCH64_ADD_ABS_LO12_NC	.text+0x3624
    3744:	a9020801 	stp	x1, x2, [x0, #32]
    3748:	90000001 	adrp	x1, 0 <memcpy>	3748: R_AARCH64_ADR_PREL_PG_HI21	.text+0x354c
    374c:	91000021 	add	x1, x1, #0x0	374c: R_AARCH64_ADD_ABS_LO12_NC	.text+0x354c
    3750:	90000002 	adrp	x2, 0 <memcpy>	3750: R_AARCH64_ADR_PREL_PG_HI21	.text+0x35b8
    3754:	91000042 	add	x2, x2, #0x0	3754: R_AARCH64_ADD_ABS_LO12_NC	.text+0x35b8
    3758:	a9030801 	stp	x1, x2, [x0, #48]
    375c:	52800041 	mov	w1, #0x2                   	// #2
    3760:	390b2001 	strb	w1, [x0, #712]
    3764:	90000001 	adrp	x1, 0 <memcpy>	3764: R_AARCH64_ADR_PREL_PG_HI21	.text+0x3484
    3768:	91000021 	add	x1, x1, #0x0	3768: R_AARCH64_ADD_ABS_LO12_NC	.text+0x3484
    376c:	90000002 	adrp	x2, 0 <memcpy>	376c: R_AARCH64_ADR_PREL_PG_HI21	.text+0x348c
    3770:	91000042 	add	x2, x2, #0x0	3770: R_AARCH64_ADD_ABS_LO12_NC	.text+0x348c
    3774:	a9040801 	stp	x1, x2, [x0, #64]
    3778:	90000001 	adrp	x1, 0 <memcpy>	3778: R_AARCH64_ADR_PREL_PG_HI21	.text+0x3514
    377c:	91000021 	add	x1, x1, #0x0	377c: R_AARCH64_ADD_ABS_LO12_NC	.text+0x3514
    3780:	90000002 	adrp	x2, 0 <memcpy>	3780: R_AARCH64_ADR_PREL_PG_HI21	.text+0x3644
    3784:	91000042 	add	x2, x2, #0x0	3784: R_AARCH64_ADD_ABS_LO12_NC	.text+0x3644
    3788:	a9050801 	stp	x1, x2, [x0, #80]
    378c:	d2c00021 	mov	x1, #0x100000000           	// #4294967296
    3790:	390c6013 	strb	w19, [x0, #792]
    3794:	f9019001 	str	x1, [x0, #800]
    3798:	52800041 	mov	w1, #0x2                   	// #2
    379c:	b9032801 	str	w1, [x0, #808]
    37a0:	a8c14ffe 	ldp	x30, x19, [sp], #16
    37a4:	d65f03c0 	ret
    37a8:	f81f0ffe 	str	x30, [sp, #-16]!
    37ac:	394c6000 	ldrb	w0, [x0, #792]
    37b0:	94000000 	bl	3700 <nsh_newconsole>	37b0: R_AARCH64_CALL26	nsh_newconsole
    37b4:	f84107fe 	ldr	x30, [sp], #16
    37b8:	d65f03c0 	ret
    37bc:	910a8002 	add	x2, x0, #0x2a0
    37c0:	394b8c00 	ldrb	w0, [x0, #739]
    37c4:	12001c21 	and	w1, w1, #0xff
    37c8:	91001000 	add	x0, x0, #0x4
    37cc:	8b001040 	add	x0, x2, x0, lsl #4
    37d0:	f9400403 	ldr	x3, [x0, #8]
    37d4:	53061c63 	ubfx	w3, w3, #6, #2
    37d8:	7100047f 	cmp	w3, #0x1
    37dc:	54000101 	b.ne	37fc <nsh_newconsole+0xfc>  // b.any
    37e0:	52000021 	eor	w1, w1, #0x1
    37e4:	39000c5f 	strb	wzr, [x2, #3]
    37e8:	39402002 	ldrb	w2, [x0, #8]
    37ec:	33000022 	bfxil	w2, w1, #0, #1
    37f0:	39002002 	strb	w2, [x0, #8]
    37f4:	52800000 	mov	w0, #0x0                   	// #0
    37f8:	d65f03c0 	ret
    37fc:	7100087f 	cmp	w3, #0x2
    3800:	54000061 	b.ne	380c <nsh_newconsole+0x10c>  // b.any
    3804:	39000c5f 	strb	wzr, [x2, #3]
    3808:	17fffff8 	b	37e8 <nsh_newconsole+0xe8>
    380c:	39411040 	ldrb	w0, [x2, #68]
    3810:	8b000040 	add	x0, x2, x0
    3814:	91010000 	add	x0, x0, #0x40
    3818:	79400803 	ldrh	w3, [x0, #4]
    381c:	d34e3c63 	ubfx	x3, x3, #14, #2
    3820:	7100047f 	cmp	w3, #0x1
    3824:	54000121 	b.ne	3848 <nsh_newconsole+0x148>  // b.any
    3828:	39000c5f 	strb	wzr, [x2, #3]
    382c:	79400802 	ldrh	w2, [x0, #4]
    3830:	d34a2842 	ubfx	x2, x2, #10, #1
    3834:	4a020021 	eor	w1, w1, w2
    3838:	39401402 	ldrb	w2, [x0, #5]
    383c:	33000022 	bfxil	w2, w1, #0, #1
    3840:	39001402 	strb	w2, [x0, #5]
    3844:	17ffffec 	b	37f4 <nsh_newconsole+0xf4>
    3848:	4b0103e0 	neg	w0, w1
    384c:	39000c41 	strb	w1, [x2, #3]
    3850:	17ffffea 	b	37f8 <nsh_newconsole+0xf8>
    3854:	52800002 	mov	w2, #0x0                   	// #0
    3858:	39400003 	ldrb	w3, [x0]
    385c:	7101707f 	cmp	w3, #0x5c
    3860:	54000041 	b.ne	3868 <nsh_newconsole+0x168>  // b.any
    3864:	34000102 	cbz	w2, 3884 <nsh_newconsole+0x184>
    3868:	6b01007f 	cmp	w3, w1
    386c:	54000061 	b.ne	3878 <nsh_newconsole+0x178>  // b.any
    3870:	35000062 	cbnz	w2, 387c <nsh_newconsole+0x17c>
    3874:	d65f03c0 	ret
    3878:	340000c3 	cbz	w3, 3890 <nsh_newconsole+0x190>
    387c:	52800002 	mov	w2, #0x0                   	// #0
    3880:	14000002 	b	3888 <nsh_newconsole+0x188>
    3884:	52800022 	mov	w2, #0x1                   	// #1
    3888:	91000400 	add	x0, x0, #0x1
    388c:	17fffff3 	b	3858 <nsh_newconsole+0x158>
    3890:	d2800000 	mov	x0, #0x0                   	// #0
    3894:	17fffff8 	b	3874 <nsh_newconsole+0x174>
    3898:	52800001 	mov	w1, #0x0                   	// #0
    389c:	39400002 	ldrb	w2, [x0]
    38a0:	35000042 	cbnz	w2, 38a8 <nsh_newconsole+0x1a8>
    38a4:	d65f03c0 	ret
    38a8:	91000403 	add	x3, x0, #0x1
    38ac:	7101705f 	cmp	w2, #0x5c
    38b0:	54000141 	b.ne	38d8 <nsh_newconsole+0x1d8>  // b.any
    38b4:	35000121 	cbnz	w1, 38d8 <nsh_newconsole+0x1d8>
    38b8:	aa0003e1 	mov	x1, x0
    38bc:	39400422 	ldrb	w2, [x1, #1]
    38c0:	38001422 	strb	w2, [x1], #1
    38c4:	35ffffc2 	cbnz	w2, 38bc <nsh_newconsole+0x1bc>
    38c8:	aa0003e3 	mov	x3, x0
    38cc:	52800021 	mov	w1, #0x1                   	// #1
    38d0:	aa0303e0 	mov	x0, x3
    38d4:	17fffff2 	b	389c <nsh_newconsole+0x19c>
    38d8:	52800001 	mov	w1, #0x0                   	// #0
    38dc:	17fffffd 	b	38d0 <nsh_newconsole+0x1d0>
    38e0:	910a8001 	add	x1, x0, #0x2a0
    38e4:	394b8c00 	ldrb	w0, [x0, #739]
    38e8:	8b001020 	add	x0, x1, x0, lsl #4
    38ec:	f9402400 	ldr	x0, [x0, #72]
    38f0:	53061c02 	ubfx	w2, w0, #6, #2
    38f4:	71000c5f 	cmp	w2, #0x3
    38f8:	54000041 	b.ne	3900 <nsh_newconsole+0x200>  // b.any
    38fc:	36000260 	tbz	w0, #0, 3948 <nsh_newconsole+0x248>
    3900:	39411020 	ldrb	w0, [x1, #68]
    3904:	8b000021 	add	x1, x1, x0
    3908:	79408820 	ldrh	w0, [x1, #68]
    390c:	374801e0 	tbnz	w0, #9, 3948 <nsh_newconsole+0x248>
    3910:	d34e3c01 	ubfx	x1, x0, #14, #2
    3914:	7100083f 	cmp	w1, #0x2
    3918:	540000c0 	b.eq	3930 <nsh_newconsole+0x230>  // b.none
    391c:	71000c3f 	cmp	w1, #0x3
    3920:	54000100 	b.eq	3940 <nsh_newconsole+0x240>  // b.none
    3924:	52800020 	mov	w0, #0x1                   	// #1
    3928:	12000000 	and	w0, w0, #0x1
    392c:	d65f03c0 	ret
    3930:	d3482000 	ubfx	x0, x0, #8, #1
    3934:	52000000 	eor	w0, w0, #0x1
    3938:	12001c00 	and	w0, w0, #0xff
    393c:	17fffffb 	b	3928 <nsh_newconsole+0x228>
    3940:	d3482000 	ubfx	x0, x0, #8, #1
    3944:	17fffff9 	b	3928 <nsh_newconsole+0x228>
    3948:	52800000 	mov	w0, #0x0                   	// #0
    394c:	17fffff7 	b	3928 <nsh_newconsole+0x228>
    3950:	a9bc4ffe 	stp	x30, x19, [sp, #-64]!
    3954:	a90157f4 	stp	x20, x21, [sp, #16]
    3958:	aa0103f5 	mov	x21, x1
    395c:	a9025ff6 	stp	x22, x23, [sp, #32]
    3960:	aa0203f7 	mov	x23, x2
    3964:	f9001bf8 	str	x24, [sp, #48]
    3968:	aa0003f8 	mov	x24, x0
    396c:	b4000381 	cbz	x1, 39dc <nsh_newconsole+0x2dc>
    3970:	aa0103e0 	mov	x0, x1
    3974:	94000000 	bl	940 <strlen>	3974: R_AARCH64_CALL26	strlen
    3978:	2a0003f6 	mov	w22, w0
    397c:	aa1703e0 	mov	x0, x23
    3980:	94000000 	bl	940 <strlen>	3980: R_AARCH64_CALL26	strlen
    3984:	0b0002d3 	add	w19, w22, w0
    3988:	aa1503e0 	mov	x0, x21
    398c:	11000673 	add	w19, w19, #0x1
    3990:	93407e73 	sxtw	x19, w19
    3994:	aa1303e1 	mov	x1, x19
    3998:	94000000 	bl	b610 <realloc>	3998: R_AARCH64_CALL26	realloc
    399c:	aa0003f4 	mov	x20, x0
    39a0:	b5000220 	cbnz	x0, 39e4 <nsh_newconsole+0x2e4>
    39a4:	f9401b03 	ldr	x3, [x24, #48]
    39a8:	90000002 	adrp	x2, ebb8 <_srodata>	39a8: R_AARCH64_ADR_PREL_PG_HI21	.rodata+0x3b4
    39ac:	90000001 	adrp	x1, f025 <g_fmtcmdoutofmemory>	39ac: R_AARCH64_ADR_PREL_PG_HI21	g_fmtcmdoutofmemory
    39b0:	91000042 	add	x2, x2, #0x0	39b0: R_AARCH64_ADD_ABS_LO12_NC	.rodata+0x3b4
    39b4:	91000021 	add	x1, x1, #0x0	39b4: R_AARCH64_ADD_ABS_LO12_NC	g_fmtcmdoutofmemory
    39b8:	aa1803e0 	mov	x0, x24
    39bc:	aa1503f4 	mov	x20, x21
    39c0:	d63f0060 	blr	x3
    39c4:	f9401bf8 	ldr	x24, [sp, #48]
    39c8:	aa1403e0 	mov	x0, x20
    39cc:	a94157f4 	ldp	x20, x21, [sp, #16]
    39d0:	a9425ff6 	ldp	x22, x23, [sp, #32]
    39d4:	a8c44ffe 	ldp	x30, x19, [sp], #64
    39d8:	d65f03c0 	ret
    39dc:	52800016 	mov	w22, #0x0                   	// #0
    39e0:	17ffffe7 	b	397c <nsh_newconsole+0x27c>
    39e4:	3836c81f 	strb	wzr, [x0, w22, sxtw]
    39e8:	aa1303e2 	mov	x2, x19
    39ec:	aa1703e1 	mov	x1, x23
    39f0:	94000000 	bl	dbf4 <strlcat>	39f0: R_AARCH64_CALL26	strlcat
    39f4:	17fffff4 	b	39c4 <nsh_newconsole+0x2c4>
    39f8:	f100001f 	cmp	x0, #0x0
    39fc:	fa401824 	ccmp	x1, #0x0, #0x4, ne	// ne = any
    3a00:	54000100 	b.eq	3a20 <nsh_newconsole+0x320>  // b.none
    3a04:	b9400002 	ldr	w2, [x0]
    3a08:	71003c5f 	cmp	w2, #0xf
    3a0c:	540000ac 	b.gt	3a20 <nsh_newconsole+0x320>
    3a10:	8b22cc03 	add	x3, x0, w2, sxtw #3
    3a14:	11000442 	add	w2, w2, #0x1
    3a18:	f9000461 	str	x1, [x3, #8]
    3a1c:	b9000002 	str	w2, [x0]
    3a20:	d65f03c0 	ret
    3a24:	a9b94ffe 	stp	x30, x19, [sp, #-112]!
    3a28:	aa0003f3 	mov	x19, x0
    3a2c:	a90157f4 	stp	x20, x21, [sp, #16]
    3a30:	aa0303f5 	mov	x21, x3
    3a34:	a9025ff6 	stp	x22, x23, [sp, #32]
    3a38:	aa0203f7 	mov	x23, x2
    3a3c:	a90367f8 	stp	x24, x25, [sp, #48]
    3a40:	2a0103f8 	mov	w24, w1
    3a44:	a9046ffa 	stp	x26, x27, [sp, #64]
    3a48:	f9400041 	ldr	x1, [x2]
    3a4c:	94000000 	bl	6fb8 <nsh_fileapp>	3a4c: R_AARCH64_CALL26	nsh_fileapp
    3a50:	7100001f 	cmp	w0, #0x0
    3a54:	5400012b 	b.lt	3a78 <nsh_newconsole+0x378>  // b.tstop
    3a58:	a94157f4 	ldp	x20, x21, [sp, #16]
    3a5c:	aa1303e0 	mov	x0, x19
    3a60:	a9425ff6 	ldp	x22, x23, [sp, #32]
    3a64:	1a9f07e1 	cset	w1, ne	// ne = any
    3a68:	a94367f8 	ldp	x24, x25, [sp, #48]
    3a6c:	a9446ffa 	ldp	x26, x27, [sp, #64]
    3a70:	a8c74ffe 	ldp	x30, x19, [sp], #112
    3a74:	14000000 	b	0 <memcpy>	3a74: R_AARCH64_JUMP26	.text+0x37bc
    3a78:	394a8260 	ldrb	w0, [x19, #672]
    3a7c:	36000840 	tbz	w0, #0, 3b84 <nsh_newconsole+0x484>
    3a80:	f94002e0 	ldr	x0, [x23]
    3a84:	90000016 	adrp	x22, ebb8 <_srodata>	3a84: R_AARCH64_ADR_PREL_PG_HI21	.rodata+0x3b6
    3a88:	910002d6 	add	x22, x22, #0x0	3a88: R_AARCH64_ADD_ABS_LO12_NC	.rodata+0x3b6
    3a8c:	aa1603e1 	mov	x1, x22
    3a90:	94000000 	bl	680 <strcmp>	3a90: R_AARCH64_CALL26	strcmp
    3a94:	350000e0 	cbnz	w0, 3ab0 <nsh_newconsole+0x3b0>
    3a98:	90000002 	adrp	x2, ebb8 <_srodata>	3a98: R_AARCH64_ADR_PREL_PG_HI21	.rodata+0x3b9
    3a9c:	90000000 	adrp	x0, ebb8 <_srodata>	3a9c: R_AARCH64_ADR_PREL_PG_HI21	.rodata+0x3da
    3aa0:	91000042 	add	x2, x2, #0x0	3aa0: R_AARCH64_ADD_ABS_LO12_NC	.rodata+0x3b9
    3aa4:	91000000 	add	x0, x0, #0x0	3aa4: R_AARCH64_ADD_ABS_LO12_NC	.rodata+0x3da
    3aa8:	52804c81 	mov	w1, #0x264                 	// #612
    3aac:	94000000 	bl	2444 <__assert>	3aac: R_AARCH64_CALL26	__assert
    3ab0:	d2800a00 	mov	x0, #0x50                  	// #80
    3ab4:	94000000 	bl	ccfc <lib_get_tempbuffer>	3ab4: R_AARCH64_CALL26	lib_get_tempbuffer
    3ab8:	aa0003f4 	mov	x20, x0
    3abc:	b5000180 	cbnz	x0, 3aec <nsh_newconsole+0x3ec>
    3ac0:	f9401a63 	ldr	x3, [x19, #48]
    3ac4:	aa1603e2 	mov	x2, x22
    3ac8:	90000001 	adrp	x1, f025 <g_fmtcmdoutofmemory>	3ac8: R_AARCH64_ADR_PREL_PG_HI21	g_fmtcmdoutofmemory
    3acc:	91000021 	add	x1, x1, #0x0	3acc: R_AARCH64_ADD_ABS_LO12_NC	g_fmtcmdoutofmemory
    3ad0:	aa1303e0 	mov	x0, x19
    3ad4:	d63f0060 	blr	x3
    3ad8:	94000000 	bl	2454 <__errno>	3ad8: R_AARCH64_CALL26	__errno
    3adc:	b9400015 	ldr	w21, [x0]
    3ae0:	4b1503f5 	neg	w21, w21
    3ae4:	710002bf 	cmp	w21, #0x0
    3ae8:	17ffffdc 	b	3a58 <nsh_newconsole+0x358>
    3aec:	9000001a 	adrp	x26, ebb8 <_srodata>	3aec: R_AARCH64_ADR_PREL_PG_HI21	.rodata+0x3e6
    3af0:	5100071b 	sub	w27, w24, #0x1
    3af4:	9100035a 	add	x26, x26, #0x0	3af4: R_AARCH64_ADD_ABS_LO12_NC	.rodata+0x3e6
    3af8:	d2800019 	mov	x25, #0x0                   	// #0
    3afc:	3900001f 	strb	wzr, [x0]
    3b00:	6b18033f 	cmp	w25, w24
    3b04:	540002ab 	b.lt	3b58 <nsh_newconsole+0x458>  // b.tstop
    3b08:	910143e2 	add	x2, sp, #0x50
    3b0c:	f9002bf6 	str	x22, [sp, #80]
    3b10:	aa1503e3 	mov	x3, x21
    3b14:	90000000 	adrp	x0, ebb8 <_srodata>	3b14: R_AARCH64_ADR_PREL_PG_HI21	.rodata+0x3e8
    3b18:	91000000 	add	x0, x0, #0x0	3b18: R_AARCH64_ADD_ABS_LO12_NC	.rodata+0x3e8
    3b1c:	52800081 	mov	w1, #0x4                   	// #4
    3b20:	a900d040 	stp	x0, x20, [x2, #8]
    3b24:	aa1303e0 	mov	x0, x19
    3b28:	f9000c5f 	str	xzr, [x2, #24]
    3b2c:	97ffffbe 	bl	3a24 <nsh_newconsole+0x324>
    3b30:	2a0003f3 	mov	w19, w0
    3b34:	aa1403e0 	mov	x0, x20
    3b38:	94000000 	bl	cd8c <lib_put_tempbuffer>	3b38: R_AARCH64_CALL26	lib_put_tempbuffer
    3b3c:	2a1303e0 	mov	w0, w19
    3b40:	a94157f4 	ldp	x20, x21, [sp, #16]
    3b44:	a9425ff6 	ldp	x22, x23, [sp, #32]
    3b48:	a94367f8 	ldp	x24, x25, [sp, #48]
    3b4c:	a9446ffa 	ldp	x26, x27, [sp, #64]
    3b50:	a8c74ffe 	ldp	x30, x19, [sp], #112
    3b54:	d65f03c0 	ret
    3b58:	f8797ae1 	ldr	x1, [x23, x25, lsl #3]
    3b5c:	aa1403e0 	mov	x0, x20
    3b60:	d2800a02 	mov	x2, #0x50                  	// #80
    3b64:	94000000 	bl	dbf4 <strlcat>	3b64: R_AARCH64_CALL26	strlcat
    3b68:	6b19037f 	cmp	w27, w25
    3b6c:	5400008d 	b.le	3b7c <nsh_newconsole+0x47c>
    3b70:	aa1a03e1 	mov	x1, x26
    3b74:	aa1403e0 	mov	x0, x20
    3b78:	94000000 	bl	dcac <strcat>	3b78: R_AARCH64_CALL26	strcat
    3b7c:	91000739 	add	x25, x25, #0x1
    3b80:	17ffffe0 	b	3b00 <nsh_newconsole+0x400>
    3b84:	394a8660 	ldrb	w0, [x19, #673]
    3b88:	36000640 	tbz	w0, #0, 3c50 <nsh_newconsole+0x550>
    3b8c:	f9400ea0 	ldr	x0, [x21, #24]
    3b90:	b4000280 	cbz	x0, 3be0 <nsh_newconsole+0x4e0>
    3b94:	b9400ea1 	ldr	w1, [x21, #12]
    3b98:	528036c2 	mov	w2, #0x1b6                 	// #438
    3b9c:	94000000 	bl	e9c0 <open>	3b9c: R_AARCH64_CALL26	open
    3ba0:	2a0003f4 	mov	w20, w0
    3ba4:	36f80200 	tbz	w0, #31, 3be4 <nsh_newconsole+0x4e4>
    3ba8:	f94002f5 	ldr	x21, [x23]
    3bac:	f9401a74 	ldr	x20, [x19, #48]
    3bb0:	94000000 	bl	2454 <__errno>	3bb0: R_AARCH64_CALL26	__errno
    3bb4:	b9400004 	ldr	w4, [x0]
    3bb8:	aa1503e2 	mov	x2, x21
    3bbc:	90000003 	adrp	x3, ebb8 <_srodata>	3bbc: R_AARCH64_ADR_PREL_PG_HI21	.rodata+0x3eb
    3bc0:	90000001 	adrp	x1, f03d <g_fmtcmdfailed>	3bc0: R_AARCH64_ADR_PREL_PG_HI21	g_fmtcmdfailed
    3bc4:	91000063 	add	x3, x3, #0x0	3bc4: R_AARCH64_ADD_ABS_LO12_NC	.rodata+0x3eb
    3bc8:	91000021 	add	x1, x1, #0x0	3bc8: R_AARCH64_ADD_ABS_LO12_NC	g_fmtcmdfailed
    3bcc:	aa1303e0 	mov	x0, x19
    3bd0:	d63f0280 	blr	x20
    3bd4:	94000000 	bl	2454 <__errno>	3bd4: R_AARCH64_CALL26	__errno
    3bd8:	b9400015 	ldr	w21, [x0]
    3bdc:	17ffffc2 	b	3ae4 <nsh_newconsole+0x3e4>
    3be0:	b94006b4 	ldr	w20, [x21, #4]
    3be4:	394a8a60 	ldrb	w0, [x19, #674]
    3be8:	36000720 	tbz	w0, #0, 3ccc <nsh_newconsole+0x5cc>
    3bec:	f9400aa0 	ldr	x0, [x21, #16]
    3bf0:	b4000340 	cbz	x0, 3c58 <nsh_newconsole+0x558>
    3bf4:	b9400aa1 	ldr	w1, [x21, #8]
    3bf8:	52800002 	mov	w2, #0x0                   	// #0
    3bfc:	94000000 	bl	e9c0 <open>	3bfc: R_AARCH64_CALL26	open
    3c00:	2a0003f6 	mov	w22, w0
    3c04:	36f802c0 	tbz	w0, #31, 3c5c <nsh_newconsole+0x55c>
    3c08:	f94002f7 	ldr	x23, [x23]
    3c0c:	f9401a75 	ldr	x21, [x19, #48]
    3c10:	94000000 	bl	2454 <__errno>	3c10: R_AARCH64_CALL26	__errno
    3c14:	b9400004 	ldr	w4, [x0]
    3c18:	aa1703e2 	mov	x2, x23
    3c1c:	90000003 	adrp	x3, ebb8 <_srodata>	3c1c: R_AARCH64_ADR_PREL_PG_HI21	.rodata+0x3eb
    3c20:	90000001 	adrp	x1, f03d <g_fmtcmdfailed>	3c20: R_AARCH64_ADR_PREL_PG_HI21	g_fmtcmdfailed
    3c24:	91000063 	add	x3, x3, #0x0	3c24: R_AARCH64_ADD_ABS_LO12_NC	.rodata+0x3eb
    3c28:	91000021 	add	x1, x1, #0x0	3c28: R_AARCH64_ADD_ABS_LO12_NC	g_fmtcmdfailed
    3c2c:	aa1303e0 	mov	x0, x19
    3c30:	d63f02a0 	blr	x21
    3c34:	94000000 	bl	2454 <__errno>	3c34: R_AARCH64_CALL26	__errno
    3c38:	b9400015 	ldr	w21, [x0]
    3c3c:	7100069f 	cmp	w20, #0x1
    3c40:	54fff52d 	b.le	3ae4 <nsh_newconsole+0x3e4>
    3c44:	2a1403e0 	mov	w0, w20
    3c48:	94000000 	bl	e814 <close>	3c48: R_AARCH64_CALL26	close
    3c4c:	1400001b 	b	3cb8 <nsh_newconsole+0x5b8>
    3c50:	52800034 	mov	w20, #0x1                   	// #1
    3c54:	17ffffe4 	b	3be4 <nsh_newconsole+0x4e4>
    3c58:	b94002b6 	ldr	w22, [x21]
    3c5c:	f9415260 	ldr	x0, [x19, #672]
    3c60:	f2783c1f 	tst	x0, #0xffff00
    3c64:	540000e0 	b.eq	3c80 <nsh_newconsole+0x580>  // b.none
    3c68:	f9402664 	ldr	x4, [x19, #72]
    3c6c:	910143e3 	add	x3, sp, #0x50
    3c70:	2a1403e2 	mov	w2, w20
    3c74:	2a1603e1 	mov	w1, w22
    3c78:	aa1303e0 	mov	x0, x19
    3c7c:	d63f0080 	blr	x4
    3c80:	aa1703e2 	mov	x2, x23
    3c84:	2a1803e1 	mov	w1, w24
    3c88:	aa1303e0 	mov	x0, x19
    3c8c:	94000000 	bl	5cb0 <nsh_command>	3c8c: R_AARCH64_CALL26	nsh_command
    3c90:	2a0003f5 	mov	w21, w0
    3c94:	f9415260 	ldr	x0, [x19, #672]
    3c98:	f2783c1f 	tst	x0, #0xffff00
    3c9c:	540000a0 	b.eq	3cb0 <nsh_newconsole+0x5b0>  // b.none
    3ca0:	f9402a62 	ldr	x2, [x19, #80]
    3ca4:	910143e1 	add	x1, sp, #0x50
    3ca8:	aa1303e0 	mov	x0, x19
    3cac:	d63f0040 	blr	x2
    3cb0:	7100069f 	cmp	w20, #0x1
    3cb4:	54fffc8c 	b.gt	3c44 <nsh_newconsole+0x544>
    3cb8:	710002df 	cmp	w22, #0x0
    3cbc:	54fff14d 	b.le	3ae4 <nsh_newconsole+0x3e4>
    3cc0:	2a1603e0 	mov	w0, w22
    3cc4:	94000000 	bl	e814 <close>	3cc4: R_AARCH64_CALL26	close
    3cc8:	17ffff87 	b	3ae4 <nsh_newconsole+0x3e4>
    3ccc:	52800016 	mov	w22, #0x0                   	// #0
    3cd0:	17ffffe3 	b	3c5c <nsh_newconsole+0x55c>
    3cd4:	a9b84ffe 	stp	x30, x19, [sp, #-128]!
    3cd8:	a90157f4 	stp	x20, x21, [sp, #16]
    3cdc:	aa0003f4 	mov	x20, x0
    3ce0:	aa0103f5 	mov	x21, x1
    3ce4:	a9025ff6 	stp	x22, x23, [sp, #32]
    3ce8:	aa0303f6 	mov	x22, x3
    3cec:	a90367f8 	stp	x24, x25, [sp, #48]
    3cf0:	aa0403f8 	mov	x24, x4
    3cf4:	a9046ffa 	stp	x26, x27, [sp, #64]
    3cf8:	9000001a 	adrp	x26, ebb8 <_srodata>	3cf8: R_AARCH64_ADR_PREL_PG_HI21	.rodata+0x5f7
    3cfc:	9100035a 	add	x26, x26, #0x0	3cfc: R_AARCH64_ADD_ABS_LO12_NC	.rodata+0x5f7
    3d00:	f9002bfc 	str	x28, [sp, #80]
    3d04:	f90037e2 	str	x2, [sp, #104]
    3d08:	f9400033 	ldr	x19, [x1]
    3d0c:	3940027b 	ldrb	w27, [x19]
    3d10:	3400071b 	cbz	w27, 3df0 <nsh_newconsole+0x6f0>
    3d14:	2a1b03e1 	mov	w1, w27
    3d18:	aa1a03e0 	mov	x0, x26
    3d1c:	94000000 	bl	59c <strchr>	3d1c: R_AARCH64_CALL26	strchr
    3d20:	aa0003f7 	mov	x23, x0
    3d24:	b5000280 	cbnz	x0, 3d74 <nsh_newconsole+0x674>
    3d28:	7100fb7f 	cmp	w27, #0x3e
    3d2c:	540000e1 	b.ne	3d48 <nsh_newconsole+0x648>  // b.any
    3d30:	aa1303e1 	mov	x1, x19
    3d34:	91000a60 	add	x0, x19, #0x2
    3d38:	38401c22 	ldrb	w2, [x1, #1]!
    3d3c:	7100f85f 	cmp	w2, #0x3e
    3d40:	9a810000 	csel	x0, x0, x1, eq	// eq = none
    3d44:	f90002a0 	str	x0, [x21]
    3d48:	39400260 	ldrb	w0, [x19]
    3d4c:	7100f01f 	cmp	w0, #0x3c
    3d50:	54000161 	b.ne	3d7c <nsh_newconsole+0x67c>  // b.any
    3d54:	91000673 	add	x19, x19, #0x1
    3d58:	f90002b3 	str	x19, [x21]
    3d5c:	90000013 	adrp	x19, ebb8 <_srodata>	3d5c: R_AARCH64_ADR_PREL_PG_HI21	.rodata+0x5e5
    3d60:	91000273 	add	x19, x19, #0x0	3d60: R_AARCH64_ADD_ABS_LO12_NC	.rodata+0x5e5
    3d64:	f94037e0 	ldr	x0, [sp, #104]
    3d68:	aa1703e1 	mov	x1, x23
    3d6c:	94000000 	bl	0 <memcpy>	3d6c: R_AARCH64_CALL26	.text+0x39f8
    3d70:	14000021 	b	3df4 <nsh_newconsole+0x6f4>
    3d74:	91000673 	add	x19, x19, #0x1
    3d78:	17ffffe5 	b	3d0c <nsh_newconsole+0x60c>
    3d7c:	71008c1f 	cmp	w0, #0x23
    3d80:	54001181 	b.ne	3fb0 <nsh_newconsole+0x8b0>  // b.any
    3d84:	f90002b3 	str	x19, [x21]
    3d88:	d2800013 	mov	x19, #0x0                   	// #0
    3d8c:	17fffff6 	b	3d64 <nsh_newconsole+0x664>
    3d90:	b40000a3 	cbz	x3, 3da4 <nsh_newconsole+0x6a4>
    3d94:	39400060 	ldrb	w0, [x3]
    3d98:	7101701f 	cmp	w0, #0x5c
    3d9c:	54000041 	b.ne	3da4 <nsh_newconsole+0x6a4>  // b.any
    3da0:	340006c2 	cbz	w2, 3e78 <nsh_newconsole+0x778>
    3da4:	710170df 	cmp	w6, #0x5c
    3da8:	54000640 	b.eq	3e70 <nsh_newconsole+0x770>  // b.none
    3dac:	2a0603e1 	mov	w1, w6
    3db0:	aa0703e0 	mov	x0, x7
    3db4:	91000485 	add	x5, x4, #0x1
    3db8:	94000000 	bl	0 <memcpy>	3db8: R_AARCH64_CALL26	.text+0x3854
    3dbc:	b4000520 	cbz	x0, 3e60 <nsh_newconsole+0x760>
    3dc0:	aa0503e0 	mov	x0, x5
    3dc4:	94000000 	bl	0 <memcpy>	3dc4: R_AARCH64_CALL26	.text+0x3854
    3dc8:	b5000260 	cbnz	x0, 3e14 <nsh_newconsole+0x714>
    3dcc:	f9401a84 	ldr	x4, [x20, #48]
    3dd0:	9101e3e3 	add	x3, sp, #0x78
    3dd4:	90000001 	adrp	x1, f11e <g_fmtnomatching>	3dd4: R_AARCH64_ADR_PREL_PG_HI21	g_fmtnomatching
    3dd8:	aa0303e2 	mov	x2, x3
    3ddc:	91000021 	add	x1, x1, #0x0	3ddc: R_AARCH64_ADD_ABS_LO12_NC	g_fmtnomatching
    3de0:	aa1403e0 	mov	x0, x20
    3de4:	3901e3e6 	strb	w6, [sp, #120]
    3de8:	3901e7ff 	strb	wzr, [sp, #121]
    3dec:	d63f0080 	blr	x4
    3df0:	d2800013 	mov	x19, #0x0                   	// #0
    3df4:	f9402bfc 	ldr	x28, [sp, #80]
    3df8:	aa1303e0 	mov	x0, x19
    3dfc:	a94157f4 	ldp	x20, x21, [sp, #16]
    3e00:	a9425ff6 	ldp	x22, x23, [sp, #32]
    3e04:	a94367f8 	ldp	x24, x25, [sp, #48]
    3e08:	a9446ffa 	ldp	x26, x27, [sp, #64]
    3e0c:	a8c84ffe 	ldp	x30, x19, [sp], #128
    3e10:	d65f03c0 	ret
    3e14:	71009cdf 	cmp	w6, #0x27
    3e18:	540001c0 	b.eq	3e50 <nsh_newconsole+0x750>  // b.none
    3e1c:	710088df 	cmp	w6, #0x22
    3e20:	540001c0 	b.eq	3e58 <nsh_newconsole+0x758>  // b.none
    3e24:	710180df 	cmp	w6, #0x60
    3e28:	54000c00 	b.eq	3fa8 <nsh_newconsole+0x8a8>  // b.none
    3e2c:	91000402 	add	x2, x0, #0x1
    3e30:	eb05001f 	cmp	x0, x5
    3e34:	9a850045 	csel	x5, x2, x5, eq	// eq = none
    3e38:	384014a1 	ldrb	w1, [x5], #1
    3e3c:	38001481 	strb	w1, [x4], #1
    3e40:	35ffff81 	cbnz	w1, 3e30 <nsh_newconsole+0x730>
    3e44:	d1000804 	sub	x4, x0, #0x2
    3e48:	52800021 	mov	w1, #0x1                   	// #1
    3e4c:	14000009 	b	3e70 <nsh_newconsole+0x770>
    3e50:	5280003c 	mov	w28, #0x1                   	// #1
    3e54:	17fffff6 	b	3e2c <nsh_newconsole+0x72c>
    3e58:	d2800018 	mov	x24, #0x0                   	// #0
    3e5c:	17fffff4 	b	3e2c <nsh_newconsole+0x72c>
    3e60:	aa1a03e0 	mov	x0, x26
    3e64:	94000000 	bl	0 <memcpy>	3e64: R_AARCH64_CALL26	.text+0x3854
    3e68:	b5000b40 	cbnz	x0, 3fd0 <nsh_newconsole+0x8d0>
    3e6c:	52800001 	mov	w1, #0x0                   	// #0
    3e70:	52800002 	mov	w2, #0x0                   	// #0
    3e74:	14000002 	b	3e7c <nsh_newconsole+0x77c>
    3e78:	52800022 	mov	w2, #0x1                   	// #1
    3e7c:	aa0403e3 	mov	x3, x4
    3e80:	91000484 	add	x4, x4, #0x1
    3e84:	39400086 	ldrb	w6, [x4]
    3e88:	35fff846 	cbnz	w6, 3d90 <nsh_newconsole+0x690>
    3e8c:	f10002df 	cmp	x22, #0x0
    3e90:	52000021 	eor	w1, w1, #0x1
    3e94:	1a9f07e0 	cset	w0, ne	// ne = any
    3e98:	f90002a4 	str	x4, [x21]
    3e9c:	6a01001f 	tst	w0, w1
    3ea0:	54000560 	b.eq	3f4c <nsh_newconsole+0x84c>  // b.none
    3ea4:	aa1303e1 	mov	x1, x19
    3ea8:	aa1403e0 	mov	x0, x20
    3eac:	94000000 	bl	5400 <nsh_aliasfind>	3eac: R_AARCH64_CALL26	nsh_aliasfind
    3eb0:	aa0003fb 	mov	x27, x0
    3eb4:	b40004c0 	cbz	x0, 3f4c <nsh_newconsole+0x84c>
    3eb8:	b94002c0 	ldr	w0, [x22]
    3ebc:	f9400b73 	ldr	x19, [x27, #16]
    3ec0:	7100001f 	cmp	w0, #0x0
    3ec4:	5400010c 	b.gt	3ee4 <nsh_newconsole+0x7e4>
    3ec8:	39406361 	ldrb	w1, [x27, #24]
    3ecc:	32000021 	orr	w1, w1, #0x1
    3ed0:	39006361 	strb	w1, [x27, #24]
    3ed4:	8b20cec1 	add	x1, x22, w0, sxtw #3
    3ed8:	11000400 	add	w0, w0, #0x1
    3edc:	f900043b 	str	x27, [x1, #8]
    3ee0:	b90002c0 	str	w0, [x22]
    3ee4:	aa1a03e1 	mov	x1, x26
    3ee8:	aa1303e0 	mov	x0, x19
    3eec:	94000000 	bl	dab8 <strcspn>	3eec: R_AARCH64_CALL26	strcspn
    3ef0:	aa0003f6 	mov	x22, x0
    3ef4:	38606a60 	ldrb	w0, [x19, x0]
    3ef8:	340002a0 	cbz	w0, 3f4c <nsh_newconsole+0x84c>
    3efc:	f9400b60 	ldr	x0, [x27, #16]
    3f00:	94000000 	bl	daf8 <strdup>	3f00: R_AARCH64_CALL26	strdup
    3f04:	aa0003e1 	mov	x1, x0
    3f08:	b4000220 	cbz	x0, 3f4c <nsh_newconsole+0x84c>
    3f0c:	aa1403e0 	mov	x0, x20
    3f10:	90000002 	adrp	x2, ebb8 <_srodata>	3f10: R_AARCH64_ADR_PREL_PG_HI21	.rodata+0x3e6
    3f14:	91000042 	add	x2, x2, #0x0	3f14: R_AARCH64_ADD_ABS_LO12_NC	.rodata+0x3e6
    3f18:	94000000 	bl	0 <memcpy>	3f18: R_AARCH64_CALL26	.text+0x3950
    3f1c:	f94002a2 	ldr	x2, [x21]
    3f20:	aa0003e1 	mov	x1, x0
    3f24:	aa1403e0 	mov	x0, x20
    3f28:	94000000 	bl	0 <memcpy>	3f28: R_AARCH64_CALL26	.text+0x3950
    3f2c:	aa0003f3 	mov	x19, x0
    3f30:	aa0003e1 	mov	x1, x0
    3f34:	f94037e0 	ldr	x0, [sp, #104]
    3f38:	94000000 	bl	0 <memcpy>	3f38: R_AARCH64_CALL26	.text+0x39f8
    3f3c:	8b160260 	add	x0, x19, x22
    3f40:	38366a7f 	strb	wzr, [x19, x22]
    3f44:	91000400 	add	x0, x0, #0x1
    3f48:	f90002a0 	str	x0, [x21]
    3f4c:	35fff0dc 	cbnz	w28, 3d64 <nsh_newconsole+0x664>
    3f50:	9000001b 	adrp	x27, ebb8 <_srodata>	3f50: R_AARCH64_ADR_PREL_PG_HI21	.rodata+0x5ea
    3f54:	aa1303f5 	mov	x21, x19
    3f58:	9100037b 	add	x27, x27, #0x0	3f58: R_AARCH64_ADD_ABS_LO12_NC	.rodata+0x5ea
    3f5c:	d280001a 	mov	x26, #0x0                   	// #0
    3f60:	aa1b03e1 	mov	x1, x27
    3f64:	aa1503e0 	mov	x0, x21
    3f68:	94000000 	bl	dab8 <strcspn>	3f68: R_AARCH64_CALL26	strcspn
    3f6c:	aa0003f6 	mov	x22, x0
    3f70:	8b1602b9 	add	x25, x21, x22
    3f74:	91000726 	add	x6, x25, #0x1
    3f78:	39400322 	ldrb	w2, [x25]
    3f7c:	b4000616 	cbz	x22, 403c <nsh_newconsole+0x93c>
    3f80:	35000342 	cbnz	w2, 3fe8 <nsh_newconsole+0x8e8>
    3f84:	b40009da 	cbz	x26, 40bc <nsh_newconsole+0x9bc>
    3f88:	aa1503e2 	mov	x2, x21
    3f8c:	aa1a03e1 	mov	x1, x26
    3f90:	aa1403e0 	mov	x0, x20
    3f94:	94000000 	bl	0 <memcpy>	3f94: R_AARCH64_CALL26	.text+0x3950
    3f98:	aa0003f3 	mov	x19, x0
    3f9c:	aa1303f7 	mov	x23, x19
    3fa0:	94000000 	bl	0 <memcpy>	3fa0: R_AARCH64_CALL26	.text+0x3898
    3fa4:	17ffff70 	b	3d64 <nsh_newconsole+0x664>
    3fa8:	aa0003e4 	mov	x4, x0
    3fac:	17ffffa7 	b	3e48 <nsh_newconsole+0x748>
    3fb0:	90000007 	adrp	x7, ebb8 <_srodata>	3fb0: R_AARCH64_ADR_PREL_PG_HI21	.rodata+0x5f3
    3fb4:	aa1303e4 	mov	x4, x19
    3fb8:	910000e7 	add	x7, x7, #0x0	3fb8: R_AARCH64_ADD_ABS_LO12_NC	.rodata+0x5f3
    3fbc:	d2800003 	mov	x3, #0x0                   	// #0
    3fc0:	52800001 	mov	w1, #0x0                   	// #0
    3fc4:	5280001c 	mov	w28, #0x0                   	// #0
    3fc8:	52800002 	mov	w2, #0x0                   	// #0
    3fcc:	17ffffae 	b	3e84 <nsh_newconsole+0x784>
    3fd0:	52800001 	mov	w1, #0x0                   	// #0
    3fd4:	3900009f 	strb	wzr, [x4]
    3fd8:	aa0503e4 	mov	x4, x5
    3fdc:	17ffffac 	b	3e8c <nsh_newconsole+0x78c>
    3fe0:	aa0603f5 	mov	x21, x6
    3fe4:	17ffffdf 	b	3f60 <nsh_newconsole+0x860>
    3fe8:	d10006c4 	sub	x4, x22, #0x1
    3fec:	2a1c03e0 	mov	w0, w28
    3ff0:	8b0402a4 	add	x4, x21, x4
    3ff4:	d2800001 	mov	x1, #0x0                   	// #0
    3ff8:	38616885 	ldrb	w5, [x4, x1]
    3ffc:	710170bf 	cmp	w5, #0x5c
    4000:	54000101 	b.ne	4020 <nsh_newconsole+0x920>  // b.any
    4004:	52000000 	eor	w0, w0, #0x1
    4008:	52800023 	mov	w3, #0x1                   	// #1
    400c:	4b010065 	sub	w5, w3, w1
    4010:	12001c00 	and	w0, w0, #0xff
    4014:	eb0502df 	cmp	x22, x5
    4018:	d1000421 	sub	x1, x1, #0x1
    401c:	54fffee8 	b.hi	3ff8 <nsh_newconsole+0x8f8>  // b.pmore
    4020:	36000100 	tbz	w0, #0, 4040 <nsh_newconsole+0x940>
    4024:	910006d6 	add	x22, x22, #0x1
    4028:	aa1b03e1 	mov	x1, x27
    402c:	91000720 	add	x0, x25, #0x1
    4030:	94000000 	bl	dab8 <strcspn>	4030: R_AARCH64_CALL26	strcspn
    4034:	8b160016 	add	x22, x0, x22
    4038:	17ffffce 	b	3f70 <nsh_newconsole+0x870>
    403c:	34fffa42 	cbz	w2, 3f84 <nsh_newconsole+0x884>
    4040:	7100905f 	cmp	w2, #0x24
    4044:	54fffce1 	b.ne	3fe0 <nsh_newconsole+0x8e0>  // b.any
    4048:	aa1903f6 	mov	x22, x25
    404c:	aa1a03e1 	mov	x1, x26
    4050:	aa1503e2 	mov	x2, x21
    4054:	aa1403e0 	mov	x0, x20
    4058:	380016df 	strb	wzr, [x22], #1
    405c:	94000000 	bl	0 <memcpy>	405c: R_AARCH64_CALL26	.text+0x3950
    4060:	aa0003fa 	mov	x26, x0
    4064:	39400720 	ldrb	w0, [x25, #1]
    4068:	7101ec1f 	cmp	w0, #0x7b
    406c:	540006c1 	b.ne	4144 <nsh_newconsole+0xa44>  // b.any
    4070:	91000b36 	add	x22, x25, #0x2
    4074:	52800fa1 	mov	w1, #0x7d                  	// #125
    4078:	aa1603e0 	mov	x0, x22
    407c:	94000000 	bl	0 <memcpy>	407c: R_AARCH64_CALL26	.text+0x3854
    4080:	aa0003f5 	mov	x21, x0
    4084:	b5000220 	cbnz	x0, 40c8 <nsh_newconsole+0x9c8>
    4088:	f9401a84 	ldr	x4, [x20, #48]
    408c:	aa1403e0 	mov	x0, x20
    4090:	aa1a03f7 	mov	x23, x26
    4094:	90000003 	adrp	x3, ebb8 <_srodata>	4094: R_AARCH64_ADR_PREL_PG_HI21	.rodata+0x3f0
    4098:	90000002 	adrp	x2, ebb8 <_srodata>	4098: R_AARCH64_ADR_PREL_PG_HI21	.rodata+0x3f2
    409c:	91000063 	add	x3, x3, #0x0	409c: R_AARCH64_ADD_ABS_LO12_NC	.rodata+0x3f0
    40a0:	91000042 	add	x2, x2, #0x0	40a0: R_AARCH64_ADD_ABS_LO12_NC	.rodata+0x3f2
    40a4:	90000001 	adrp	x1, f11e <g_fmtnomatching>	40a4: R_AARCH64_ADR_PREL_PG_HI21	g_fmtnomatching
    40a8:	90000013 	adrp	x19, ebb8 <_srodata>	40a8: R_AARCH64_ADR_PREL_PG_HI21	.rodata+0x5dc
    40ac:	91000021 	add	x1, x1, #0x0	40ac: R_AARCH64_ADD_ABS_LO12_NC	g_fmtnomatching
    40b0:	91000273 	add	x19, x19, #0x0	40b0: R_AARCH64_ADD_ABS_LO12_NC	.rodata+0x5dc
    40b4:	d63f0080 	blr	x4
    40b8:	17ffff2b 	b	3d64 <nsh_newconsole+0x664>
    40bc:	aa1303e0 	mov	x0, x19
    40c0:	94000000 	bl	0 <memcpy>	40c0: R_AARCH64_CALL26	.text+0x3898
    40c4:	17ffff28 	b	3d64 <nsh_newconsole+0x664>
    40c8:	380016bf 	strb	wzr, [x21], #1
    40cc:	b4000078 	cbz	x24, 40d8 <nsh_newconsole+0x9d8>
    40d0:	52800020 	mov	w0, #0x1                   	// #1
    40d4:	b9000300 	str	w0, [x24]
    40d8:	90000001 	adrp	x1, ebb8 <_srodata>	40d8: R_AARCH64_ADR_PREL_PG_HI21	.rodata+0x5e3
    40dc:	aa1603e0 	mov	x0, x22
    40e0:	91000021 	add	x1, x1, #0x0	40e0: R_AARCH64_ADD_ABS_LO12_NC	.rodata+0x5e3
    40e4:	94000000 	bl	680 <strcmp>	40e4: R_AARCH64_CALL26	strcmp
    40e8:	35000360 	cbnz	w0, 4154 <nsh_newconsole+0xa54>
    40ec:	394a8e81 	ldrb	w1, [x20, #675]
    40f0:	90000000 	adrp	x0, ebb8 <_srodata>	40f0: R_AARCH64_ADR_PREL_PG_HI21	.rodata+0x5dd
    40f4:	90000003 	adrp	x3, ebb8 <_srodata>	40f4: R_AARCH64_ADR_PREL_PG_HI21	.rodata+0x5df
    40f8:	91000000 	add	x0, x0, #0x0	40f8: R_AARCH64_ADD_ABS_LO12_NC	.rodata+0x5dd
    40fc:	91000063 	add	x3, x3, #0x0	40fc: R_AARCH64_ADD_ABS_LO12_NC	.rodata+0x5df
    4100:	f240003f 	tst	x1, #0x1
    4104:	9a800079 	csel	x25, x3, x0, eq	// eq = none
    4108:	394b2280 	ldrb	w0, [x20, #712]
    410c:	37080100 	tbnz	w0, #1, 412c <nsh_newconsole+0xa2c>
    4110:	f9401e84 	ldr	x4, [x20, #56]
    4114:	90000001 	adrp	x1, ebb8 <_srodata>	4114: R_AARCH64_ADR_PREL_PG_HI21	.rodata+0x3f5
    4118:	aa1903e3 	mov	x3, x25
    411c:	aa1603e2 	mov	x2, x22
    4120:	91000021 	add	x1, x1, #0x0	4120: R_AARCH64_ADD_ABS_LO12_NC	.rodata+0x3f5
    4124:	aa1403e0 	mov	x0, x20
    4128:	d63f0080 	blr	x4
    412c:	aa1a03e1 	mov	x1, x26
    4130:	aa1903e2 	mov	x2, x25
    4134:	aa1403e0 	mov	x0, x20
    4138:	94000000 	bl	0 <memcpy>	4138: R_AARCH64_CALL26	.text+0x3950
    413c:	aa0003fa 	mov	x26, x0
    4140:	17ffff88 	b	3f60 <nsh_newconsole+0x860>
    4144:	aa1603e0 	mov	x0, x22
    4148:	94000000 	bl	940 <strlen>	4148: R_AARCH64_CALL26	strlen
    414c:	8b0002d5 	add	x21, x22, x0
    4150:	17ffffdf 	b	40cc <nsh_newconsole+0x9cc>
    4154:	90000001 	adrp	x1, ebb8 <_srodata>	4154: R_AARCH64_ADR_PREL_PG_HI21	.rodata+0x5e1
    4158:	aa1603e0 	mov	x0, x22
    415c:	91000021 	add	x1, x1, #0x0	415c: R_AARCH64_ADD_ABS_LO12_NC	.rodata+0x5e1
    4160:	94000000 	bl	680 <strcmp>	4160: R_AARCH64_CALL26	strcmp
    4164:	350000e0 	cbnz	w0, 4180 <nsh_newconsole+0xa80>
    4168:	b942a680 	ldr	w0, [x20, #676]
    416c:	910aa299 	add	x25, x20, #0x2a8
    4170:	aa1903e1 	mov	x1, x25
    4174:	52800142 	mov	w2, #0xa                   	// #10
    4178:	94000000 	bl	d2e8 <itoa>	4178: R_AARCH64_CALL26	itoa
    417c:	17ffffe3 	b	4108 <nsh_newconsole+0xa08>
    4180:	aa1603e0 	mov	x0, x22
    4184:	94000000 	bl	e860 <getenv>	4184: R_AARCH64_CALL26	getenv
    4188:	aa0003f9 	mov	x25, x0
    418c:	b5fffbe0 	cbnz	x0, 4108 <nsh_newconsole+0xa08>
    4190:	90000003 	adrp	x3, ebb8 <_srodata>	4190: R_AARCH64_ADR_PREL_PG_HI21	.rodata+0x5dc
    4194:	91000079 	add	x25, x3, #0x0	4194: R_AARCH64_ADD_ABS_LO12_NC	.rodata+0x5dc
    4198:	17ffffdc 	b	4108 <nsh_newconsole+0xa08>
    419c:	a9a64ffe 	stp	x30, x19, [sp, #-416]!
    41a0:	aa0003f3 	mov	x19, x0
    41a4:	90000000 	adrp	x0, ebb8 <_srodata>	41a4: R_AARCH64_ADR_PREL_PG_HI21	.rodata
    41a8:	91000000 	add	x0, x0, #0x0	41a8: R_AARCH64_ADD_ABS_LO12_NC	.rodata
    41ac:	a90157f4 	stp	x20, x21, [sp, #16]
    41b0:	d2801102 	mov	x2, #0x88                  	// #136
    41b4:	a9025ff6 	stp	x22, x23, [sp, #32]
    41b8:	aa0103f4 	mov	x20, x1
    41bc:	52800001 	mov	w1, #0x0                   	// #0
    41c0:	ad40781f 	ldp	q31, q30, [x0]
    41c4:	910263e0 	add	x0, sp, #0x98
    41c8:	a90367f8 	stp	x24, x25, [sp, #48]
    41cc:	9102e3f9 	add	x25, sp, #0xb8
    41d0:	a9046ffa 	stp	x26, x27, [sp, #64]
    41d4:	f9002bfc 	str	x28, [sp, #80]
    41d8:	ad00781f 	stp	q31, q30, [x0]
    41dc:	910463e0 	add	x0, sp, #0x118
    41e0:	4f00041f 	movi	v31.4s, #0x0
    41e4:	ad007f3f 	stp	q31, q31, [x25]
    41e8:	ad017f3f 	stp	q31, q31, [x25, #32]
    41ec:	ad027f3f 	stp	q31, q31, [x25, #64]
    41f0:	94000000 	bl	3c0 <memset>	41f0: R_AARCH64_CALL26	memset
    41f4:	910223e3 	add	x3, sp, #0x88
    41f8:	7905427f 	strh	wzr, [x19, #672]
    41fc:	910463e2 	add	x2, sp, #0x118
    4200:	390a8a7f 	strb	wzr, [x19, #674]
    4204:	9101e3e1 	add	x1, sp, #0x78
    4208:	aa1303e0 	mov	x0, x19
    420c:	d2800004 	mov	x4, #0x0                   	// #0
    4210:	f9003ff4 	str	x20, [sp, #120]
    4214:	a908ffff 	stp	xzr, xzr, [sp, #136]
    4218:	94000000 	bl	0 <memcpy>	4218: R_AARCH64_CALL26	.text+0x3cd4
    421c:	b9408bf7 	ldr	w23, [sp, #136]
    4220:	f9404bf6 	ldr	x22, [sp, #144]
    4224:	b40013c0 	cbz	x0, 449c <nsh_newconsole+0xd9c>
    4228:	aa0003f4 	mov	x20, x0
    422c:	90000001 	adrp	x1, ebb8 <_srodata>	422c: R_AARCH64_ADR_PREL_PG_HI21	.rodata+0x3fe
    4230:	91000021 	add	x1, x1, #0x0	4230: R_AARCH64_ADD_ABS_LO12_NC	.rodata+0x3fe
    4234:	94000000 	bl	680 <strcmp>	4234: R_AARCH64_CALL26	strcmp
    4238:	90000001 	adrp	x1, ebb8 <_srodata>	4238: R_AARCH64_ADR_PREL_PG_HI21	.rodata+0x404
    423c:	2a0003f8 	mov	w24, w0
    4240:	91000021 	add	x1, x1, #0x0	4240: R_AARCH64_ADD_ABS_LO12_NC	.rodata+0x404
    4244:	aa1403e0 	mov	x0, x20
    4248:	94000000 	bl	680 <strcmp>	4248: R_AARCH64_CALL26	strcmp
    424c:	910a8275 	add	x21, x19, #0x2a0
    4250:	7100031f 	cmp	w24, #0x0
    4254:	7a401804 	ccmp	w0, #0x0, #0x4, ne	// ne = any
    4258:	54000e01 	b.ne	4418 <nsh_newconsole+0xd18>  // b.any
    425c:	910223e3 	add	x3, sp, #0x88
    4260:	910463e2 	add	x2, sp, #0x118
    4264:	9101e3e1 	add	x1, sp, #0x78
    4268:	aa1303e0 	mov	x0, x19
    426c:	d2800004 	mov	x4, #0x0                   	// #0
    4270:	94000000 	bl	0 <memcpy>	4270: R_AARCH64_CALL26	.text+0x3cd4
    4274:	f9404bf6 	ldr	x22, [sp, #144]
    4278:	aa0003e5 	mov	x5, x0
    427c:	b9408bf7 	ldr	w23, [sp, #136]
    4280:	b4000060 	cbz	x0, 428c <nsh_newconsole+0xb8c>
    4284:	39400000 	ldrb	w0, [x0]
    4288:	350000c0 	cbnz	w0, 42a0 <nsh_newconsole+0xba0>
    428c:	f9401a63 	ldr	x3, [x19, #48]
    4290:	aa1403e2 	mov	x2, x20
    4294:	90000001 	adrp	x1, f103 <g_fmtarginvalid>	4294: R_AARCH64_ADR_PREL_PG_HI21	g_fmtarginvalid
    4298:	91000021 	add	x1, x1, #0x0	4298: R_AARCH64_ADD_ABS_LO12_NC	g_fmtarginvalid
    429c:	1400001e 	b	4314 <nsh_newconsole+0xc14>
    42a0:	394112a0 	ldrb	w0, [x21, #68]
    42a4:	394112a6 	ldrb	w6, [x21, #68]
    42a8:	8b0002a0 	add	x0, x21, x0
    42ac:	79408800 	ldrh	w0, [x0, #68]
    42b0:	d34e3c00 	ubfx	x0, x0, #14, #2
    42b4:	7100041f 	cmp	w0, #0x1
    42b8:	540001c0 	b.eq	42f0 <nsh_newconsole+0xbf0>  // b.none
    42bc:	39410ea0 	ldrb	w0, [x21, #67]
    42c0:	39410ea3 	ldrb	w3, [x21, #67]
    42c4:	8b0012a0 	add	x0, x21, x0, lsl #4
    42c8:	f9402401 	ldr	x1, [x0, #72]
    42cc:	d3461c21 	ubfx	x1, x1, #6, #2
    42d0:	11000c21 	add	w1, w1, #0x3
    42d4:	12000421 	and	w1, w1, #0x3
    42d8:	7100043f 	cmp	w1, #0x1
    42dc:	540000a9 	b.ls	42f0 <nsh_newconsole+0xbf0>  // b.plast
    42e0:	b94032a0 	ldr	w0, [x21, #48]
    42e4:	37f80060 	tbnz	w0, #31, 42f0 <nsh_newconsole+0xbf0>
    42e8:	f9401ea8 	ldr	x8, [x21, #56]
    42ec:	b6f80088 	tbz	x8, #63, 42fc <nsh_newconsole+0xbfc>
    42f0:	f9401a63 	ldr	x3, [x19, #48]
    42f4:	aa1403e2 	mov	x2, x20
    42f8:	14000062 	b	4480 <nsh_newconsole+0xd80>
    42fc:	7100047f 	cmp	w3, #0x1
    4300:	54000289 	b.ls	4350 <nsh_newconsole+0xc50>  // b.plast
    4304:	f9401a63 	ldr	x3, [x19, #48]
    4308:	90000001 	adrp	x1, f079 <g_fmtdeepnesting>	4308: R_AARCH64_ADR_PREL_PG_HI21	g_fmtdeepnesting
    430c:	aa1403e2 	mov	x2, x20
    4310:	91000021 	add	x1, x1, #0x0	4310: R_AARCH64_ADD_ABS_LO12_NC	g_fmtdeepnesting
    4314:	aa1303e0 	mov	x0, x19
    4318:	d63f0060 	blr	x3
    431c:	394ba260 	ldrb	w0, [x19, #744]
    4320:	7905c67f 	strh	wzr, [x19, #738]
    4324:	121f1000 	and	w0, w0, #0x3e
    4328:	32000000 	orr	w0, w0, #0x1
    432c:	390ba260 	strb	w0, [x19, #744]
    4330:	f9002abf 	str	xzr, [x21, #80]
    4334:	aa1303e0 	mov	x0, x19
    4338:	52800021 	mov	w1, #0x1                   	// #1
    433c:	94000000 	bl	0 <memcpy>	433c: R_AARCH64_CALL26	.text+0x37bc
    4340:	2a0003f5 	mov	w21, w0
    4344:	5280001b 	mov	w27, #0x0                   	// #0
    4348:	52800018 	mov	w24, #0x0                   	// #0
    434c:	140001f3 	b	4b18 <nsh_newconsole+0x1418>
    4350:	7100031f 	cmp	w24, #0x0
    4354:	aa1303e0 	mov	x0, x19
    4358:	1a9f07e4 	cset	w4, ne	// ne = any
    435c:	aa0503f4 	mov	x20, x5
    4360:	11000484 	add	w4, w4, #0x1
    4364:	94000000 	bl	0 <memcpy>	4364: R_AARCH64_CALL26	.text+0x38e0
    4368:	39010abf 	strb	wzr, [x21, #66]
    436c:	11000461 	add	w1, w3, #0x1
    4370:	12001c00 	and	w0, w0, #0xff
    4374:	12001c21 	and	w1, w1, #0xff
    4378:	39010ea1 	strb	w1, [x21, #67]
    437c:	2a041804 	orr	w4, w0, w4, lsl #6
    4380:	794082a7 	ldrh	w7, [x21, #64]
    4384:	d37c1c22 	ubfiz	x2, x1, #4, #8
    4388:	8b211261 	add	x1, x19, w1, uxtb #4
    438c:	91010042 	add	x2, x2, #0x40
    4390:	121a6884 	and	w4, w4, #0xffffffc1
    4394:	8b020262 	add	x2, x19, x2
    4398:	8b0800e7 	add	x7, x7, x8
    439c:	394aa040 	ldrb	w0, [x2, #680]
    43a0:	121f1000 	and	w0, w0, #0x3e
    43a4:	2a000084 	orr	w4, w4, w0
    43a8:	390aa044 	strb	w4, [x2, #680]
    43ac:	390ba426 	strb	w6, [x1, #745]
    43b0:	f9017827 	str	x7, [x1, #752]
    43b4:	90000018 	adrp	x24, ebb8 <_srodata>	43b4: R_AARCH64_ADR_PREL_PG_HI21	.rodata+0x418
    43b8:	91000318 	add	x24, x24, #0x0	43b8: R_AARCH64_ADD_ABS_LO12_NC	.rodata+0x418
    43bc:	aa1803e1 	mov	x1, x24
    43c0:	aa1403e0 	mov	x0, x20
    43c4:	94000000 	bl	680 <strcmp>	43c4: R_AARCH64_CALL26	strcmp
    43c8:	35001e60 	cbnz	w0, 4794 <nsh_newconsole+0x1094>
    43cc:	910223e3 	add	x3, sp, #0x88
    43d0:	910463e2 	add	x2, sp, #0x118
    43d4:	9101e3e1 	add	x1, sp, #0x78
    43d8:	aa1303e0 	mov	x0, x19
    43dc:	d2800004 	mov	x4, #0x0                   	// #0
    43e0:	b9008bf7 	str	w23, [sp, #136]
    43e4:	f9004bf6 	str	x22, [sp, #144]
    43e8:	94000000 	bl	0 <memcpy>	43e8: R_AARCH64_CALL26	.text+0x3cd4
    43ec:	f9404bf6 	ldr	x22, [sp, #144]
    43f0:	aa0003f4 	mov	x20, x0
    43f4:	b9408bf7 	ldr	w23, [sp, #136]
    43f8:	b4000060 	cbz	x0, 4404 <nsh_newconsole+0xd04>
    43fc:	39400001 	ldrb	w1, [x0]
    4400:	35000e41 	cbnz	w1, 45c8 <nsh_newconsole+0xec8>
    4404:	f9401a63 	ldr	x3, [x19, #48]
    4408:	aa1803e2 	mov	x2, x24
    440c:	90000001 	adrp	x1, f103 <g_fmtarginvalid>	440c: R_AARCH64_ADR_PREL_PG_HI21	g_fmtarginvalid
    4410:	91000021 	add	x1, x1, #0x0	4410: R_AARCH64_ADD_ABS_LO12_NC	g_fmtarginvalid
    4414:	14000092 	b	465c <nsh_newconsole+0xf5c>
    4418:	90000018 	adrp	x24, ebb8 <_srodata>	4418: R_AARCH64_ADR_PREL_PG_HI21	.rodata+0x40a
    441c:	91000318 	add	x24, x24, #0x0	441c: R_AARCH64_ADD_ABS_LO12_NC	.rodata+0x40a
    4420:	aa1803e1 	mov	x1, x24
    4424:	aa1403e0 	mov	x0, x20
    4428:	94000000 	bl	680 <strcmp>	4428: R_AARCH64_CALL26	strcmp
    442c:	350003c0 	cbnz	w0, 44a4 <nsh_newconsole+0xda4>
    4430:	9101e3e1 	add	x1, sp, #0x78
    4434:	910223e3 	add	x3, sp, #0x88
    4438:	910463e2 	add	x2, sp, #0x118
    443c:	aa1303e0 	mov	x0, x19
    4440:	d2800004 	mov	x4, #0x0                   	// #0
    4444:	94000000 	bl	0 <memcpy>	4444: R_AARCH64_CALL26	.text+0x3cd4
    4448:	aa0003f4 	mov	x20, x0
    444c:	39410ea0 	ldrb	w0, [x21, #67]
    4450:	f9404bf6 	ldr	x22, [sp, #144]
    4454:	91001000 	add	x0, x0, #0x4
    4458:	b9408bf7 	ldr	w23, [sp, #136]
    445c:	8b0012a0 	add	x0, x21, x0, lsl #4
    4460:	f9400401 	ldr	x1, [x0, #8]
    4464:	d3461c21 	ubfx	x1, x1, #6, #2
    4468:	11000c21 	add	w1, w1, #0x3
    446c:	12000421 	and	w1, w1, #0x3
    4470:	7100043f 	cmp	w1, #0x1
    4474:	540000c9 	b.ls	448c <nsh_newconsole+0xd8c>  // b.plast
    4478:	f9401a63 	ldr	x3, [x19, #48]
    447c:	aa1803e2 	mov	x2, x24
    4480:	90000001 	adrp	x1, f055 <g_fmtcontext>	4480: R_AARCH64_ADR_PREL_PG_HI21	g_fmtcontext
    4484:	91000021 	add	x1, x1, #0x0	4484: R_AARCH64_ADD_ABS_LO12_NC	g_fmtcontext
    4488:	17ffffa3 	b	4314 <nsh_newconsole+0xc14>
    448c:	39402001 	ldrb	w1, [x0, #8]
    4490:	321a6421 	orr	w1, w1, #0xffffffc0
    4494:	39002001 	strb	w1, [x0, #8]
    4498:	b5fff8f4 	cbnz	x20, 43b4 <nsh_newconsole+0xcb4>
    449c:	b902ce7f 	str	wzr, [x19, #716]
    44a0:	140000de 	b	4818 <nsh_newconsole+0x1118>
    44a4:	90000018 	adrp	x24, ebb8 <_srodata>	44a4: R_AARCH64_ADR_PREL_PG_HI21	.rodata+0x40d
    44a8:	91000318 	add	x24, x24, #0x0	44a8: R_AARCH64_ADD_ABS_LO12_NC	.rodata+0x40d
    44ac:	aa1803e1 	mov	x1, x24
    44b0:	aa1403e0 	mov	x0, x20
    44b4:	94000000 	bl	680 <strcmp>	44b4: R_AARCH64_CALL26	strcmp
    44b8:	35000760 	cbnz	w0, 45a4 <nsh_newconsole+0xea4>
    44bc:	910223e3 	add	x3, sp, #0x88
    44c0:	910463e2 	add	x2, sp, #0x118
    44c4:	9101e3e1 	add	x1, sp, #0x78
    44c8:	aa1303e0 	mov	x0, x19
    44cc:	d2800004 	mov	x4, #0x0                   	// #0
    44d0:	94000000 	bl	0 <memcpy>	44d0: R_AARCH64_CALL26	.text+0x3cd4
    44d4:	f9404bf6 	ldr	x22, [sp, #144]
    44d8:	b9408bf7 	ldr	w23, [sp, #136]
    44dc:	b4000080 	cbz	x0, 44ec <nsh_newconsole+0xdec>
    44e0:	f9401a63 	ldr	x3, [x19, #48]
    44e4:	aa1803e2 	mov	x2, x24
    44e8:	17ffff6b 	b	4294 <nsh_newconsole+0xb94>
    44ec:	39410ea0 	ldrb	w0, [x21, #67]
    44f0:	39410ea2 	ldrb	w2, [x21, #67]
    44f4:	91001000 	add	x0, x0, #0x4
    44f8:	8b0012a0 	add	x0, x21, x0, lsl #4
    44fc:	f9400401 	ldr	x1, [x0, #8]
    4500:	53061c23 	ubfx	w3, w1, #6, #2
    4504:	71000c7f 	cmp	w3, #0x3
    4508:	54fffb81 	b.ne	4478 <nsh_newconsole+0xd78>  // b.any
    450c:	350000c2 	cbnz	w2, 4524 <nsh_newconsole+0xe24>
    4510:	f9401a63 	ldr	x3, [x19, #48]
    4514:	90000001 	adrp	x1, f00c <g_fmtinternalerror>	4514: R_AARCH64_ADR_PREL_PG_HI21	g_fmtinternalerror
    4518:	aa1803e2 	mov	x2, x24
    451c:	91000021 	add	x1, x1, #0x0	451c: R_AARCH64_ADD_ABS_LO12_NC	g_fmtinternalerror
    4520:	17ffff7d 	b	4314 <nsh_newconsole+0xc14>
    4524:	36000381 	tbz	w1, #0, 4594 <nsh_newconsole+0xe94>
    4528:	b9401001 	ldr	w1, [x0, #16]
    452c:	52800002 	mov	w2, #0x0                   	// #0
    4530:	b94032a0 	ldr	w0, [x21, #48]
    4534:	94000000 	bl	e90c <lseek>	4534: R_AARCH64_CALL26	lseek
    4538:	36f80160 	tbz	w0, #31, 4564 <nsh_newconsole+0xe64>
    453c:	f9401a74 	ldr	x20, [x19, #48]
    4540:	94000000 	bl	2454 <__errno>	4540: R_AARCH64_CALL26	__errno
    4544:	b9400004 	ldr	w4, [x0]
    4548:	90000003 	adrp	x3, ebb8 <_srodata>	4548: R_AARCH64_ADR_PREL_PG_HI21	.rodata+0x412
    454c:	90000001 	adrp	x1, f03d <g_fmtcmdfailed>	454c: R_AARCH64_ADR_PREL_PG_HI21	g_fmtcmdfailed
    4550:	91000063 	add	x3, x3, #0x0	4550: R_AARCH64_ADD_ABS_LO12_NC	.rodata+0x412
    4554:	aa1803e2 	mov	x2, x24
    4558:	91000021 	add	x1, x1, #0x0	4558: R_AARCH64_ADD_ABS_LO12_NC	g_fmtcmdfailed
    455c:	aa1303e0 	mov	x0, x19
    4560:	d63f0280 	blr	x20
    4564:	52800020 	mov	w0, #0x1                   	// #1
    4568:	39010aa0 	strb	w0, [x21, #66]
    456c:	39410ea0 	ldrb	w0, [x21, #67]
    4570:	39410ea1 	ldrb	w1, [x21, #67]
    4574:	91001000 	add	x0, x0, #0x4
    4578:	8b0012a0 	add	x0, x21, x0, lsl #4
    457c:	39402002 	ldrb	w2, [x0, #8]
    4580:	12001442 	and	w2, w2, #0x3f
    4584:	39002002 	strb	w2, [x0, #8]
    4588:	51000420 	sub	w0, w1, #0x1
    458c:	39010ea0 	strb	w0, [x21, #67]
    4590:	17ffffc3 	b	449c <nsh_newconsole+0xd9c>
    4594:	39402001 	ldrb	w1, [x0, #8]
    4598:	32000021 	orr	w1, w1, #0x1
    459c:	39002001 	strb	w1, [x0, #8]
    45a0:	17fffff3 	b	456c <nsh_newconsole+0xe6c>
    45a4:	39410ea0 	ldrb	w0, [x21, #67]
    45a8:	8b0012a0 	add	x0, x21, x0, lsl #4
    45ac:	f9402400 	ldr	x0, [x0, #72]
    45b0:	d3461c00 	ubfx	x0, x0, #6, #2
    45b4:	11000c00 	add	w0, w0, #0x3
    45b8:	12000400 	and	w0, w0, #0x3
    45bc:	7100041f 	cmp	w0, #0x1
    45c0:	54ffefa8 	b.hi	43b4 <nsh_newconsole+0xcb4>  // b.pmore
    45c4:	17ffff4b 	b	42f0 <nsh_newconsole+0xbf0>
    45c8:	90000001 	adrp	x1, ebb8 <_srodata>	45c8: R_AARCH64_ADR_PREL_PG_HI21	.rodata+0x41b
    45cc:	91000021 	add	x1, x1, #0x0	45cc: R_AARCH64_ADD_ABS_LO12_NC	.rodata+0x41b
    45d0:	94000000 	bl	680 <strcmp>	45d0: R_AARCH64_CALL26	strcmp
    45d4:	35000340 	cbnz	w0, 463c <nsh_newconsole+0xf3c>
    45d8:	910223e3 	add	x3, sp, #0x88
    45dc:	910463e2 	add	x2, sp, #0x118
    45e0:	9101e3e1 	add	x1, sp, #0x78
    45e4:	aa1303e0 	mov	x0, x19
    45e8:	d2800004 	mov	x4, #0x0                   	// #0
    45ec:	94000000 	bl	0 <memcpy>	45ec: R_AARCH64_CALL26	.text+0x3cd4
    45f0:	f9404bf6 	ldr	x22, [sp, #144]
    45f4:	aa0003f4 	mov	x20, x0
    45f8:	b9408bf7 	ldr	w23, [sp, #136]
    45fc:	b4fff040 	cbz	x0, 4404 <nsh_newconsole+0xd04>
    4600:	39400000 	ldrb	w0, [x0]
    4604:	52800024 	mov	w4, #0x1                   	// #1
    4608:	34ffefe0 	cbz	w0, 4404 <nsh_newconsole+0xd04>
    460c:	394112a0 	ldrb	w0, [x21, #68]
    4610:	394112a3 	ldrb	w3, [x21, #68]
    4614:	8b0002a0 	add	x0, x21, x0
    4618:	79408800 	ldrh	w0, [x0, #68]
    461c:	d34e3c00 	ubfx	x0, x0, #14, #2
    4620:	7100041f 	cmp	w0, #0x1
    4624:	54000101 	b.ne	4644 <nsh_newconsole+0xf44>  // b.any
    4628:	f9401a63 	ldr	x3, [x19, #48]
    462c:	aa1803e2 	mov	x2, x24
    4630:	90000001 	adrp	x1, f055 <g_fmtcontext>	4630: R_AARCH64_ADR_PREL_PG_HI21	g_fmtcontext
    4634:	91000021 	add	x1, x1, #0x0	4634: R_AARCH64_ADD_ABS_LO12_NC	g_fmtcontext
    4638:	14000009 	b	465c <nsh_newconsole+0xf5c>
    463c:	52800004 	mov	w4, #0x0                   	// #0
    4640:	17fffff3 	b	460c <nsh_newconsole+0xf0c>
    4644:	7100047f 	cmp	w3, #0x1
    4648:	54000169 	b.ls	4674 <nsh_newconsole+0xf74>  // b.plast
    464c:	f9401a63 	ldr	x3, [x19, #48]
    4650:	90000001 	adrp	x1, f079 <g_fmtdeepnesting>	4650: R_AARCH64_ADR_PREL_PG_HI21	g_fmtdeepnesting
    4654:	aa1803e2 	mov	x2, x24
    4658:	91000021 	add	x1, x1, #0x0	4658: R_AARCH64_ADD_ABS_LO12_NC	g_fmtdeepnesting
    465c:	aa1303e0 	mov	x0, x19
    4660:	d63f0060 	blr	x3
    4664:	7945ca60 	ldrh	w0, [x19, #740]
    4668:	12150800 	and	w0, w0, #0x3800
    466c:	7905ca60 	strh	w0, [x19, #740]
    4670:	17ffff31 	b	4334 <nsh_newconsole+0xc34>
    4674:	11000463 	add	w3, w3, #0x1
    4678:	aa1303e0 	mov	x0, x19
    467c:	12001c63 	and	w3, w3, #0xff
    4680:	94000000 	bl	0 <memcpy>	4680: R_AARCH64_CALL26	.text+0x38e0
    4684:	12001c00 	and	w0, w0, #0xff
    4688:	390112a3 	strb	w3, [x21, #68]
    468c:	52000000 	eor	w0, w0, #0x1
    4690:	8b234263 	add	x3, x19, w3, uxtw
    4694:	531f1800 	ubfiz	w0, w0, #1, #7
    4698:	321a0000 	orr	w0, w0, #0x40
    469c:	2a040804 	orr	w4, w0, w4, lsl #2
    46a0:	394b9460 	ldrb	w0, [x3, #741]
    46a4:	121a7084 	and	w4, w4, #0xffffffc7
    46a8:	121d0800 	and	w0, w0, #0x38
    46ac:	2a000084 	orr	w4, w4, w0
    46b0:	390b9464 	strb	w4, [x3, #741]
    46b4:	b902ce7f 	str	wzr, [x19, #716]
    46b8:	90000018 	adrp	x24, ebb8 <_srodata>	46b8: R_AARCH64_ADR_PREL_PG_HI21	.rodata+0x42a
    46bc:	91000318 	add	x24, x24, #0x0	46bc: R_AARCH64_ADD_ABS_LO12_NC	.rodata+0x42a
    46c0:	aa1803e1 	mov	x1, x24
    46c4:	aa1403e0 	mov	x0, x20
    46c8:	94000000 	bl	680 <strcmp>	46c8: R_AARCH64_CALL26	strcmp
    46cc:	2a0003f5 	mov	w21, w0
    46d0:	35001500 	cbnz	w0, 4970 <nsh_newconsole+0x1270>
    46d4:	52800140 	mov	w0, #0xa                   	// #10
    46d8:	b902ce60 	str	w0, [x19, #716]
    46dc:	910223e3 	add	x3, sp, #0x88
    46e0:	910463e2 	add	x2, sp, #0x118
    46e4:	9101e3e1 	add	x1, sp, #0x78
    46e8:	aa1303e0 	mov	x0, x19
    46ec:	d2800004 	mov	x4, #0x0                   	// #0
    46f0:	b9008bf7 	str	w23, [sp, #136]
    46f4:	f9004bf6 	str	x22, [sp, #144]
    46f8:	94000000 	bl	0 <memcpy>	46f8: R_AARCH64_CALL26	.text+0x3cd4
    46fc:	f9404bf6 	ldr	x22, [sp, #144]
    4700:	aa0003f4 	mov	x20, x0
    4704:	b9408bf7 	ldr	w23, [sp, #136]
    4708:	b4ffe1e0 	cbz	x0, 4344 <nsh_newconsole+0xc44>
    470c:	90000001 	adrp	x1, ebb8 <_srodata>	470c: R_AARCH64_ADR_PREL_PG_HI21	.rodata+0x42f
    4710:	91000021 	add	x1, x1, #0x0	4710: R_AARCH64_ADD_ABS_LO12_NC	.rodata+0x42f
    4714:	94000000 	bl	680 <strcmp>	4714: R_AARCH64_CALL26	strcmp
    4718:	2a0003f5 	mov	w21, w0
    471c:	350012a0 	cbnz	w0, 4970 <nsh_newconsole+0x1270>
    4720:	910223e3 	add	x3, sp, #0x88
    4724:	910463e2 	add	x2, sp, #0x118
    4728:	9101e3e1 	add	x1, sp, #0x78
    472c:	aa1303e0 	mov	x0, x19
    4730:	d2800004 	mov	x4, #0x0                   	// #0
    4734:	94000000 	bl	0 <memcpy>	4734: R_AARCH64_CALL26	.text+0x3cd4
    4738:	f9404bf6 	ldr	x22, [sp, #144]
    473c:	aa0003fb 	mov	x27, x0
    4740:	b9408bf7 	ldr	w23, [sp, #136]
    4744:	b4001160 	cbz	x0, 4970 <nsh_newconsole+0x1270>
    4748:	910203e1 	add	x1, sp, #0x80
    474c:	52800002 	mov	w2, #0x0                   	// #0
    4750:	94000000 	bl	d574 <strtol>	4750: R_AARCH64_CALL26	strtol
    4754:	b902ce60 	str	w0, [x19, #716]
    4758:	11005000 	add	w0, w0, #0x14
    475c:	71009c1f 	cmp	w0, #0x27
    4760:	540000c8 	b.hi	4778 <nsh_newconsole+0x1078>  // b.pmore
    4764:	f94043e0 	ldr	x0, [sp, #128]
    4768:	eb00037f 	cmp	x27, x0
    476c:	54000060 	b.eq	4778 <nsh_newconsole+0x1078>  // b.none
    4770:	39400000 	ldrb	w0, [x0]
    4774:	34000ea0 	cbz	w0, 4948 <nsh_newconsole+0x1248>
    4778:	f9401a63 	ldr	x3, [x19, #48]
    477c:	aa1803e2 	mov	x2, x24
    4780:	aa1303e0 	mov	x0, x19
    4784:	90000001 	adrp	x1, f103 <g_fmtarginvalid>	4784: R_AARCH64_ADR_PREL_PG_HI21	g_fmtarginvalid
    4788:	91000021 	add	x1, x1, #0x0	4788: R_AARCH64_ADD_ABS_LO12_NC	g_fmtarginvalid
    478c:	d63f0060 	blr	x3
    4790:	17fffee9 	b	4334 <nsh_newconsole+0xc34>
    4794:	9000001b 	adrp	x27, ebb8 <_srodata>	4794: R_AARCH64_ADR_PREL_PG_HI21	.rodata+0x41d
    4798:	9100037b 	add	x27, x27, #0x0	4798: R_AARCH64_ADD_ABS_LO12_NC	.rodata+0x41d
    479c:	aa1b03e1 	mov	x1, x27
    47a0:	aa1403e0 	mov	x0, x20
    47a4:	94000000 	bl	680 <strcmp>	47a4: R_AARCH64_CALL26	strcmp
    47a8:	35000400 	cbnz	w0, 4828 <nsh_newconsole+0x1128>
    47ac:	9101e3e1 	add	x1, sp, #0x78
    47b0:	910223e3 	add	x3, sp, #0x88
    47b4:	910463e2 	add	x2, sp, #0x118
    47b8:	aa1303e0 	mov	x0, x19
    47bc:	d2800004 	mov	x4, #0x0                   	// #0
    47c0:	b9008bf7 	str	w23, [sp, #136]
    47c4:	f9004bf6 	str	x22, [sp, #144]
    47c8:	94000000 	bl	0 <memcpy>	47c8: R_AARCH64_CALL26	.text+0x3cd4
    47cc:	aa0003f4 	mov	x20, x0
    47d0:	394112a0 	ldrb	w0, [x21, #68]
    47d4:	f9404bf6 	ldr	x22, [sp, #144]
    47d8:	8b0002a0 	add	x0, x21, x0
    47dc:	91010000 	add	x0, x0, #0x40
    47e0:	b9408bf7 	ldr	w23, [sp, #136]
    47e4:	79400801 	ldrh	w1, [x0, #4]
    47e8:	d34e3c21 	ubfx	x1, x1, #14, #2
    47ec:	7100043f 	cmp	w1, #0x1
    47f0:	54000080 	b.eq	4800 <nsh_newconsole+0x1100>  // b.none
    47f4:	f9401a63 	ldr	x3, [x19, #48]
    47f8:	aa1b03e2 	mov	x2, x27
    47fc:	17ffff8d 	b	4630 <nsh_newconsole+0xf30>
    4800:	39401401 	ldrb	w1, [x0, #5]
    4804:	52800042 	mov	w2, #0x2                   	// #2
    4808:	331a0441 	bfi	w1, w2, #6, #2
    480c:	39001401 	strb	w1, [x0, #5]
    4810:	b902ce7f 	str	wzr, [x19, #716]
    4814:	b5fff534 	cbnz	x20, 46b8 <nsh_newconsole+0xfb8>
    4818:	5280001b 	mov	w27, #0x0                   	// #0
    481c:	52800018 	mov	w24, #0x0                   	// #0
    4820:	52800015 	mov	w21, #0x0                   	// #0
    4824:	140000bd 	b	4b18 <nsh_newconsole+0x1418>
    4828:	9000001b 	adrp	x27, ebb8 <_srodata>	4828: R_AARCH64_ADR_PREL_PG_HI21	.rodata+0x422
    482c:	9100037b 	add	x27, x27, #0x0	482c: R_AARCH64_ADD_ABS_LO12_NC	.rodata+0x422
    4830:	aa1b03e1 	mov	x1, x27
    4834:	aa1403e0 	mov	x0, x20
    4838:	94000000 	bl	680 <strcmp>	4838: R_AARCH64_CALL26	strcmp
    483c:	350002c0 	cbnz	w0, 4894 <nsh_newconsole+0x1194>
    4840:	9101e3e1 	add	x1, sp, #0x78
    4844:	910223e3 	add	x3, sp, #0x88
    4848:	910463e2 	add	x2, sp, #0x118
    484c:	aa1303e0 	mov	x0, x19
    4850:	d2800004 	mov	x4, #0x0                   	// #0
    4854:	b9008bf7 	str	w23, [sp, #136]
    4858:	f9004bf6 	str	x22, [sp, #144]
    485c:	94000000 	bl	0 <memcpy>	485c: R_AARCH64_CALL26	.text+0x3cd4
    4860:	aa0003f4 	mov	x20, x0
    4864:	394112a0 	ldrb	w0, [x21, #68]
    4868:	f9404bf6 	ldr	x22, [sp, #144]
    486c:	8b0002a0 	add	x0, x21, x0
    4870:	91010000 	add	x0, x0, #0x40
    4874:	b9408bf7 	ldr	w23, [sp, #136]
    4878:	79400801 	ldrh	w1, [x0, #4]
    487c:	d34e3c21 	ubfx	x1, x1, #14, #2
    4880:	7100083f 	cmp	w1, #0x2
    4884:	54fffb81 	b.ne	47f4 <nsh_newconsole+0x10f4>  // b.any
    4888:	39401401 	ldrb	w1, [x0, #5]
    488c:	321a6421 	orr	w1, w1, #0xffffffc0
    4890:	17ffffdf 	b	480c <nsh_newconsole+0x110c>
    4894:	9000001b 	adrp	x27, ebb8 <_srodata>	4894: R_AARCH64_ADR_PREL_PG_HI21	.rodata+0x427
    4898:	9100037b 	add	x27, x27, #0x0	4898: R_AARCH64_ADD_ABS_LO12_NC	.rodata+0x427
    489c:	aa1b03e1 	mov	x1, x27
    48a0:	aa1403e0 	mov	x0, x20
    48a4:	94000000 	bl	680 <strcmp>	48a4: R_AARCH64_CALL26	strcmp
    48a8:	350003e0 	cbnz	w0, 4924 <nsh_newconsole+0x1224>
    48ac:	910223e3 	add	x3, sp, #0x88
    48b0:	910463e2 	add	x2, sp, #0x118
    48b4:	9101e3e1 	add	x1, sp, #0x78
    48b8:	aa1303e0 	mov	x0, x19
    48bc:	d2800004 	mov	x4, #0x0                   	// #0
    48c0:	b9008bf7 	str	w23, [sp, #136]
    48c4:	f9004bf6 	str	x22, [sp, #144]
    48c8:	94000000 	bl	0 <memcpy>	48c8: R_AARCH64_CALL26	.text+0x3cd4
    48cc:	f9404bf6 	ldr	x22, [sp, #144]
    48d0:	b9408bf7 	ldr	w23, [sp, #136]
    48d4:	b4000080 	cbz	x0, 48e4 <nsh_newconsole+0x11e4>
    48d8:	f9401a63 	ldr	x3, [x19, #48]
    48dc:	aa1b03e2 	mov	x2, x27
    48e0:	17fffecb 	b	440c <nsh_newconsole+0xd0c>
    48e4:	394112a1 	ldrb	w1, [x21, #68]
    48e8:	394112a0 	ldrb	w0, [x21, #68]
    48ec:	8b0102a1 	add	x1, x21, x1
    48f0:	79408821 	ldrh	w1, [x1, #68]
    48f4:	d34e3c21 	ubfx	x1, x1, #14, #2
    48f8:	7100043f 	cmp	w1, #0x1
    48fc:	54fff7c9 	b.ls	47f4 <nsh_newconsole+0x10f4>  // b.plast
    4900:	350000c0 	cbnz	w0, 4918 <nsh_newconsole+0x1218>
    4904:	f9401a63 	ldr	x3, [x19, #48]
    4908:	90000001 	adrp	x1, f00c <g_fmtinternalerror>	4908: R_AARCH64_ADR_PREL_PG_HI21	g_fmtinternalerror
    490c:	aa1803e2 	mov	x2, x24
    4910:	91000021 	add	x1, x1, #0x0	4910: R_AARCH64_ADD_ABS_LO12_NC	g_fmtinternalerror
    4914:	17ffff52 	b	465c <nsh_newconsole+0xf5c>
    4918:	51000400 	sub	w0, w0, #0x1
    491c:	390112a0 	strb	w0, [x21, #68]
    4920:	17fffedf 	b	449c <nsh_newconsole+0xd9c>
    4924:	394112a0 	ldrb	w0, [x21, #68]
    4928:	8b0002b5 	add	x21, x21, x0
    492c:	79408aa0 	ldrh	w0, [x21, #68]
    4930:	d34e3c00 	ubfx	x0, x0, #14, #2
    4934:	7100041f 	cmp	w0, #0x1
    4938:	54ffebe1 	b.ne	46b4 <nsh_newconsole+0xfb4>  // b.any
    493c:	f9401a63 	ldr	x3, [x19, #48]
    4940:	aa1403e2 	mov	x2, x20
    4944:	17ffff3b 	b	4630 <nsh_newconsole+0xf30>
    4948:	910223e3 	add	x3, sp, #0x88
    494c:	910463e2 	add	x2, sp, #0x118
    4950:	9101e3e1 	add	x1, sp, #0x78
    4954:	aa1303e0 	mov	x0, x19
    4958:	d2800004 	mov	x4, #0x0                   	// #0
    495c:	94000000 	bl	0 <memcpy>	495c: R_AARCH64_CALL26	.text+0x3cd4
    4960:	f9404bf6 	ldr	x22, [sp, #144]
    4964:	aa0003f4 	mov	x20, x0
    4968:	b9408bf7 	ldr	w23, [sp, #136]
    496c:	b4ffcec0 	cbz	x0, 4344 <nsh_newconsole+0xc44>
    4970:	aa1303e0 	mov	x0, x19
    4974:	94000000 	bl	0 <memcpy>	4974: R_AARCH64_CALL26	.text+0x38e0
    4978:	12001c18 	and	w24, w0, #0xff
    497c:	360016c0 	tbz	w0, #0, 4c54 <nsh_newconsole+0x1554>
    4980:	9000001c 	adrp	x28, ebb8 <_srodata>	4980: R_AARCH64_ADR_PREL_PG_HI21	.rodata+0x5f7
    4984:	5280001b 	mov	w27, #0x0                   	// #0
    4988:	91000380 	add	x0, x28, #0x0	4988: R_AARCH64_ADD_ABS_LO12_NC	.rodata+0x5f7
    498c:	52800018 	mov	w24, #0x0                   	// #0
    4990:	52800035 	mov	w21, #0x1                   	// #1
    4994:	f90033e0 	str	x0, [sp, #96]
    4998:	f9005ff4 	str	x20, [sp, #184]
    499c:	d2800003 	mov	x3, #0x0                   	// #0
    49a0:	910203e4 	add	x4, sp, #0x80
    49a4:	910463e2 	add	x2, sp, #0x118
    49a8:	9101e3e1 	add	x1, sp, #0x78
    49ac:	aa1303e0 	mov	x0, x19
    49b0:	b90083ff 	str	wzr, [sp, #128]
    49b4:	94000000 	bl	0 <memcpy>	49b4: R_AARCH64_CALL26	.text+0x3cd4
    49b8:	f835db20 	str	x0, [x25, w21, sxtw #3]
    49bc:	aa0003fa 	mov	x26, x0
    49c0:	93407ea3 	sxtw	x3, w21
    49c4:	b4001360 	cbz	x0, 4c30 <nsh_newconsole+0x1530>
    49c8:	b94083e0 	ldr	w0, [sp, #128]
    49cc:	340000a0 	cbz	w0, 49e0 <nsh_newconsole+0x12e0>
    49d0:	aa0303fc 	mov	x28, x3
    49d4:	39400341 	ldrb	w1, [x26]
    49d8:	350005a1 	cbnz	w1, 4a8c <nsh_newconsole+0x138c>
    49dc:	2a1c03f5 	mov	w21, w28
    49e0:	f875db23 	ldr	x3, [x25, w21, sxtw #3]
    49e4:	d2800042 	mov	x2, #0x2                   	// #2
    49e8:	90000001 	adrp	x1, ebb8 <_srodata>	49e8: R_AARCH64_ADR_PREL_PG_HI21	.rodata+0x5e7
    49ec:	91000021 	add	x1, x1, #0x0	49ec: R_AARCH64_ADD_ABS_LO12_NC	.rodata+0x5e7
    49f0:	aa0303e0 	mov	x0, x3
    49f4:	f90037e3 	str	x3, [sp, #104]
    49f8:	94000000 	bl	a9c <strncmp>	49f8: R_AARCH64_CALL26	strncmp
    49fc:	f94037e3 	ldr	x3, [sp, #104]
    4a00:	35000be0 	cbnz	w0, 4b7c <nsh_newconsole+0x147c>
    4a04:	39400860 	ldrb	w0, [x3, #2]
    4a08:	340006a0 	cbz	w0, 4adc <nsh_newconsole+0x13dc>
    4a0c:	91000861 	add	x1, x3, #0x2
    4a10:	52800020 	mov	w0, #0x1                   	// #1
    4a14:	394a8678 	ldrb	w24, [x19, #673]
    4a18:	390a8660 	strb	w0, [x19, #673]
    4a1c:	528002c0 	mov	w0, #0x16                  	// #22
    4a20:	b900a7e0 	str	w0, [sp, #164]
    4a24:	aa1303e0 	mov	x0, x19
    4a28:	94000000 	bl	68fc <nsh_getfullpath>	4a28: R_AARCH64_CALL26	nsh_getfullpath
    4a2c:	f9005be0 	str	x0, [sp, #176]
    4a30:	71002abf 	cmp	w21, #0xa
    4a34:	54fffb4d 	b.le	499c <nsh_newconsole+0x129c>
    4a38:	510006bc 	sub	w28, w21, #0x1
    4a3c:	90000001 	adrp	x1, ebb8 <_srodata>	4a3c: R_AARCH64_ADR_PREL_PG_HI21	.rodata+0x432
    4a40:	91000021 	add	x1, x1, #0x0	4a40: R_AARCH64_ADD_ABS_LO12_NC	.rodata+0x432
    4a44:	f87cdb20 	ldr	x0, [x25, w28, sxtw #3]
    4a48:	94000000 	bl	680 <strcmp>	4a48: R_AARCH64_CALL26	strcmp
    4a4c:	35000080 	cbnz	w0, 4a5c <nsh_newconsole+0x135c>
    4a50:	2a1c03f5 	mov	w21, w28
    4a54:	52800020 	mov	w0, #0x1                   	// #1
    4a58:	390a8260 	strb	w0, [x19, #672]
    4a5c:	f835db3f 	str	xzr, [x25, w21, sxtw #3]
    4a60:	71001ebf 	cmp	w21, #0x7
    4a64:	54000ead 	b.le	4c38 <nsh_newconsole+0x1538>
    4a68:	f9401a63 	ldr	x3, [x19, #48]
    4a6c:	aa1403e2 	mov	x2, x20
    4a70:	aa1303e0 	mov	x0, x19
    4a74:	90000001 	adrp	x1, f094 <g_fmttoomanyargs>	4a74: R_AARCH64_ADR_PREL_PG_HI21	g_fmttoomanyargs
    4a78:	91000021 	add	x1, x1, #0x0	4a78: R_AARCH64_ADD_ABS_LO12_NC	g_fmttoomanyargs
    4a7c:	d63f0060 	blr	x3
    4a80:	1400006e 	b	4c38 <nsh_newconsole+0x1538>
    4a84:	aa0103fa 	mov	x26, x1
    4a88:	17ffffd3 	b	49d4 <nsh_newconsole+0x12d4>
    4a8c:	f94033e0 	ldr	x0, [sp, #96]
    4a90:	94000000 	bl	59c <strchr>	4a90: R_AARCH64_CALL26	strchr
    4a94:	91000741 	add	x1, x26, #0x1
    4a98:	b4ffff60 	cbz	x0, 4a84 <nsh_newconsole+0x1384>
    4a9c:	3900035f 	strb	wzr, [x26]
    4aa0:	aa0103fa 	mov	x26, x1
    4aa4:	39400341 	ldrb	w1, [x26]
    4aa8:	34000081 	cbz	w1, 4ab8 <nsh_newconsole+0x13b8>
    4aac:	f94033e0 	ldr	x0, [sp, #96]
    4ab0:	94000000 	bl	59c <strchr>	4ab0: R_AARCH64_CALL26	strchr
    4ab4:	b5000100 	cbnz	x0, 4ad4 <nsh_newconsole+0x13d4>
    4ab8:	8b1c0f20 	add	x0, x25, x28, lsl #3
    4abc:	9100079c 	add	x28, x28, #0x1
    4ac0:	2a1c03f5 	mov	w21, w28
    4ac4:	f900041a 	str	x26, [x0, #8]
    4ac8:	71002f9f 	cmp	w28, #0xb
    4acc:	54fff841 	b.ne	49d4 <nsh_newconsole+0x12d4>  // b.any
    4ad0:	17ffffc4 	b	49e0 <nsh_newconsole+0x12e0>
    4ad4:	9100075a 	add	x26, x26, #0x1
    4ad8:	17fffff3 	b	4aa4 <nsh_newconsole+0x13a4>
    4adc:	9101e3e1 	add	x1, sp, #0x78
    4ae0:	910203e4 	add	x4, sp, #0x80
    4ae4:	910463e2 	add	x2, sp, #0x118
    4ae8:	aa1303e0 	mov	x0, x19
    4aec:	d2800003 	mov	x3, #0x0                   	// #0
    4af0:	94000000 	bl	0 <memcpy>	4af0: R_AARCH64_CALL26	.text+0x3cd4
    4af4:	aa0003e1 	mov	x1, x0
    4af8:	b5fff8c0 	cbnz	x0, 4a10 <nsh_newconsole+0x1310>
    4afc:	f9401a63 	ldr	x3, [x19, #48]
    4b00:	12800015 	mov	w21, #0xffffffff            	// #-1
    4b04:	aa1403e2 	mov	x2, x20
    4b08:	aa1303e0 	mov	x0, x19
    4b0c:	90000001 	adrp	x1, f103 <g_fmtarginvalid>	4b0c: R_AARCH64_ADR_PREL_PG_HI21	g_fmtarginvalid
    4b10:	91000021 	add	x1, x1, #0x0	4b10: R_AARCH64_ADD_ABS_LO12_NC	g_fmtarginvalid
    4b14:	d63f0060 	blr	x3
    4b18:	f9405be0 	ldr	x0, [sp, #176]
    4b1c:	b4000060 	cbz	x0, 4b28 <nsh_newconsole+0x1428>
    4b20:	94000000 	bl	698c <nsh_freefullpath>	4b20: R_AARCH64_CALL26	nsh_freefullpath
    4b24:	390a8678 	strb	w24, [x19, #673]
    4b28:	f94057e0 	ldr	x0, [sp, #168]
    4b2c:	b4000060 	cbz	x0, 4b38 <nsh_newconsole+0x1438>
    4b30:	94000000 	bl	698c <nsh_freefullpath>	4b30: R_AARCH64_CALL26	nsh_freefullpath
    4b34:	390a8a7b 	strb	w27, [x19, #674]
    4b38:	52800014 	mov	w20, #0x0                   	// #0
    4b3c:	6b17029f 	cmp	w20, w23
    4b40:	540008eb 	b.lt	4c5c <nsh_newconsole+0x155c>  // b.tstop
    4b44:	910463f3 	add	x19, sp, #0x118
    4b48:	52800014 	mov	w20, #0x0                   	// #0
    4b4c:	b9411be0 	ldr	w0, [sp, #280]
    4b50:	91002273 	add	x19, x19, #0x8
    4b54:	6b00029f 	cmp	w20, w0
    4b58:	5400096b 	b.lt	4c84 <nsh_newconsole+0x1584>  // b.tstop
    4b5c:	f9402bfc 	ldr	x28, [sp, #80]
    4b60:	2a1503e0 	mov	w0, w21
    4b64:	a94157f4 	ldp	x20, x21, [sp, #16]
    4b68:	a9425ff6 	ldp	x22, x23, [sp, #32]
    4b6c:	a94367f8 	ldp	x24, x25, [sp, #48]
    4b70:	a9446ffa 	ldp	x26, x27, [sp, #64]
    4b74:	a8da4ffe 	ldp	x30, x19, [sp], #416
    4b78:	d65f03c0 	ret
    4b7c:	39400060 	ldrb	w0, [x3]
    4b80:	7100f81f 	cmp	w0, #0x3e
    4b84:	54000241 	b.ne	4bcc <nsh_newconsole+0x14cc>  // b.any
    4b88:	39400460 	ldrb	w0, [x3, #1]
    4b8c:	340000e0 	cbz	w0, 4ba8 <nsh_newconsole+0x14a8>
    4b90:	91000461 	add	x1, x3, #0x1
    4b94:	52800020 	mov	w0, #0x1                   	// #1
    4b98:	394a8678 	ldrb	w24, [x19, #673]
    4b9c:	390a8660 	strb	w0, [x19, #673]
    4ba0:	528004c0 	mov	w0, #0x26                  	// #38
    4ba4:	17ffff9f 	b	4a20 <nsh_newconsole+0x1320>
    4ba8:	9101e3e1 	add	x1, sp, #0x78
    4bac:	910203e4 	add	x4, sp, #0x80
    4bb0:	910463e2 	add	x2, sp, #0x118
    4bb4:	aa1303e0 	mov	x0, x19
    4bb8:	d2800003 	mov	x3, #0x0                   	// #0
    4bbc:	94000000 	bl	0 <memcpy>	4bbc: R_AARCH64_CALL26	.text+0x3cd4
    4bc0:	aa0003e1 	mov	x1, x0
    4bc4:	b5fffe80 	cbnz	x0, 4b94 <nsh_newconsole+0x1494>
    4bc8:	17ffffcd 	b	4afc <nsh_newconsole+0x13fc>
    4bcc:	7100f01f 	cmp	w0, #0x3c
    4bd0:	540002c1 	b.ne	4c28 <nsh_newconsole+0x1528>  // b.any
    4bd4:	39400460 	ldrb	w0, [x3, #1]
    4bd8:	34000160 	cbz	w0, 4c04 <nsh_newconsole+0x1504>
    4bdc:	91000461 	add	x1, x3, #0x1
    4be0:	394a8a7b 	ldrb	w27, [x19, #674]
    4be4:	52800020 	mov	w0, #0x1                   	// #1
    4be8:	390a8a60 	strb	w0, [x19, #674]
    4bec:	52800020 	mov	w0, #0x1                   	// #1
    4bf0:	b900a3e0 	str	w0, [sp, #160]
    4bf4:	aa1303e0 	mov	x0, x19
    4bf8:	94000000 	bl	68fc <nsh_getfullpath>	4bf8: R_AARCH64_CALL26	nsh_getfullpath
    4bfc:	f90057e0 	str	x0, [sp, #168]
    4c00:	17ffff8c 	b	4a30 <nsh_newconsole+0x1330>
    4c04:	9101e3e1 	add	x1, sp, #0x78
    4c08:	910203e4 	add	x4, sp, #0x80
    4c0c:	910463e2 	add	x2, sp, #0x118
    4c10:	aa1303e0 	mov	x0, x19
    4c14:	d2800003 	mov	x3, #0x0                   	// #0
    4c18:	94000000 	bl	0 <memcpy>	4c18: R_AARCH64_CALL26	.text+0x3cd4
    4c1c:	aa0003e1 	mov	x1, x0
    4c20:	b5fffe00 	cbnz	x0, 4be0 <nsh_newconsole+0x14e0>
    4c24:	17ffffb6 	b	4afc <nsh_newconsole+0x13fc>
    4c28:	110006b5 	add	w21, w21, #0x1
    4c2c:	17ffff81 	b	4a30 <nsh_newconsole+0x1330>
    4c30:	710006bf 	cmp	w21, #0x1
    4c34:	54fff02c 	b.gt	4a38 <nsh_newconsole+0x1338>
    4c38:	2a1503e1 	mov	w1, w21
    4c3c:	910263e3 	add	x3, sp, #0x98
    4c40:	aa1903e2 	mov	x2, x25
    4c44:	aa1303e0 	mov	x0, x19
    4c48:	94000000 	bl	0 <memcpy>	4c48: R_AARCH64_CALL26	.text+0x3a24
    4c4c:	2a0003f5 	mov	w21, w0
    4c50:	17ffffb2 	b	4b18 <nsh_newconsole+0x1418>
    4c54:	2a1803fb 	mov	w27, w24
    4c58:	17fffef2 	b	4820 <nsh_newconsole+0x1120>
    4c5c:	394062c0 	ldrb	w0, [x22, #24]
    4c60:	121f7801 	and	w1, w0, #0xfffffffe
    4c64:	390062c1 	strb	w1, [x22, #24]
    4c68:	36080080 	tbz	w0, #1, 4c78 <nsh_newconsole+0x1578>
    4c6c:	aa1603e1 	mov	x1, x22
    4c70:	aa1303e0 	mov	x0, x19
    4c74:	94000000 	bl	5444 <nsh_aliasfree>	4c74: R_AARCH64_CALL26	nsh_aliasfree
    4c78:	11000694 	add	w20, w20, #0x1
    4c7c:	d2800016 	mov	x22, #0x0                   	// #0
    4c80:	17ffffaf 	b	4b3c <nsh_newconsole+0x143c>
    4c84:	f9400260 	ldr	x0, [x19]
    4c88:	11000694 	add	w20, w20, #0x1
    4c8c:	94000000 	bl	b598 <free>	4c8c: R_AARCH64_CALL26	free
    4c90:	f900027f 	str	xzr, [x19]
    4c94:	17ffffae 	b	4b4c <nsh_newconsole+0x144c>

0000000000004c98 <nsh_parse>:
nsh_parse():
    4c98:	a9ba4ffe 	stp	x30, x19, [sp, #-96]!
    4c9c:	aa0103f3 	mov	x19, x1
    4ca0:	a9025ff6 	stp	x22, x23, [sp, #32]
    4ca4:	910a8017 	add	x23, x0, #0x2a0
    4ca8:	aa0103f6 	mov	x22, x1
    4cac:	a90157f4 	stp	x20, x21, [sp, #16]
    4cb0:	aa0003f5 	mov	x21, x0
    4cb4:	a90367f8 	stp	x24, x25, [sp, #48]
    4cb8:	90000018 	adrp	x24, ebb8 <_srodata>	4cb8: R_AARCH64_ADR_PREL_PG_HI21	.rodata+0x5ed
    4cbc:	92808039 	mov	x25, #0xfffffffffffffbfe    	// #-1026
    4cc0:	91000318 	add	x24, x24, #0x0	4cc0: R_AARCH64_ADD_ABS_LO12_NC	.rodata+0x5ed
    4cc4:	f90023fa 	str	x26, [sp, #64]
    4cc8:	aa0103fa 	mov	x26, x1
    4ccc:	f2dffef9 	movk	x25, #0xfff7, lsl #32
    4cd0:	39010aff 	strb	wzr, [x23, #66]
    4cd4:	39410ae0 	ldrb	w0, [x23, #66]
    4cd8:	36000060 	tbz	w0, #0, 4ce4 <nsh_parse+0x4c>
    4cdc:	52800000 	mov	w0, #0x0                   	// #0
    4ce0:	14000035 	b	4db4 <nsh_parse+0x11c>
    4ce4:	cb160260 	sub	x0, x19, x22
    4ce8:	790082e0 	strh	w0, [x23, #64]
    4cec:	aa1803e1 	mov	x1, x24
    4cf0:	aa1303e0 	mov	x0, x19
    4cf4:	94000000 	bl	dab8 <strcspn>	4cf4: R_AARCH64_CALL26	strcspn
    4cf8:	38606a61 	ldrb	w1, [x19, x0]
    4cfc:	8b000274 	add	x20, x19, x0
    4d00:	71008c3f 	cmp	w1, #0x23
    4d04:	54000189 	b.ls	4d34 <nsh_parse+0x9c>  // b.plast
    4d08:	7100ec3f 	cmp	w1, #0x3b
    4d0c:	54000281 	b.ne	4d5c <nsh_parse+0xc4>  // b.any
    4d10:	38206a7f 	strb	wzr, [x19, x0]
    4d14:	91000694 	add	x20, x20, #0x1
    4d18:	aa1a03e1 	mov	x1, x26
    4d1c:	aa1503e0 	mov	x0, x21
    4d20:	94000000 	bl	0 <memcpy>	4d20: R_AARCH64_CALL26	.text+0x419c
    4d24:	35000480 	cbnz	w0, 4db4 <nsh_parse+0x11c>
    4d28:	aa1403f3 	mov	x19, x20
    4d2c:	aa1403fa 	mov	x26, x20
    4d30:	17ffffe9 	b	4cd4 <nsh_parse+0x3c>
    4d34:	9ac12b20 	asr	x0, x25, x1
    4d38:	37000120 	tbnz	w0, #0, 4d5c <nsh_parse+0xc4>
    4d3c:	a9425ff6 	ldp	x22, x23, [sp, #32]
    4d40:	aa1a03e1 	mov	x1, x26
    4d44:	f94023fa 	ldr	x26, [sp, #64]
    4d48:	aa1503e0 	mov	x0, x21
    4d4c:	a94367f8 	ldp	x24, x25, [sp, #48]
    4d50:	a94157f4 	ldp	x20, x21, [sp, #16]
    4d54:	a8c64ffe 	ldp	x30, x19, [sp], #96
    4d58:	14000000 	b	0 <memcpy>	4d58: R_AARCH64_JUMP26	.text+0x419c
    4d5c:	d1000680 	sub	x0, x20, #0x1
    4d60:	eb00035f 	cmp	x26, x0
    4d64:	540000e8 	b.hi	4d80 <nsh_parse+0xe8>  // b.pmore
    4d68:	385ff280 	ldurb	w0, [x20, #-1]
    4d6c:	7101701f 	cmp	w0, #0x5c
    4d70:	54000081 	b.ne	4d80 <nsh_parse+0xe8>  // b.any
    4d74:	91000673 	add	x19, x19, #0x1
    4d78:	aa1a03f4 	mov	x20, x26
    4d7c:	17ffffec 	b	4d2c <nsh_parse+0x94>
    4d80:	91000680 	add	x0, x20, #0x1
    4d84:	94000000 	bl	0 <memcpy>	4d84: R_AARCH64_CALL26	.text+0x3854
    4d88:	b5000220 	cbnz	x0, 4dcc <nsh_parse+0x134>
    4d8c:	f9401aa4 	ldr	x4, [x21, #48]
    4d90:	910163e3 	add	x3, sp, #0x58
    4d94:	aa0303e2 	mov	x2, x3
    4d98:	aa1503e0 	mov	x0, x21
    4d9c:	390163e1 	strb	w1, [sp, #88]
    4da0:	90000001 	adrp	x1, f11e <g_fmtnomatching>	4da0: R_AARCH64_ADR_PREL_PG_HI21	g_fmtnomatching
    4da4:	91000021 	add	x1, x1, #0x0	4da4: R_AARCH64_ADD_ABS_LO12_NC	g_fmtnomatching
    4da8:	390167ff 	strb	wzr, [sp, #89]
    4dac:	d63f0080 	blr	x4
    4db0:	12800000 	mov	w0, #0xffffffff            	// #-1
    4db4:	f94023fa 	ldr	x26, [sp, #64]
    4db8:	a94157f4 	ldp	x20, x21, [sp, #16]
    4dbc:	a9425ff6 	ldp	x22, x23, [sp, #32]
    4dc0:	a94367f8 	ldp	x24, x25, [sp, #48]
    4dc4:	a8c64ffe 	ldp	x30, x19, [sp], #96
    4dc8:	d65f03c0 	ret
    4dcc:	91000413 	add	x19, x0, #0x1
    4dd0:	17ffffea 	b	4d78 <nsh_parse+0xe0>

0000000000004dd4 <cmd_break>:
cmd_break():
    4dd4:	910a8002 	add	x2, x0, #0x2a0
    4dd8:	394b8c00 	ldrb	w0, [x0, #739]
    4ddc:	91001000 	add	x0, x0, #0x4
    4de0:	8b001040 	add	x0, x2, x0, lsl #4
    4de4:	f9400401 	ldr	x1, [x0, #8]
    4de8:	53061c21 	ubfx	w1, w1, #6, #2
    4dec:	71000c3f 	cmp	w1, #0x3
    4df0:	540000c1 	b.ne	4e08 <cmd_break+0x34>  // b.any
    4df4:	39402401 	ldrb	w1, [x0, #9]
    4df8:	39011041 	strb	w1, [x2, #68]
    4dfc:	39402001 	ldrb	w1, [x0, #8]
    4e00:	121f7821 	and	w1, w1, #0xfffffffe
    4e04:	39002001 	strb	w1, [x0, #8]
    4e08:	52800000 	mov	w0, #0x0                   	// #0
    4e0c:	d65f03c0 	ret

0000000000004e10 <nsh_script>:
nsh_script():
    4e10:	a9bb4ffe 	stp	x30, x19, [sp, #-80]!
    4e14:	aa0003f3 	mov	x19, x0
    4e18:	a90157f4 	stp	x20, x21, [sp, #16]
    4e1c:	aa0103f4 	mov	x20, x1
    4e20:	aa0203e1 	mov	x1, x2
    4e24:	a9025ff6 	stp	x22, x23, [sp, #32]
    4e28:	a90367f8 	stp	x24, x25, [sp, #48]
    4e2c:	f90023fa 	str	x26, [sp, #64]
    4e30:	12001c7a 	and	w26, w3, #0xff
    4e34:	94000000 	bl	68fc <nsh_getfullpath>	4e34: R_AARCH64_CALL26	nsh_getfullpath
    4e38:	b40008c0 	cbz	x0, 4f50 <nsh_script+0x140>
    4e3c:	f9402261 	ldr	x1, [x19, #64]
    4e40:	aa0003f6 	mov	x22, x0
    4e44:	aa1303e0 	mov	x0, x19
    4e48:	d63f0020 	blr	x1
    4e4c:	aa0003f5 	mov	x21, x0
    4e50:	b4000a40 	cbz	x0, 4f98 <nsh_script+0x188>
    4e54:	b942d279 	ldr	w25, [x19, #720]
    4e58:	aa1603e0 	mov	x0, x22
    4e5c:	52808021 	mov	w1, #0x401                 	// #1025
    4e60:	94000000 	bl	e9c0 <open>	4e60: R_AARCH64_CALL26	open
    4e64:	b902d260 	str	w0, [x19, #720]
    4e68:	37f80580 	tbnz	w0, #31, 4f18 <nsh_script+0x108>
    4e6c:	90000017 	adrp	x23, ebb8 <_srodata>	4e6c: R_AARCH64_ADR_PREL_PG_HI21	.rodata+0x600
    4e70:	90000018 	adrp	x24, ebb8 <_srodata>	4e70: R_AARCH64_ADR_PREL_PG_HI21	.rodata+0x606
    4e74:	910002f7 	add	x23, x23, #0x0	4e74: R_AARCH64_ADD_ABS_LO12_NC	.rodata+0x600
    4e78:	91000318 	add	x24, x24, #0x0	4e78: R_AARCH64_ADD_ABS_LO12_NC	.rodata+0x606
    4e7c:	b942d260 	ldr	w0, [x19, #720]
    4e80:	52800022 	mov	w2, #0x1                   	// #1
    4e84:	52800001 	mov	w1, #0x0                   	// #0
    4e88:	94000000 	bl	e90c <lseek>	4e88: R_AARCH64_CALL26	lseek
    4e8c:	93407c00 	sxtw	x0, w0
    4e90:	f9016e60 	str	x0, [x19, #728]
    4e94:	7905c27f 	strh	wzr, [x19, #736]
    4e98:	b6f80160 	tbz	x0, #63, 4ec4 <nsh_script+0xb4>
    4e9c:	3600015a 	tbz	w26, #0, 4ec4 <nsh_script+0xb4>
    4ea0:	f9401a74 	ldr	x20, [x19, #48]
    4ea4:	94000000 	bl	2454 <__errno>	4ea4: R_AARCH64_CALL26	__errno
    4ea8:	b9400004 	ldr	w4, [x0]
    4eac:	90000001 	adrp	x1, f03d <g_fmtcmdfailed>	4eac: R_AARCH64_ADR_PREL_PG_HI21	g_fmtcmdfailed
    4eb0:	aa1703e3 	mov	x3, x23
    4eb4:	aa1803e2 	mov	x2, x24
    4eb8:	91000021 	add	x1, x1, #0x0	4eb8: R_AARCH64_ADD_ABS_LO12_NC	g_fmtcmdfailed
    4ebc:	aa1303e0 	mov	x0, x19
    4ec0:	d63f0280 	blr	x20
    4ec4:	b942d262 	ldr	w2, [x19, #720]
    4ec8:	aa1503e0 	mov	x0, x21
    4ecc:	12800003 	mov	w3, #0xffffffff            	// #-1
    4ed0:	52800a01 	mov	w1, #0x50                  	// #80
    4ed4:	94000000 	bl	33b0 <readline_fd>	4ed4: R_AARCH64_CALL26	readline_fd
    4ed8:	2a0003f4 	mov	w20, w0
    4edc:	37f80520 	tbnz	w0, #31, 4f80 <nsh_script+0x170>
    4ee0:	394b2260 	ldrb	w0, [x19, #712]
    4ee4:	370800e0 	tbnz	w0, #1, 4f00 <nsh_script+0xf0>
    4ee8:	f9401e63 	ldr	x3, [x19, #56]
    4eec:	90000001 	adrp	x1, ebb8 <_srodata>	4eec: R_AARCH64_ADR_PREL_PG_HI21	.rodata+0x60b
    4ef0:	aa1503e2 	mov	x2, x21
    4ef4:	91000021 	add	x1, x1, #0x0	4ef4: R_AARCH64_ADD_ABS_LO12_NC	.rodata+0x60b
    4ef8:	aa1303e0 	mov	x0, x19
    4efc:	d63f0060 	blr	x3
    4f00:	394b2260 	ldrb	w0, [x19, #712]
    4f04:	aa1503e1 	mov	x1, x21
    4f08:	36000340 	tbz	w0, #0, 4f70 <nsh_script+0x160>
    4f0c:	aa1303e0 	mov	x0, x19
    4f10:	94000000 	bl	4c98 <nsh_parse>	4f10: R_AARCH64_CALL26	nsh_parse
    4f14:	17ffffda 	b	4e7c <nsh_script+0x6c>
    4f18:	3600017a 	tbz	w26, #0, 4f44 <nsh_script+0x134>
    4f1c:	f9401a75 	ldr	x21, [x19, #48]
    4f20:	94000000 	bl	2454 <__errno>	4f20: R_AARCH64_CALL26	__errno
    4f24:	b9400004 	ldr	w4, [x0]
    4f28:	90000003 	adrp	x3, ebb8 <_srodata>	4f28: R_AARCH64_ADR_PREL_PG_HI21	.rodata+0x5fb
    4f2c:	90000001 	adrp	x1, f03d <g_fmtcmdfailed>	4f2c: R_AARCH64_ADR_PREL_PG_HI21	g_fmtcmdfailed
    4f30:	91000063 	add	x3, x3, #0x0	4f30: R_AARCH64_ADD_ABS_LO12_NC	.rodata+0x5fb
    4f34:	aa1403e2 	mov	x2, x20
    4f38:	91000021 	add	x1, x1, #0x0	4f38: R_AARCH64_ADD_ABS_LO12_NC	g_fmtcmdfailed
    4f3c:	aa1303e0 	mov	x0, x19
    4f40:	d63f02a0 	blr	x21
    4f44:	aa1603e0 	mov	x0, x22
    4f48:	94000000 	bl	698c <nsh_freefullpath>	4f48: R_AARCH64_CALL26	nsh_freefullpath
    4f4c:	b902d279 	str	w25, [x19, #720]
    4f50:	12800014 	mov	w20, #0xffffffff            	// #-1
    4f54:	f94023fa 	ldr	x26, [sp, #64]
    4f58:	2a1403e0 	mov	w0, w20
    4f5c:	a94157f4 	ldp	x20, x21, [sp, #16]
    4f60:	a9425ff6 	ldp	x22, x23, [sp, #32]
    4f64:	a94367f8 	ldp	x24, x25, [sp, #48]
    4f68:	a8c54ffe 	ldp	x30, x19, [sp], #80
    4f6c:	d65f03c0 	ret
    4f70:	aa1303e0 	mov	x0, x19
    4f74:	94000000 	bl	4c98 <nsh_parse>	4f74: R_AARCH64_CALL26	nsh_parse
    4f78:	2a0003f4 	mov	w20, w0
    4f7c:	36fff800 	tbz	w0, #31, 4e7c <nsh_script+0x6c>
    4f80:	b942d260 	ldr	w0, [x19, #720]
    4f84:	94000000 	bl	e814 <close>	4f84: R_AARCH64_CALL26	close
    4f88:	b902d279 	str	w25, [x19, #720]
    4f8c:	aa1603e0 	mov	x0, x22
    4f90:	94000000 	bl	698c <nsh_freefullpath>	4f90: R_AARCH64_CALL26	nsh_freefullpath
    4f94:	17fffff0 	b	4f54 <nsh_script+0x144>
    4f98:	12800014 	mov	w20, #0xffffffff            	// #-1
    4f9c:	17fffffc 	b	4f8c <nsh_script+0x17c>

0000000000004fa0 <readline_common>:
readline_common():
    4fa0:	a9bb4ffe 	stp	x30, x19, [sp, #-80]!
    4fa4:	f100003f 	cmp	x1, #0x0
    4fa8:	7a401844 	ccmp	w2, #0x0, #0x4, ne	// ne = any
    4fac:	a90157f4 	stp	x20, x21, [sp, #16]
    4fb0:	a9025ff6 	stp	x22, x23, [sp, #32]
    4fb4:	a90367f8 	stp	x24, x25, [sp, #48]
    4fb8:	f90023fa 	str	x26, [sp, #64]
    4fbc:	540000ec 	b.gt	4fd8 <readline_common+0x38>
    4fc0:	90000002 	adrp	x2, ebb8 <_srodata>	4fc0: R_AARCH64_ADR_PREL_PG_HI21	.rodata+0x60e
    4fc4:	90000000 	adrp	x0, ebb8 <_srodata>	4fc4: R_AARCH64_ADR_PREL_PG_HI21	.rodata+0x620
    4fc8:	91000042 	add	x2, x2, #0x0	4fc8: R_AARCH64_ADD_ABS_LO12_NC	.rodata+0x60e
    4fcc:	91000000 	add	x0, x0, #0x0	4fcc: R_AARCH64_ADD_ABS_LO12_NC	.rodata+0x620
    4fd0:	52803ce1 	mov	w1, #0x1e7                 	// #487
    4fd4:	94000000 	bl	2444 <__assert>	4fd4: R_AARCH64_CALL26	__assert
    4fd8:	aa0103f5 	mov	x21, x1
    4fdc:	2a0203f6 	mov	w22, w2
    4fe0:	7100045f 	cmp	w2, #0x1
    4fe4:	54000121 	b.ne	5008 <readline_common+0x68>  // b.any
    4fe8:	d2800000 	mov	x0, #0x0                   	// #0
    4fec:	3900003f 	strb	wzr, [x1]
    4ff0:	f94023fa 	ldr	x26, [sp, #64]
    4ff4:	a94157f4 	ldp	x20, x21, [sp, #16]
    4ff8:	a9425ff6 	ldp	x22, x23, [sp, #32]
    4ffc:	a94367f8 	ldp	x24, x25, [sp, #48]
    5000:	a8c54ffe 	ldp	x30, x19, [sp], #80
    5004:	d65f03c0 	ret
    5008:	f9400803 	ldr	x3, [x0, #16]
    500c:	90000017 	adrp	x23, ebb8 <_srodata>	500c: R_AARCH64_ADR_PREL_PG_HI21	.rodata+0x632
    5010:	910002f7 	add	x23, x23, #0x0	5010: R_AARCH64_ADD_ABS_LO12_NC	.rodata+0x632
    5014:	90000019 	adrp	x25, 2c8 <memcmp+0x48>	5014: R_AARCH64_ADR_PREL_PG_HI21	.bss+0x4
    5018:	aa0003f4 	mov	x20, x0
    501c:	aa1703e1 	mov	x1, x23
    5020:	91000339 	add	x25, x25, #0x0	5020: R_AARCH64_ADD_ABS_LO12_NC	.bss+0x4
    5024:	d2800062 	mov	x2, #0x3                   	// #3
    5028:	52800013 	mov	w19, #0x0                   	// #0
    502c:	5280001a 	mov	w26, #0x0                   	// #0
    5030:	d63f0060 	blr	x3
    5034:	f9400281 	ldr	x1, [x20]
    5038:	aa1403e0 	mov	x0, x20
    503c:	d63f0020 	blr	x1
    5040:	2a0003f8 	mov	w24, w0
    5044:	3100041f 	cmn	w0, #0x1
    5048:	54000181 	b.ne	5078 <readline_common+0xd8>  // b.any
    504c:	7100027f 	cmp	w19, #0x0
    5050:	5400132d 	b.le	52b4 <readline_common+0x314>
    5054:	93407e60 	sxtw	x0, w19
    5058:	38206abf 	strb	wzr, [x21, x0]
    505c:	17ffffe5 	b	4ff0 <readline_common+0x50>
    5060:	5280005a 	mov	w26, #0x2                   	// #2
    5064:	17fffff4 	b	5034 <readline_common+0x94>
    5068:	5280003a 	mov	w26, #0x1                   	// #1
    506c:	17fffff2 	b	5034 <readline_common+0x94>
    5070:	2a0303f3 	mov	w19, w3
    5074:	17fffff0 	b	5034 <readline_common+0x94>
    5078:	3400085a 	cbz	w26, 5180 <readline_common+0x1e0>
    507c:	71016c1f 	cmp	w0, #0x5b
    5080:	7a420b44 	ccmp	w26, #0x2, #0x4, eq	// eq = none
    5084:	54fffee1 	b.ne	5060 <readline_common+0xc0>  // b.any
    5088:	b9450b22 	ldr	w2, [x25, #1288]
    508c:	7100005f 	cmp	w2, #0x0
    5090:	540003cd 	b.le	5108 <readline_common+0x168>
    5094:	7101041f 	cmp	w0, #0x41
    5098:	540003c1 	b.ne	5110 <readline_common+0x170>  // b.any
    509c:	b9450720 	ldr	w0, [x25, #1284]
    50a0:	52800021 	mov	w1, #0x1                   	// #1
    50a4:	4b000023 	sub	w3, w1, w0
    50a8:	4b020021 	sub	w1, w1, w2
    50ac:	51000400 	sub	w0, w0, #0x1
    50b0:	6b03005f 	cmp	w2, w3
    50b4:	1a81c000 	csel	w0, w0, w1, gt
    50b8:	b9050720 	str	w0, [x25, #1284]
    50bc:	2a1303f8 	mov	w24, w19
    50c0:	7100031f 	cmp	w24, #0x0
    50c4:	5400034c 	b.gt	512c <readline_common+0x18c>
    50c8:	0ab37e60 	bic	w0, w19, w19, asr #31
    50cc:	4b000273 	sub	w19, w19, w0
    50d0:	b9450720 	ldr	w0, [x25, #1284]
    50d4:	7100041f 	cmp	w0, #0x1
    50d8:	54000180 	b.eq	5108 <readline_common+0x168>  // b.none
    50dc:	b9450321 	ldr	w1, [x25, #1280]
    50e0:	2b010000 	adds	w0, w0, w1
    50e4:	540003a5 	b.pl	5158 <readline_common+0x1b8>  // b.nfrst
    50e8:	11004000 	add	w0, w0, #0x10
    50ec:	52800a01 	mov	w1, #0x50                  	// #80
    50f0:	93407e78 	sxtw	x24, w19
    50f4:	9b216413 	smaddl	x19, w0, w1, x25
    50f8:	38401661 	ldrb	w1, [x19], #1
    50fc:	35000361 	cbnz	w1, 5168 <readline_common+0x1c8>
    5100:	2a1803f3 	mov	w19, w24
    5104:	38386abf 	strb	wzr, [x21, x24]
    5108:	5280001a 	mov	w26, #0x0                   	// #0
    510c:	17ffffca 	b	5034 <readline_common+0x94>
    5110:	7101081f 	cmp	w0, #0x42
    5114:	54fffd41 	b.ne	50bc <readline_common+0x11c>  // b.any
    5118:	b9450720 	ldr	w0, [x25, #1284]
    511c:	11000400 	add	w0, w0, #0x1
    5120:	7100081f 	cmp	w0, #0x2
    5124:	1a9fb400 	csinc	w0, w0, wzr, lt	// lt = tstop
    5128:	17ffffe4 	b	50b8 <readline_common+0x118>
    512c:	f9400682 	ldr	x2, [x20, #8]
    5130:	aa1403e0 	mov	x0, x20
    5134:	52800101 	mov	w1, #0x8                   	// #8
    5138:	51000718 	sub	w24, w24, #0x1
    513c:	d63f0040 	blr	x2
    5140:	f9400a83 	ldr	x3, [x20, #16]
    5144:	aa1703e1 	mov	x1, x23
    5148:	aa1403e0 	mov	x0, x20
    514c:	d2800062 	mov	x2, #0x3                   	// #3
    5150:	d63f0060 	blr	x3
    5154:	17ffffdb 	b	50c0 <readline_common+0x120>
    5158:	71003c1f 	cmp	w0, #0xf
    515c:	54fffc8d 	b.le	50ec <readline_common+0x14c>
    5160:	51004000 	sub	w0, w0, #0x10
    5164:	17ffffe2 	b	50ec <readline_common+0x14c>
    5168:	38386aa1 	strb	w1, [x21, x24]
    516c:	aa1403e0 	mov	x0, x20
    5170:	91000718 	add	x24, x24, #0x1
    5174:	f9400682 	ldr	x2, [x20, #8]
    5178:	d63f0040 	blr	x2
    517c:	17ffffdf 	b	50f8 <readline_common+0x158>
    5180:	7101fc1f 	cmp	w0, #0x7f
    5184:	7a481804 	ccmp	w0, #0x8, #0x4, ne	// ne = any
    5188:	540001c1 	b.ne	51c0 <readline_common+0x220>  // b.any
    518c:	7100027f 	cmp	w19, #0x0
    5190:	54fff52d 	b.le	5034 <readline_common+0x94>
    5194:	f9400682 	ldr	x2, [x20, #8]
    5198:	aa1403e0 	mov	x0, x20
    519c:	52800101 	mov	w1, #0x8                   	// #8
    51a0:	51000673 	sub	w19, w19, #0x1
    51a4:	d63f0040 	blr	x2
    51a8:	f9400a83 	ldr	x3, [x20, #16]
    51ac:	aa1703e1 	mov	x1, x23
    51b0:	aa1403e0 	mov	x0, x20
    51b4:	d2800062 	mov	x2, #0x3                   	// #3
    51b8:	d63f0060 	blr	x3
    51bc:	17ffff9e 	b	5034 <readline_common+0x94>
    51c0:	71006c1f 	cmp	w0, #0x1b
    51c4:	54fff520 	b.eq	5068 <readline_common+0xc8>  // b.none
    51c8:	7100281f 	cmp	w0, #0xa
    51cc:	54000601 	b.ne	528c <readline_common+0x2ec>  // b.any
    51d0:	11000660 	add	w0, w19, #0x1
    51d4:	93407c14 	sxtw	x20, w0
    51d8:	7100027f 	cmp	w19, #0x0
    51dc:	540004ed 	b.le	5278 <readline_common+0x2d8>
    51e0:	90000016 	adrp	x22, 2c8 <memcmp+0x48>	51e0: R_AARCH64_ADR_PREL_PG_HI21	.bss+0x4
    51e4:	910002d6 	add	x22, x22, #0x0	51e4: R_AARCH64_ADD_ABS_LO12_NC	.bss+0x4
    51e8:	52800a18 	mov	w24, #0x50                  	// #80
    51ec:	aa1403e2 	mov	x2, x20
    51f0:	aa1503e0 	mov	x0, x21
    51f4:	b94502d7 	ldr	w23, [x22, #1280]
    51f8:	9b385ae1 	smaddl	x1, w23, w24, x22
    51fc:	94000000 	bl	a9c <strncmp>	51fc: R_AARCH64_CALL26	strncmp
    5200:	34000380 	cbz	w0, 5270 <readline_common+0x2d0>
    5204:	110006e1 	add	w1, w23, #0x1
    5208:	d10006a3 	sub	x3, x21, #0x1
    520c:	6b0103e0 	negs	w0, w1
    5210:	12000c21 	and	w1, w1, #0xf
    5214:	12000c00 	and	w0, w0, #0xf
    5218:	5a804420 	csneg	w0, w1, w0, mi	// mi = first
    521c:	92800001 	mov	x1, #0xffffffffffffffff    	// #-1
    5220:	b90502c0 	str	w0, [x22, #1280]
    5224:	9b380418 	smaddl	x24, w0, w24, x1
    5228:	d2800021 	mov	x1, #0x1                   	// #1
    522c:	8b160318 	add	x24, x24, x22
    5230:	38616862 	ldrb	w2, [x3, x1]
    5234:	f1013c3f 	cmp	x1, #0x4f
    5238:	38216b02 	strb	w2, [x24, x1]
    523c:	7a411264 	ccmp	w19, w1, #0x4, ne	// ne = any
    5240:	aa0103e2 	mov	x2, x1
    5244:	91000421 	add	x1, x1, #0x1
    5248:	54ffff4c 	b.gt	5230 <readline_common+0x290>
    524c:	93407c00 	sxtw	x0, w0
    5250:	d2800a01 	mov	x1, #0x50                  	// #80
    5254:	9b015800 	madd	x0, x0, x1, x22
    5258:	3822c81f 	strb	wzr, [x0, w2, sxtw]
    525c:	b9450ac0 	ldr	w0, [x22, #1288]
    5260:	71003c1f 	cmp	w0, #0xf
    5264:	5400006c 	b.gt	5270 <readline_common+0x2d0>
    5268:	11000400 	add	w0, w0, #0x1
    526c:	b9050ac0 	str	w0, [x22, #1288]
    5270:	52800020 	mov	w0, #0x1                   	// #1
    5274:	b90506c0 	str	w0, [x22, #1284]
    5278:	52800140 	mov	w0, #0xa                   	// #10
    527c:	3833caa0 	strb	w0, [x21, w19, sxtw]
    5280:	aa1403e0 	mov	x0, x20
    5284:	38346abf 	strb	wzr, [x21, x20]
    5288:	17ffff5a 	b	4ff0 <readline_common+0x50>
    528c:	12001c00 	and	w0, w0, #0xff
    5290:	94000000 	bl	ca28 <iscntrl>	5290: R_AARCH64_CALL26	iscntrl
    5294:	35ffed00 	cbnz	w0, 5034 <readline_common+0x94>
    5298:	11000663 	add	w3, w19, #0x1
    529c:	3833cab8 	strb	w24, [x21, w19, sxtw]
    52a0:	11000a73 	add	w19, w19, #0x2
    52a4:	6b16027f 	cmp	w19, w22
    52a8:	54ffee4b 	b.lt	5070 <readline_common+0xd0>  // b.tstop
    52ac:	93407c60 	sxtw	x0, w3
    52b0:	17ffff6a 	b	5058 <readline_common+0xb8>
    52b4:	92800000 	mov	x0, #0xffffffffffffffff    	// #-1
    52b8:	17ffff4e 	b	4ff0 <readline_common+0x50>
    52bc:	b40006e1 	cbz	x1, 5398 <readline_common+0x3f8>
    52c0:	a9be4ffe 	stp	x30, x19, [sp, #-32]!
    52c4:	aa0103f3 	mov	x19, x1
    52c8:	f9000bf4 	str	x20, [sp, #16]
    52cc:	aa0003f4 	mov	x20, x0
    52d0:	39406020 	ldrb	w0, [x1, #24]
    52d4:	360000c0 	tbz	w0, #0, 52ec <readline_common+0x34c>
    52d8:	321f0000 	orr	w0, w0, #0x2
    52dc:	39006020 	strb	w0, [x1, #24]
    52e0:	f9400bf4 	ldr	x20, [sp, #16]
    52e4:	a8c24ffe 	ldp	x30, x19, [sp], #32
    52e8:	d65f03c0 	ret
    52ec:	f9400420 	ldr	x0, [x1, #8]
    52f0:	b4000040 	cbz	x0, 52f8 <readline_common+0x358>
    52f4:	94000000 	bl	b598 <free>	52f4: R_AARCH64_CALL26	free
    52f8:	f9400a60 	ldr	x0, [x19, #16]
    52fc:	b4000040 	cbz	x0, 5304 <readline_common+0x364>
    5300:	94000000 	bl	b598 <free>	5300: R_AARCH64_CALL26	free
    5304:	a900fe7f 	stp	xzr, xzr, [x19, #8]
    5308:	3900627f 	strb	wzr, [x19, #24]
    530c:	f9414280 	ldr	x0, [x20, #640]
    5310:	b4000120 	cbz	x0, 5334 <readline_common+0x394>
    5314:	eb00027f 	cmp	x19, x0
    5318:	540001e1 	b.ne	5354 <readline_common+0x3b4>  // b.any
    531c:	f9400260 	ldr	x0, [x19]
    5320:	f9014280 	str	x0, [x20, #640]
    5324:	f9414680 	ldr	x0, [x20, #648]
    5328:	eb00027f 	cmp	x19, x0
    532c:	54000101 	b.ne	534c <readline_common+0x3ac>  // b.any
    5330:	f901469f 	str	xzr, [x20, #648]
    5334:	f9414a80 	ldr	x0, [x20, #656]
    5338:	f9000260 	str	x0, [x19]
    533c:	b5000040 	cbnz	x0, 5344 <readline_common+0x3a4>
    5340:	f9014e93 	str	x19, [x20, #664]
    5344:	f9014a93 	str	x19, [x20, #656]
    5348:	17ffffe6 	b	52e0 <readline_common+0x340>
    534c:	f900027f 	str	xzr, [x19]
    5350:	17fffff9 	b	5334 <readline_common+0x394>
    5354:	f9400002 	ldr	x2, [x0]
    5358:	eb02027f 	cmp	x19, x2
    535c:	54000141 	b.ne	5384 <readline_common+0x3e4>  // b.any
    5360:	f9414283 	ldr	x3, [x20, #640]
    5364:	b4000103 	cbz	x3, 5384 <readline_common+0x3e4>
    5368:	f9414683 	ldr	x3, [x20, #648]
    536c:	eb03027f 	cmp	x19, x3
    5370:	54000101 	b.ne	5390 <readline_common+0x3f0>  // b.any
    5374:	d2800001 	mov	x1, #0x0                   	// #0
    5378:	f9014680 	str	x0, [x20, #648]
    537c:	f9000001 	str	x1, [x0]
    5380:	f900005f 	str	xzr, [x2]
    5384:	f9400000 	ldr	x0, [x0]
    5388:	b5fffe60 	cbnz	x0, 5354 <readline_common+0x3b4>
    538c:	17ffffea 	b	5334 <readline_common+0x394>
    5390:	f9400261 	ldr	x1, [x19]
    5394:	17fffffa 	b	537c <readline_common+0x3dc>
    5398:	d65f03c0 	ret
    539c:	a9be4ffe 	stp	x30, x19, [sp, #-32]!
    53a0:	aa0003f3 	mov	x19, x0
    53a4:	f9000bf4 	str	x20, [sp, #16]
    53a8:	aa0103f4 	mov	x20, x1
    53ac:	b50000b3 	cbnz	x19, 53c0 <readline_common+0x420>
    53b0:	f9400bf4 	ldr	x20, [sp, #16]
    53b4:	aa1303e0 	mov	x0, x19
    53b8:	a8c24ffe 	ldp	x30, x19, [sp], #32
    53bc:	d65f03c0 	ret
    53c0:	f9400660 	ldr	x0, [x19, #8]
    53c4:	aa1403e1 	mov	x1, x20
    53c8:	94000000 	bl	680 <strcmp>	53c8: R_AARCH64_CALL26	strcmp
    53cc:	34ffff20 	cbz	w0, 53b0 <readline_common+0x410>
    53d0:	f9400273 	ldr	x19, [x19]
    53d4:	17fffff6 	b	53ac <readline_common+0x40c>

00000000000053d8 <alias_init>:
alias_init():
    53d8:	f9414001 	ldr	x1, [x0, #640]
    53dc:	b5000101 	cbnz	x1, 53fc <alias_init+0x24>
    53e0:	f9414801 	ldr	x1, [x0, #656]
    53e4:	b50000c1 	cbnz	x1, 53fc <alias_init+0x24>
    53e8:	91098001 	add	x1, x0, #0x260
    53ec:	f901301f 	str	xzr, [x0, #608]
    53f0:	f901441f 	str	xzr, [x0, #648]
    53f4:	f9014801 	str	x1, [x0, #656]
    53f8:	f9014c01 	str	x1, [x0, #664]
    53fc:	d65f03c0 	ret

0000000000005400 <nsh_aliasfind>:
nsh_aliasfind():
    5400:	f81f0ffe 	str	x30, [sp, #-16]!
    5404:	aa0103e2 	mov	x2, x1
    5408:	94000000 	bl	53d8 <alias_init>	5408: R_AARCH64_CALL26	alias_init
    540c:	b4000182 	cbz	x2, 543c <nsh_aliasfind+0x3c>
    5410:	f9414000 	ldr	x0, [x0, #640]
    5414:	aa0203e1 	mov	x1, x2
    5418:	94000000 	bl	0 <memcpy>	5418: R_AARCH64_CALL26	.text+0x539c
    541c:	b40000c0 	cbz	x0, 5434 <nsh_aliasfind+0x34>
    5420:	39406001 	ldrb	w1, [x0, #24]
    5424:	370000c1 	tbnz	w1, #0, 543c <nsh_aliasfind+0x3c>
    5428:	f9400801 	ldr	x1, [x0, #16]
    542c:	f100003f 	cmp	x1, #0x0
    5430:	9a9f1000 	csel	x0, x0, xzr, ne	// ne = any
    5434:	f84107fe 	ldr	x30, [sp], #16
    5438:	d65f03c0 	ret
    543c:	d2800000 	mov	x0, #0x0                   	// #0
    5440:	17fffffd 	b	5434 <nsh_aliasfind+0x34>

0000000000005444 <nsh_aliasfree>:
nsh_aliasfree():
    5444:	14000000 	b	0 <memcpy>	5444: R_AARCH64_JUMP26	.text+0x52bc

0000000000005448 <cmd_alias>:
cmd_alias():
    5448:	a9bc4ffe 	stp	x30, x19, [sp, #-64]!
    544c:	2a0103e3 	mov	w3, w1
    5450:	aa0003f3 	mov	x19, x0
    5454:	a90157f4 	stp	x20, x21, [sp, #16]
    5458:	a9025ff6 	stp	x22, x23, [sp, #32]
    545c:	a90367f8 	stp	x24, x25, [sp, #48]
    5460:	94000000 	bl	53d8 <alias_init>	5460: R_AARCH64_CALL26	alias_init
    5464:	7100047f 	cmp	w3, #0x1
    5468:	5400026c 	b.gt	54b4 <cmd_alias+0x6c>
    546c:	f9414014 	ldr	x20, [x0, #640]
    5470:	90000015 	adrp	x21, ebb8 <_srodata>	5470: R_AARCH64_ADR_PREL_PG_HI21	.rodata+0x66d
    5474:	910002b5 	add	x21, x21, #0x0	5474: R_AARCH64_ADD_ABS_LO12_NC	.rodata+0x66d
    5478:	b5000114 	cbnz	x20, 5498 <cmd_alias+0x50>
    547c:	52800017 	mov	w23, #0x0                   	// #0
    5480:	2a1703e0 	mov	w0, w23
    5484:	a94157f4 	ldp	x20, x21, [sp, #16]
    5488:	a9425ff6 	ldp	x22, x23, [sp, #32]
    548c:	a94367f8 	ldp	x24, x25, [sp, #48]
    5490:	a8c44ffe 	ldp	x30, x19, [sp], #64
    5494:	d65f03c0 	ret
    5498:	a9408e82 	ldp	x2, x3, [x20, #8]
    549c:	aa1503e1 	mov	x1, x21
    54a0:	f9401e64 	ldr	x4, [x19, #56]
    54a4:	aa1303e0 	mov	x0, x19
    54a8:	d63f0080 	blr	x4
    54ac:	f9400294 	ldr	x20, [x20]
    54b0:	17fffff2 	b	5478 <cmd_alias+0x30>
    54b4:	90000018 	adrp	x24, ebb8 <_srodata>	54b4: R_AARCH64_ADR_PREL_PG_HI21	.rodata+0x66d
    54b8:	90000019 	adrp	x25, ebb8 <_srodata>	54b8: R_AARCH64_ADR_PREL_PG_HI21	.rodata+0x635
    54bc:	91002056 	add	x22, x2, #0x8
    54c0:	91000318 	add	x24, x24, #0x0	54c0: R_AARCH64_ADD_ABS_LO12_NC	.rodata+0x66d
    54c4:	91000339 	add	x25, x25, #0x0	54c4: R_AARCH64_ADD_ABS_LO12_NC	.rodata+0x635
    54c8:	52800017 	mov	w23, #0x0                   	// #0
    54cc:	f94002d4 	ldr	x20, [x22]
    54d0:	b4fffd94 	cbz	x20, 5480 <cmd_alias+0x38>
    54d4:	aa1403e0 	mov	x0, x20
    54d8:	528007a1 	mov	w1, #0x3d                  	// #61
    54dc:	94000000 	bl	59c <strchr>	54dc: R_AARCH64_CALL26	strchr
    54e0:	aa0003f5 	mov	x21, x0
    54e4:	b4000700 	cbz	x0, 55c4 <cmd_alias+0x17c>
    54e8:	380016bf 	strb	wzr, [x21], #1
    54ec:	f94002d7 	ldr	x23, [x22]
    54f0:	b4000677 	cbz	x23, 55bc <cmd_alias+0x174>
    54f4:	394002e0 	ldrb	w0, [x23]
    54f8:	34000620 	cbz	w0, 55bc <cmd_alias+0x174>
    54fc:	f9414260 	ldr	x0, [x19, #640]
    5500:	aa1703e1 	mov	x1, x23
    5504:	94000000 	bl	0 <memcpy>	5504: R_AARCH64_CALL26	.text+0x539c
    5508:	aa0003f4 	mov	x20, x0
    550c:	b40002e0 	cbz	x0, 5568 <cmd_alias+0x120>
    5510:	f9400800 	ldr	x0, [x0, #16]
    5514:	94000000 	bl	b598 <free>	5514: R_AARCH64_CALL26	free
    5518:	aa1503e0 	mov	x0, x21
    551c:	94000000 	bl	daf8 <strdup>	551c: R_AARCH64_CALL26	strdup
    5520:	f9000a80 	str	x0, [x20, #16]
    5524:	f9400680 	ldr	x0, [x20, #8]
    5528:	b4000080 	cbz	x0, 5538 <cmd_alias+0xf0>
    552c:	f9400a80 	ldr	x0, [x20, #16]
    5530:	52800017 	mov	w23, #0x0                   	// #0
    5534:	b5000160 	cbnz	x0, 5560 <cmd_alias+0x118>
    5538:	12800177 	mov	w23, #0xfffffff4            	// #-12
    553c:	aa1403e1 	mov	x1, x20
    5540:	aa1303e0 	mov	x0, x19
    5544:	94000000 	bl	0 <memcpy>	5544: R_AARCH64_CALL26	.text+0x52bc
    5548:	f94002c2 	ldr	x2, [x22]
    554c:	aa1503e3 	mov	x3, x21
    5550:	f9401a64 	ldr	x4, [x19, #48]
    5554:	aa1903e1 	mov	x1, x25
    5558:	aa1303e0 	mov	x0, x19
    555c:	d63f0080 	blr	x4
    5560:	910022d6 	add	x22, x22, #0x8
    5564:	17ffffda 	b	54cc <cmd_alias+0x84>
    5568:	f9414a74 	ldr	x20, [x19, #656]
    556c:	b4fffe74 	cbz	x20, 5538 <cmd_alias+0xf0>
    5570:	f9400281 	ldr	x1, [x20]
    5574:	f9014a61 	str	x1, [x19, #656]
    5578:	b5000041 	cbnz	x1, 5580 <cmd_alias+0x138>
    557c:	f9014e7f 	str	xzr, [x19, #664]
    5580:	f900029f 	str	xzr, [x20]
    5584:	aa1703e0 	mov	x0, x23
    5588:	94000000 	bl	daf8 <strdup>	5588: R_AARCH64_CALL26	strdup
    558c:	f9000680 	str	x0, [x20, #8]
    5590:	aa1503e0 	mov	x0, x21
    5594:	94000000 	bl	daf8 <strdup>	5594: R_AARCH64_CALL26	strdup
    5598:	f9000a80 	str	x0, [x20, #16]
    559c:	f9414260 	ldr	x0, [x19, #640]
    55a0:	b5000080 	cbnz	x0, 55b0 <cmd_alias+0x168>
    55a4:	f9014274 	str	x20, [x19, #640]
    55a8:	f9014674 	str	x20, [x19, #648]
    55ac:	17ffffde 	b	5524 <cmd_alias+0xdc>
    55b0:	f9414660 	ldr	x0, [x19, #648]
    55b4:	f9000014 	str	x20, [x0]
    55b8:	17fffffc 	b	55a8 <cmd_alias+0x160>
    55bc:	128002b7 	mov	w23, #0xffffffea            	// #-22
    55c0:	17ffffe2 	b	5548 <cmd_alias+0x100>
    55c4:	f9414260 	ldr	x0, [x19, #640]
    55c8:	aa1403e1 	mov	x1, x20
    55cc:	94000000 	bl	0 <memcpy>	55cc: R_AARCH64_CALL26	.text+0x539c
    55d0:	b40000a0 	cbz	x0, 55e4 <cmd_alias+0x19c>
    55d4:	f9401e64 	ldr	x4, [x19, #56]
    55d8:	aa1803e1 	mov	x1, x24
    55dc:	a9408c02 	ldp	x2, x3, [x0, #8]
    55e0:	17ffffde 	b	5558 <cmd_alias+0x110>
    55e4:	f9401a64 	ldr	x4, [x19, #48]
    55e8:	aa1403e3 	mov	x3, x20
    55ec:	aa1303e0 	mov	x0, x19
    55f0:	90000002 	adrp	x2, ebb8 <_srodata>	55f0: R_AARCH64_ADR_PREL_PG_HI21	.rodata+0x64b
    55f4:	90000001 	adrp	x1, ebb8 <_srodata>	55f4: R_AARCH64_ADR_PREL_PG_HI21	.rodata+0x651
    55f8:	91000042 	add	x2, x2, #0x0	55f8: R_AARCH64_ADD_ABS_LO12_NC	.rodata+0x64b
    55fc:	91000021 	add	x1, x1, #0x0	55fc: R_AARCH64_ADD_ABS_LO12_NC	.rodata+0x651
    5600:	12800037 	mov	w23, #0xfffffffe            	// #-2
    5604:	d63f0080 	blr	x4
    5608:	17ffffd6 	b	5560 <cmd_alias+0x118>

000000000000560c <cmd_unalias>:
cmd_unalias():
    560c:	a9bc4ffe 	stp	x30, x19, [sp, #-64]!
    5610:	2a0103e3 	mov	w3, w1
    5614:	a90157f4 	stp	x20, x21, [sp, #16]
    5618:	a9025ff6 	stp	x22, x23, [sp, #32]
    561c:	f9001bf8 	str	x24, [sp, #48]
    5620:	94000000 	bl	53d8 <alias_init>	5620: R_AARCH64_CALL26	alias_init
    5624:	7100047f 	cmp	w3, #0x1
    5628:	5400062d 	b.le	56ec <cmd_unalias+0xe0>
    562c:	aa0203f3 	mov	x19, x2
    5630:	aa0003f5 	mov	x21, x0
    5634:	90000002 	adrp	x2, ebb8 <_srodata>	5634: R_AARCH64_ADR_PREL_PG_HI21	.rodata+0x663
    5638:	aa1303e1 	mov	x1, x19
    563c:	91000042 	add	x2, x2, #0x0	563c: R_AARCH64_ADD_ABS_LO12_NC	.rodata+0x663
    5640:	2a0303e0 	mov	w0, w3
    5644:	94000000 	bl	e0bc <getopt>	5644: R_AARCH64_CALL26	getopt
    5648:	7101841f 	cmp	w0, #0x61
    564c:	540001e1 	b.ne	5688 <cmd_unalias+0x7c>  // b.any
    5650:	f94142a1 	ldr	x1, [x21, #640]
    5654:	b5000101 	cbnz	x1, 5674 <cmd_unalias+0x68>
    5658:	52800014 	mov	w20, #0x0                   	// #0
    565c:	f9401bf8 	ldr	x24, [sp, #48]
    5660:	2a1403e0 	mov	w0, w20
    5664:	a94157f4 	ldp	x20, x21, [sp, #16]
    5668:	a9425ff6 	ldp	x22, x23, [sp, #32]
    566c:	a8c44ffe 	ldp	x30, x19, [sp], #64
    5670:	d65f03c0 	ret
    5674:	f9400033 	ldr	x19, [x1]
    5678:	aa1503e0 	mov	x0, x21
    567c:	94000000 	bl	0 <memcpy>	567c: R_AARCH64_CALL26	.text+0x52bc
    5680:	aa1303e1 	mov	x1, x19
    5684:	17fffff4 	b	5654 <cmd_unalias+0x48>
    5688:	90000017 	adrp	x23, ebb8 <_srodata>	5688: R_AARCH64_ADR_PREL_PG_HI21	.rodata+0x665
    568c:	90000018 	adrp	x24, ebb8 <_srodata>	568c: R_AARCH64_ADR_PREL_PG_HI21	.rodata+0x651
    5690:	91002273 	add	x19, x19, #0x8
    5694:	910002f7 	add	x23, x23, #0x0	5694: R_AARCH64_ADD_ABS_LO12_NC	.rodata+0x665
    5698:	91000318 	add	x24, x24, #0x0	5698: R_AARCH64_ADD_ABS_LO12_NC	.rodata+0x651
    569c:	52800014 	mov	w20, #0x0                   	// #0
    56a0:	f9400276 	ldr	x22, [x19]
    56a4:	b4fffdd6 	cbz	x22, 565c <cmd_unalias+0x50>
    56a8:	f94142a0 	ldr	x0, [x21, #640]
    56ac:	aa1603e1 	mov	x1, x22
    56b0:	94000000 	bl	0 <memcpy>	56b0: R_AARCH64_CALL26	.text+0x539c
    56b4:	aa0003e1 	mov	x1, x0
    56b8:	b40000a0 	cbz	x0, 56cc <cmd_unalias+0xc0>
    56bc:	aa1503e0 	mov	x0, x21
    56c0:	94000000 	bl	0 <memcpy>	56c0: R_AARCH64_CALL26	.text+0x52bc
    56c4:	91002273 	add	x19, x19, #0x8
    56c8:	17fffff6 	b	56a0 <cmd_unalias+0x94>
    56cc:	f9401aa4 	ldr	x4, [x21, #48]
    56d0:	aa1603e3 	mov	x3, x22
    56d4:	aa1703e2 	mov	x2, x23
    56d8:	aa1803e1 	mov	x1, x24
    56dc:	aa1503e0 	mov	x0, x21
    56e0:	12800034 	mov	w20, #0xfffffffe            	// #-2
    56e4:	d63f0080 	blr	x4
    56e8:	17fffff7 	b	56c4 <cmd_unalias+0xb8>
    56ec:	128002b4 	mov	w20, #0xffffffea            	// #-22
    56f0:	17ffffdb 	b	565c <cmd_unalias+0x50>
    56f4:	f81f0ffe 	str	x30, [sp, #-16]!
    56f8:	90000001 	adrp	x1, f0ca <g_fmtcmdnotfound>	56f8: R_AARCH64_ADR_PREL_PG_HI21	g_fmtcmdnotfound
    56fc:	91000021 	add	x1, x1, #0x0	56fc: R_AARCH64_ADD_ABS_LO12_NC	g_fmtcmdnotfound
    5700:	f9400042 	ldr	x2, [x2]
    5704:	f9401803 	ldr	x3, [x0, #48]
    5708:	d63f0060 	blr	x3
    570c:	f84107fe 	ldr	x30, [sp], #16
    5710:	12800000 	mov	w0, #0xffffffff            	// #-1
    5714:	d65f03c0 	ret
    5718:	52800000 	mov	w0, #0x0                   	// #0
    571c:	d65f03c0 	ret
    5720:	12800000 	mov	w0, #0xffffffff            	// #-1
    5724:	d65f03c0 	ret
    5728:	f9402c02 	ldr	x2, [x0, #88]
    572c:	f81f0ffe 	str	x30, [sp, #-16]!
    5730:	52800001 	mov	w1, #0x0                   	// #0
    5734:	d63f0040 	blr	x2
    5738:	a9bd4ffe 	stp	x30, x19, [sp, #-48]!
    573c:	aa0003f3 	mov	x19, x0
    5740:	a90157f4 	stp	x20, x21, [sp, #16]
    5744:	aa0203f5 	mov	x21, x2
    5748:	7100103f 	cmp	w1, #0x4
    574c:	54000140 	b.eq	5774 <cmd_unalias+0x168>  // b.none
    5750:	f9400042 	ldr	x2, [x2]
    5754:	90000001 	adrp	x1, ebb8 <_srodata>	5754: R_AARCH64_ADR_PREL_PG_HI21	.rodata+0x67c
    5758:	f9401c03 	ldr	x3, [x0, #56]
    575c:	91000021 	add	x1, x1, #0x0	575c: R_AARCH64_ADD_ABS_LO12_NC	.rodata+0x67c
    5760:	d63f0060 	blr	x3
    5764:	12800000 	mov	w0, #0xffffffff            	// #-1
    5768:	a94157f4 	ldp	x20, x21, [sp, #16]
    576c:	a8c34ffe 	ldp	x30, x19, [sp], #48
    5770:	d65f03c0 	ret
    5774:	f94006a0 	ldr	x0, [x21, #8]
    5778:	9100a3e1 	add	x1, sp, #0x28
    577c:	52800002 	mov	w2, #0x0                   	// #0
    5780:	94000000 	bl	d574 <strtol>	5780: R_AARCH64_CALL26	strtol
    5784:	aa0003f4 	mov	x20, x0
    5788:	f94017e0 	ldr	x0, [sp, #40]
    578c:	39400000 	ldrb	w0, [x0]
    5790:	340000e0 	cbz	w0, 57ac <cmd_unalias+0x1a0>
    5794:	f9401e62 	ldr	x2, [x19, #56]
    5798:	aa1303e0 	mov	x0, x19
    579c:	90000001 	adrp	x1, ebb8 <_srodata>	579c: R_AARCH64_ADR_PREL_PG_HI21	.rodata+0x6a8
    57a0:	91000021 	add	x1, x1, #0x0	57a0: R_AARCH64_ADD_ABS_LO12_NC	.rodata+0x6a8
    57a4:	d63f0040 	blr	x2
    57a8:	17ffffef 	b	5764 <cmd_unalias+0x158>
    57ac:	f9400ea0 	ldr	x0, [x21, #24]
    57b0:	9100a3e1 	add	x1, sp, #0x28
    57b4:	52800002 	mov	w2, #0x0                   	// #0
    57b8:	94000000 	bl	d574 <strtol>	57b8: R_AARCH64_CALL26	strtol
    57bc:	f94017e1 	ldr	x1, [sp, #40]
    57c0:	f9401e63 	ldr	x3, [x19, #56]
    57c4:	39400021 	ldrb	w1, [x1]
    57c8:	340000c1 	cbz	w1, 57e0 <cmd_unalias+0x1d4>
    57cc:	90000001 	adrp	x1, ebb8 <_srodata>	57cc: R_AARCH64_ADR_PREL_PG_HI21	.rodata+0x6ba
    57d0:	91000021 	add	x1, x1, #0x0	57d0: R_AARCH64_ADD_ABS_LO12_NC	.rodata+0x6ba
    57d4:	aa1303e0 	mov	x0, x19
    57d8:	d63f0060 	blr	x3
    57dc:	17ffffe2 	b	5764 <cmd_unalias+0x158>
    57e0:	f9400aa1 	ldr	x1, [x21, #16]
    57e4:	39400021 	ldrb	w1, [x1]
    57e8:	7100ac3f 	cmp	w1, #0x2b
    57ec:	54000200 	b.eq	582c <cmd_unalias+0x220>  // b.none
    57f0:	54000108 	b.hi	5810 <cmd_unalias+0x204>  // b.pmore
    57f4:	7100943f 	cmp	w1, #0x25
    57f8:	54000300 	b.eq	5858 <cmd_unalias+0x24c>  // b.none
    57fc:	7100a83f 	cmp	w1, #0x2a
    5800:	54000280 	b.eq	5850 <cmd_unalias+0x244>  // b.none
    5804:	90000001 	adrp	x1, ebb8 <_srodata>	5804: R_AARCH64_ADR_PREL_PG_HI21	.rodata+0x6cc
    5808:	91000021 	add	x1, x1, #0x0	5808: R_AARCH64_ADD_ABS_LO12_NC	.rodata+0x6cc
    580c:	17fffff2 	b	57d4 <cmd_unalias+0x1c8>
    5810:	7100b43f 	cmp	w1, #0x2d
    5814:	540001a0 	b.eq	5848 <cmd_unalias+0x23c>  // b.none
    5818:	7100bc3f 	cmp	w1, #0x2f
    581c:	54ffff41 	b.ne	5804 <cmd_unalias+0x1f8>  // b.any
    5820:	34fffd60 	cbz	w0, 57cc <cmd_unalias+0x1c0>
    5824:	1ac00e82 	sdiv	w2, w20, w0
    5828:	14000002 	b	5830 <cmd_unalias+0x224>
    582c:	0b140002 	add	w2, w0, w20
    5830:	aa1303e0 	mov	x0, x19
    5834:	90000001 	adrp	x1, ebb8 <_srodata>	5834: R_AARCH64_ADR_PREL_PG_HI21	.rodata+0x6de
    5838:	91000021 	add	x1, x1, #0x0	5838: R_AARCH64_ADD_ABS_LO12_NC	.rodata+0x6de
    583c:	d63f0060 	blr	x3
    5840:	52800000 	mov	w0, #0x0                   	// #0
    5844:	17ffffc9 	b	5768 <cmd_unalias+0x15c>
    5848:	4b000282 	sub	w2, w20, w0
    584c:	17fffff9 	b	5830 <cmd_unalias+0x224>
    5850:	1b147c02 	mul	w2, w0, w20
    5854:	17fffff7 	b	5830 <cmd_unalias+0x224>
    5858:	34fffba0 	cbz	w0, 57cc <cmd_unalias+0x1c0>
    585c:	1ac00e81 	sdiv	w1, w20, w0
    5860:	1b00d022 	msub	w2, w1, w0, w20
    5864:	17fffff3 	b	5830 <cmd_unalias+0x224>
    5868:	f9400c23 	ldr	x3, [x1, #24]
    586c:	f9400022 	ldr	x2, [x1]
    5870:	f9401c04 	ldr	x4, [x0, #56]
    5874:	b40000a3 	cbz	x3, 5888 <cmd_unalias+0x27c>
    5878:	aa0403f0 	mov	x16, x4
    587c:	90000001 	adrp	x1, ebb8 <_srodata>	587c: R_AARCH64_ADR_PREL_PG_HI21	.rodata+0x6e2
    5880:	91000021 	add	x1, x1, #0x0	5880: R_AARCH64_ADD_ABS_LO12_NC	.rodata+0x6e2
    5884:	d61f0200 	br	x16
    5888:	aa0403f0 	mov	x16, x4
    588c:	90000001 	adrp	x1, ebb8 <_srodata>	588c: R_AARCH64_ADR_PREL_PG_HI21	.rodata+0x6eb
    5890:	91000021 	add	x1, x1, #0x0	5890: R_AARCH64_ADD_ABS_LO12_NC	.rodata+0x6eb
    5894:	d61f0200 	br	x16
    5898:	a9be4ffe 	stp	x30, x19, [sp, #-32]!
    589c:	aa0003f3 	mov	x19, x0
    58a0:	a90157f4 	stp	x20, x21, [sp, #16]
    58a4:	90000014 	adrp	x20, ebb8 <_srodata>	58a4: R_AARCH64_ADR_PREL_PG_HI21	.rodata+0xce8
    58a8:	aa0103f5 	mov	x21, x1
    58ac:	91000294 	add	x20, x20, #0x0	58ac: R_AARCH64_ADD_ABS_LO12_NC	.rodata+0xce8
    58b0:	f9400280 	ldr	x0, [x20]
    58b4:	b5000140 	cbnz	x0, 58dc <cmd_unalias+0x2d0>
    58b8:	f9401a63 	ldr	x3, [x19, #48]
    58bc:	aa1503e2 	mov	x2, x21
    58c0:	aa1303e0 	mov	x0, x19
    58c4:	90000001 	adrp	x1, f0ca <g_fmtcmdnotfound>	58c4: R_AARCH64_ADR_PREL_PG_HI21	g_fmtcmdnotfound
    58c8:	a94157f4 	ldp	x20, x21, [sp, #16]
    58cc:	91000021 	add	x1, x1, #0x0	58cc: R_AARCH64_ADD_ABS_LO12_NC	g_fmtcmdnotfound
    58d0:	a8c24ffe 	ldp	x30, x19, [sp], #32
    58d4:	aa0303f0 	mov	x16, x3
    58d8:	d61f0200 	br	x16
    58dc:	aa1503e1 	mov	x1, x21
    58e0:	94000000 	bl	680 <strcmp>	58e0: R_AARCH64_CALL26	strcmp
    58e4:	35000180 	cbnz	w0, 5914 <cmd_unalias+0x308>
    58e8:	f9401e63 	ldr	x3, [x19, #56]
    58ec:	aa1503e2 	mov	x2, x21
    58f0:	aa1303e0 	mov	x0, x19
    58f4:	90000001 	adrp	x1, ebb8 <_srodata>	58f4: R_AARCH64_ADR_PREL_PG_HI21	.rodata+0x6f1
    58f8:	91000021 	add	x1, x1, #0x0	58f8: R_AARCH64_ADD_ABS_LO12_NC	.rodata+0x6f1
    58fc:	d63f0060 	blr	x3
    5900:	aa1403e1 	mov	x1, x20
    5904:	aa1303e0 	mov	x0, x19
    5908:	a94157f4 	ldp	x20, x21, [sp, #16]
    590c:	a8c24ffe 	ldp	x30, x19, [sp], #32
    5910:	14000000 	b	0 <memcpy>	5910: R_AARCH64_JUMP26	.text+0x5868
    5914:	91008294 	add	x20, x20, #0x20
    5918:	17ffffe6 	b	58b0 <cmd_unalias+0x2a4>
    591c:	a9b34ffe 	stp	x30, x19, [sp, #-208]!
    5920:	aa0003f3 	mov	x19, x0
    5924:	a90157f4 	stp	x20, x21, [sp, #16]
    5928:	a9025ff6 	stp	x22, x23, [sp, #32]
    592c:	a90367f8 	stp	x24, x25, [sp, #48]
    5930:	a9046ffa 	stp	x26, x27, [sp, #64]
    5934:	f9002bfc 	str	x28, [sp, #80]
    5938:	7100043f 	cmp	w1, #0x1
    593c:	5400140d 	b.le	5bbc <cmd_unalias+0x5b0>
    5940:	f9400440 	ldr	x0, [x2, #8]
    5944:	2a0103f5 	mov	w21, w1
    5948:	aa0203f4 	mov	x20, x2
    594c:	90000001 	adrp	x1, ebb8 <_srodata>	594c: R_AARCH64_ADR_PREL_PG_HI21	.rodata+0x6fb
    5950:	91000021 	add	x1, x1, #0x0	5950: R_AARCH64_ADD_ABS_LO12_NC	.rodata+0x6fb
    5954:	94000000 	bl	680 <strcmp>	5954: R_AARCH64_CALL26	strcmp
    5958:	35000e20 	cbnz	w0, 5b1c <cmd_unalias+0x510>
    595c:	d2800016 	mov	x22, #0x0                   	// #0
    5960:	71000abf 	cmp	w21, #0x2
    5964:	540000c0 	b.eq	597c <cmd_unalias+0x370>  // b.none
    5968:	52800040 	mov	w0, #0x2                   	// #2
    596c:	52800021 	mov	w1, #0x1                   	// #1
    5970:	d37d0400 	ubfiz	x0, x0, #3, #2
    5974:	f8606a96 	ldr	x22, [x20, x0]
    5978:	34001201 	cbz	w1, 5bb8 <cmd_unalias+0x5ac>
    597c:	f9401e62 	ldr	x2, [x19, #56]
    5980:	aa1303e0 	mov	x0, x19
    5984:	90000001 	adrp	x1, ebb8 <_srodata>	5984: R_AARCH64_ADR_PREL_PG_HI21	.rodata+0x6fe
    5988:	91000021 	add	x1, x1, #0x0	5988: R_AARCH64_ADD_ABS_LO12_NC	.rodata+0x6fe
    598c:	90000015 	adrp	x21, ebb8 <_srodata>	598c: R_AARCH64_ADR_PREL_PG_HI21	.rodata+0x74d
    5990:	910002b5 	add	x21, x21, #0x0	5990: R_AARCH64_ADD_ABS_LO12_NC	.rodata+0x74d
    5994:	d63f0040 	blr	x2
    5998:	90000014 	adrp	x20, ebb8 <_srodata>	5998: R_AARCH64_ADR_PREL_PG_HI21	.rodata+0x765
    599c:	f9401e62 	ldr	x2, [x19, #56]
    59a0:	aa1303e0 	mov	x0, x19
    59a4:	90000001 	adrp	x1, ebb8 <_srodata>	59a4: R_AARCH64_ADR_PREL_PG_HI21	.rodata+0x712
    59a8:	91000021 	add	x1, x1, #0x0	59a8: R_AARCH64_ADD_ABS_LO12_NC	.rodata+0x712
    59ac:	91000294 	add	x20, x20, #0x0	59ac: R_AARCH64_ADD_ABS_LO12_NC	.rodata+0x765
    59b0:	90000018 	adrp	x24, ebb8 <_srodata>	59b0: R_AARCH64_ADR_PREL_PG_HI21	.rodata+0x79c
    59b4:	d63f0040 	blr	x2
    59b8:	91000318 	add	x24, x24, #0x0	59b8: R_AARCH64_ADD_ABS_LO12_NC	.rodata+0x79c
    59bc:	f9401e62 	ldr	x2, [x19, #56]
    59c0:	aa1503e1 	mov	x1, x21
    59c4:	aa1303e0 	mov	x0, x19
    59c8:	90000017 	adrp	x23, ebb8 <_srodata>	59c8: R_AARCH64_ADR_PREL_PG_HI21	.rodata+0x7a2
    59cc:	910002f7 	add	x23, x23, #0x0	59cc: R_AARCH64_ADD_ABS_LO12_NC	.rodata+0x7a2
    59d0:	d63f0040 	blr	x2
    59d4:	f9401e62 	ldr	x2, [x19, #56]
    59d8:	aa1303e0 	mov	x0, x19
    59dc:	90000001 	adrp	x1, ebb8 <_srodata>	59dc: R_AARCH64_ADR_PREL_PG_HI21	.rodata+0x751
    59e0:	91000021 	add	x1, x1, #0x0	59e0: R_AARCH64_ADD_ABS_LO12_NC	.rodata+0x751
    59e4:	d63f0040 	blr	x2
    59e8:	f9401e62 	ldr	x2, [x19, #56]
    59ec:	aa1303e0 	mov	x0, x19
    59f0:	90000001 	adrp	x1, ebb8 <_srodata>	59f0: R_AARCH64_ADR_PREL_PG_HI21	.rodata+0x75d
    59f4:	91000021 	add	x1, x1, #0x0	59f4: R_AARCH64_ADD_ABS_LO12_NC	.rodata+0x75d
    59f8:	d63f0040 	blr	x2
    59fc:	f9401e62 	ldr	x2, [x19, #56]
    5a00:	aa1403e1 	mov	x1, x20
    5a04:	aa1303e0 	mov	x0, x19
    5a08:	d63f0040 	blr	x2
    5a0c:	f9401e62 	ldr	x2, [x19, #56]
    5a10:	aa1303e0 	mov	x0, x19
    5a14:	90000001 	adrp	x1, ebb8 <_srodata>	5a14: R_AARCH64_ADR_PREL_PG_HI21	.rodata+0x77e
    5a18:	91000021 	add	x1, x1, #0x0	5a18: R_AARCH64_ADD_ABS_LO12_NC	.rodata+0x77e
    5a1c:	d63f0040 	blr	x2
    5a20:	f9401e62 	ldr	x2, [x19, #56]
    5a24:	aa1403e1 	mov	x1, x20
    5a28:	aa1303e0 	mov	x0, x19
    5a2c:	d63f0040 	blr	x2
    5a30:	f9401e62 	ldr	x2, [x19, #56]
    5a34:	aa1303e0 	mov	x0, x19
    5a38:	90000001 	adrp	x1, ebb8 <_srodata>	5a38: R_AARCH64_ADR_PREL_PG_HI21	.rodata+0x786
    5a3c:	91000021 	add	x1, x1, #0x0	5a3c: R_AARCH64_ADD_ABS_LO12_NC	.rodata+0x786
    5a40:	d63f0040 	blr	x2
    5a44:	f9401e62 	ldr	x2, [x19, #56]
    5a48:	aa1503e1 	mov	x1, x21
    5a4c:	aa1303e0 	mov	x0, x19
    5a50:	d63f0040 	blr	x2
    5a54:	f9401e62 	ldr	x2, [x19, #56]
    5a58:	aa1303e0 	mov	x0, x19
    5a5c:	90000001 	adrp	x1, ebb8 <_srodata>	5a5c: R_AARCH64_ADR_PREL_PG_HI21	.rodata+0x78d
    5a60:	91000021 	add	x1, x1, #0x0	5a60: R_AARCH64_ADD_ABS_LO12_NC	.rodata+0x78d
    5a64:	d63f0040 	blr	x2
    5a68:	f9401e62 	ldr	x2, [x19, #56]
    5a6c:	aa1803e1 	mov	x1, x24
    5a70:	aa1303e0 	mov	x0, x19
    5a74:	d63f0040 	blr	x2
    5a78:	f9401e62 	ldr	x2, [x19, #56]
    5a7c:	aa1403e1 	mov	x1, x20
    5a80:	aa1303e0 	mov	x0, x19
    5a84:	d63f0040 	blr	x2
    5a88:	f9401e62 	ldr	x2, [x19, #56]
    5a8c:	aa1703e1 	mov	x1, x23
    5a90:	aa1303e0 	mov	x0, x19
    5a94:	d63f0040 	blr	x2
    5a98:	f9401e62 	ldr	x2, [x19, #56]
    5a9c:	aa1503e1 	mov	x1, x21
    5aa0:	aa1303e0 	mov	x0, x19
    5aa4:	d63f0040 	blr	x2
    5aa8:	f9401e62 	ldr	x2, [x19, #56]
    5aac:	aa1303e0 	mov	x0, x19
    5ab0:	90000001 	adrp	x1, ebb8 <_srodata>	5ab0: R_AARCH64_ADR_PREL_PG_HI21	.rodata+0x7ab
    5ab4:	91000021 	add	x1, x1, #0x0	5ab4: R_AARCH64_ADD_ABS_LO12_NC	.rodata+0x7ab
    5ab8:	d63f0040 	blr	x2
    5abc:	f9401e62 	ldr	x2, [x19, #56]
    5ac0:	aa1803e1 	mov	x1, x24
    5ac4:	aa1303e0 	mov	x0, x19
    5ac8:	d63f0040 	blr	x2
    5acc:	f9401e62 	ldr	x2, [x19, #56]
    5ad0:	aa1403e1 	mov	x1, x20
    5ad4:	aa1303e0 	mov	x0, x19
    5ad8:	d63f0040 	blr	x2
    5adc:	f9401e62 	ldr	x2, [x19, #56]
    5ae0:	aa1703e1 	mov	x1, x23
    5ae4:	aa1303e0 	mov	x0, x19
    5ae8:	d63f0040 	blr	x2
    5aec:	b4000d36 	cbz	x22, 5c90 <cmd_unalias+0x684>
    5af0:	aa1603e1 	mov	x1, x22
    5af4:	aa1303e0 	mov	x0, x19
    5af8:	94000000 	bl	0 <memcpy>	5af8: R_AARCH64_CALL26	.text+0x5898
    5afc:	f9402bfc 	ldr	x28, [sp, #80]
    5b00:	52800000 	mov	w0, #0x0                   	// #0
    5b04:	a94157f4 	ldp	x20, x21, [sp, #16]
    5b08:	a9425ff6 	ldp	x22, x23, [sp, #32]
    5b0c:	a94367f8 	ldp	x24, x25, [sp, #48]
    5b10:	a9446ffa 	ldp	x26, x27, [sp, #64]
    5b14:	a8cd4ffe 	ldp	x30, x19, [sp], #208
    5b18:	d65f03c0 	ret
    5b1c:	52800020 	mov	w0, #0x1                   	// #1
    5b20:	52800001 	mov	w1, #0x0                   	// #0
    5b24:	17ffff93 	b	5970 <cmd_unalias+0x364>
    5b28:	aa1403e1 	mov	x1, x20
    5b2c:	91008294 	add	x20, x20, #0x20
    5b30:	aa1303e0 	mov	x0, x19
    5b34:	94000000 	bl	0 <memcpy>	5b34: R_AARCH64_CALL26	.text+0x5868
    5b38:	f9400280 	ldr	x0, [x20]
    5b3c:	b5ffff60 	cbnz	x0, 5b28 <cmd_unalias+0x51c>
    5b40:	17ffffef 	b	5afc <cmd_unalias+0x4f0>
    5b44:	52800037 	mov	w23, #0x1                   	// #1
    5b48:	14000037 	b	5c24 <cmd_unalias+0x618>
    5b4c:	d37b7f81 	ubfiz	x1, x28, #5, #32
    5b50:	cb000082 	sub	x2, x4, x0
    5b54:	8b000300 	add	x0, x24, x0
    5b58:	b9006fe3 	str	w3, [sp, #108]
    5b5c:	f8616b21 	ldr	x1, [x25, x1]
    5b60:	f90033e1 	str	x1, [sp, #96]
    5b64:	94000000 	bl	dc70 <strlcpy>	5b64: R_AARCH64_CALL26	strlcpy
    5b68:	0b0002b5 	add	w21, w21, w0
    5b6c:	f94033e1 	ldr	x1, [sp, #96]
    5b70:	aa0103e0 	mov	x0, x1
    5b74:	94000000 	bl	940 <strlen>	5b74: R_AARCH64_CALL26	strlen
    5b78:	2a0003e1 	mov	w1, w0
    5b7c:	b9406fe3 	ldr	w3, [sp, #108]
    5b80:	4b0002a5 	sub	w5, w21, w0
    5b84:	d2800aa4 	mov	x4, #0x55                  	// #85
    5b88:	0b050022 	add	w2, w1, w5
    5b8c:	6b01029f 	cmp	w20, w1
    5b90:	540000e8 	b.hi	5bac <cmd_unalias+0x5a0>  // b.pmore
    5b94:	6b000281 	subs	w1, w20, w0
    5b98:	11000463 	add	w3, w3, #0x1
    5b9c:	1a9f2021 	csel	w1, w1, wzr, cs	// cs = hs, nlast
    5ba0:	0b16039c 	add	w28, w28, w22
    5ba4:	0b150035 	add	w21, w1, w21
    5ba8:	1400002d 	b	5c5c <cmd_unalias+0x650>
    5bac:	11000421 	add	w1, w1, #0x1
    5bb0:	38224b1a 	strb	w26, [x24, w2, uxtw]
    5bb4:	17fffff5 	b	5b88 <cmd_unalias+0x57c>
    5bb8:	b5fff9d6 	cbnz	x22, 5af0 <cmd_unalias+0x4e4>
    5bbc:	aa1303e0 	mov	x0, x19
    5bc0:	90000001 	adrp	x1, ebb8 <_srodata>	5bc0: R_AARCH64_ADR_PREL_PG_HI21	.rodata+0x7ba
    5bc4:	91000021 	add	x1, x1, #0x0	5bc4: R_AARCH64_ADD_ABS_LO12_NC	.rodata+0x7ba
    5bc8:	94000000 	bl	0 <memcpy>	5bc8: R_AARCH64_CALL26	.text+0x5898
    5bcc:	f9401e62 	ldr	x2, [x19, #56]
    5bd0:	90000001 	adrp	x1, ebb8 <_srodata>	5bd0: R_AARCH64_ADR_PREL_PG_HI21	.rodata+0x7bf
    5bd4:	90000019 	adrp	x25, ebb8 <_srodata>	5bd4: R_AARCH64_ADR_PREL_PG_HI21	.rodata+0xce8
    5bd8:	91000021 	add	x1, x1, #0x0	5bd8: R_AARCH64_ADD_ABS_LO12_NC	.rodata+0x7bf
    5bdc:	aa1303e0 	mov	x0, x19
    5be0:	91000339 	add	x25, x25, #0x0	5be0: R_AARCH64_ADD_ABS_LO12_NC	.rodata+0xce8
    5be4:	d2800015 	mov	x21, #0x0                   	// #0
    5be8:	52800014 	mov	w20, #0x0                   	// #0
    5bec:	d63f0040 	blr	x2
    5bf0:	d37b7ea0 	ubfiz	x0, x21, #5, #32
    5bf4:	910006b5 	add	x21, x21, #0x1
    5bf8:	f8606b20 	ldr	x0, [x25, x0]
    5bfc:	94000000 	bl	940 <strlen>	5bfc: R_AARCH64_CALL26	strlen
    5c00:	6b00029f 	cmp	w20, w0
    5c04:	1a802294 	csel	w20, w20, w0, cs	// cs = hs, nlast
    5c08:	f100d6bf 	cmp	x21, #0x35
    5c0c:	54ffff21 	b.ne	5bf0 <cmd_unalias+0x5e4>  // b.any
    5c10:	11001294 	add	w20, w20, #0x4
    5c14:	7101429f 	cmp	w20, #0x50
    5c18:	54fff968 	b.hi	5b44 <cmd_unalias+0x538>  // b.pmore
    5c1c:	52800a17 	mov	w23, #0x50                  	// #80
    5c20:	1ad40af7 	udiv	w23, w23, w20
    5c24:	1100d2f6 	add	w22, w23, #0x34
    5c28:	2a1703e0 	mov	w0, w23
    5c2c:	9101e3f8 	add	x24, sp, #0x78
    5c30:	d280001b 	mov	x27, #0x0                   	// #0
    5c34:	5280041a 	mov	w26, #0x20                  	// #32
    5c38:	9ac00ad6 	udiv	x22, x22, x0
    5c3c:	2a1b03fc 	mov	w28, w27
    5c40:	6b16037f 	cmp	w27, w22
    5c44:	54fff5c2 	b.cs	5afc <cmd_unalias+0x4f0>  // b.hs, b.nlast
    5c48:	4f01e41f 	movi	v31.16b, #0x20
    5c4c:	52800095 	mov	w21, #0x4                   	// #4
    5c50:	52800003 	mov	w3, #0x0                   	// #0
    5c54:	d2800aa4 	mov	x4, #0x55                  	// #85
    5c58:	bd00031f 	str	s31, [x24]
    5c5c:	7100d39f 	cmp	w28, #0x34
    5c60:	2a1503e0 	mov	w0, w21
    5c64:	7a4392e0 	ccmp	w23, w3, #0x0, ls	// ls = plast
    5c68:	54fff728 	b.hi	5b4c <cmd_unalias+0x540>  // b.pmore
    5c6c:	f9400e63 	ldr	x3, [x19, #24]
    5c70:	52800141 	mov	w1, #0xa                   	// #10
    5c74:	38206b01 	strb	w1, [x24, x0]
    5c78:	110006a2 	add	w2, w21, #0x1
    5c7c:	aa1803e1 	mov	x1, x24
    5c80:	aa1303e0 	mov	x0, x19
    5c84:	9100077b 	add	x27, x27, #0x1
    5c88:	d63f0060 	blr	x3
    5c8c:	17ffffec 	b	5c3c <cmd_unalias+0x630>
    5c90:	f9401e62 	ldr	x2, [x19, #56]
    5c94:	aa1303e0 	mov	x0, x19
    5c98:	90000001 	adrp	x1, ebb8 <_srodata>	5c98: R_AARCH64_ADR_PREL_PG_HI21	.rodata+0x7c1
    5c9c:	90000014 	adrp	x20, ebb8 <_srodata>	5c9c: R_AARCH64_ADR_PREL_PG_HI21	.rodata+0xce8
    5ca0:	91000021 	add	x1, x1, #0x0	5ca0: R_AARCH64_ADD_ABS_LO12_NC	.rodata+0x7c1
    5ca4:	91000294 	add	x20, x20, #0x0	5ca4: R_AARCH64_ADD_ABS_LO12_NC	.rodata+0xce8
    5ca8:	d63f0040 	blr	x2
    5cac:	17ffffa3 	b	5b38 <cmd_unalias+0x52c>

0000000000005cb0 <nsh_command>:
nsh_command():
    5cb0:	a9bd4ffe 	stp	x30, x19, [sp, #-48]!
    5cb4:	aa0003f3 	mov	x19, x0
    5cb8:	a90157f4 	stp	x20, x21, [sp, #16]
    5cbc:	90000014 	adrp	x20, ebb8 <_srodata>	5cbc: R_AARCH64_ADR_PREL_PG_HI21	.rodata+0xce8
    5cc0:	2a0103f5 	mov	w21, w1
    5cc4:	a9025ff6 	stp	x22, x23, [sp, #32]
    5cc8:	91000294 	add	x20, x20, #0x0	5cc8: R_AARCH64_ADD_ABS_LO12_NC	.rodata+0xce8
    5ccc:	aa0203f6 	mov	x22, x2
    5cd0:	f9400057 	ldr	x23, [x2]
    5cd4:	f9400280 	ldr	x0, [x20]
    5cd8:	b5000080 	cbnz	x0, 5ce8 <nsh_command+0x38>
    5cdc:	90000003 	adrp	x3, 0 <memcpy>	5cdc: R_AARCH64_ADR_PREL_PG_HI21	.text+0x56f4
    5ce0:	91000063 	add	x3, x3, #0x0	5ce0: R_AARCH64_ADD_ABS_LO12_NC	.text+0x56f4
    5ce4:	1400001c 	b	5d54 <nsh_command+0xa4>
    5ce8:	aa1703e1 	mov	x1, x23
    5cec:	94000000 	bl	680 <strcmp>	5cec: R_AARCH64_CALL26	strcmp
    5cf0:	35000420 	cbnz	w0, 5d74 <nsh_command+0xc4>
    5cf4:	39404280 	ldrb	w0, [x20, #16]
    5cf8:	6b15001f 	cmp	w0, w21
    5cfc:	540001ad 	b.le	5d30 <nsh_command+0x80>
    5d00:	f9401a63 	ldr	x3, [x19, #48]
    5d04:	90000001 	adrp	x1, f137 <g_fmtargrequired>	5d04: R_AARCH64_ADR_PREL_PG_HI21	g_fmtargrequired
    5d08:	aa1703e2 	mov	x2, x23
    5d0c:	91000021 	add	x1, x1, #0x0	5d0c: R_AARCH64_ADD_ABS_LO12_NC	g_fmtargrequired
    5d10:	12800014 	mov	w20, #0xffffffff            	// #-1
    5d14:	aa1303e0 	mov	x0, x19
    5d18:	d63f0060 	blr	x3
    5d1c:	2a1403e0 	mov	w0, w20
    5d20:	a94157f4 	ldp	x20, x21, [sp, #16]
    5d24:	a9425ff6 	ldp	x22, x23, [sp, #32]
    5d28:	a8c34ffe 	ldp	x30, x19, [sp], #48
    5d2c:	d65f03c0 	ret
    5d30:	39404680 	ldrb	w0, [x20, #17]
    5d34:	6b15001f 	cmp	w0, w21
    5d38:	540000ca 	b.ge	5d50 <nsh_command+0xa0>  // b.tcont
    5d3c:	f9401a63 	ldr	x3, [x19, #48]
    5d40:	90000001 	adrp	x1, f094 <g_fmttoomanyargs>	5d40: R_AARCH64_ADR_PREL_PG_HI21	g_fmttoomanyargs
    5d44:	aa1703e2 	mov	x2, x23
    5d48:	91000021 	add	x1, x1, #0x0	5d48: R_AARCH64_ADD_ABS_LO12_NC	g_fmttoomanyargs
    5d4c:	17fffff1 	b	5d10 <nsh_command+0x60>
    5d50:	f9400683 	ldr	x3, [x20, #8]
    5d54:	aa1603e2 	mov	x2, x22
    5d58:	2a1503e1 	mov	w1, w21
    5d5c:	aa1303e0 	mov	x0, x19
    5d60:	d63f0060 	blr	x3
    5d64:	2a0003f4 	mov	w20, w0
    5d68:	94000000 	bl	e898 <getpid>	5d68: R_AARCH64_CALL26	getpid
    5d6c:	b902a660 	str	w0, [x19, #676]
    5d70:	17ffffeb 	b	5d1c <nsh_command+0x6c>
    5d74:	91008294 	add	x20, x20, #0x20
    5d78:	17ffffd7 	b	5cd4 <nsh_command+0x24>

0000000000005d7c <nsh_dumpbuffer>:
nsh_dumpbuffer():
    5d7c:	a9b04ffe 	stp	x30, x19, [sp, #-256]!
    5d80:	d2800013 	mov	x19, #0x0                   	// #0
    5d84:	a90157f4 	stp	x20, x21, [sp, #16]
    5d88:	aa0303f4 	mov	x20, x3
    5d8c:	aa0003f5 	mov	x21, x0
    5d90:	a9025ff6 	stp	x22, x23, [sp, #32]
    5d94:	a90367f8 	stp	x24, x25, [sp, #48]
    5d98:	90000018 	adrp	x24, ebb8 <_srodata>	5d98: R_AARCH64_ADR_PREL_PG_HI21	.rodata+0x13ad
    5d9c:	90000019 	adrp	x25, ebb8 <_srodata>	5d9c: R_AARCH64_ADR_PREL_PG_HI21	.rodata+0x13ba
    5da0:	a9046ffa 	stp	x26, x27, [sp, #64]
    5da4:	f9002bfc 	str	x28, [sp, #80]
    5da8:	f90037e2 	str	x2, [sp, #104]
    5dac:	aa0103e2 	mov	x2, x1
    5db0:	f9401c03 	ldr	x3, [x0, #56]
    5db4:	90000001 	adrp	x1, ebb8 <_srodata>	5db4: R_AARCH64_ADR_PREL_PG_HI21	.rodata+0x13a8
    5db8:	91000021 	add	x1, x1, #0x0	5db8: R_AARCH64_ADD_ABS_LO12_NC	.rodata+0x13a8
    5dbc:	d63f0060 	blr	x3
    5dc0:	91000300 	add	x0, x24, #0x0	5dc0: R_AARCH64_ADD_ABS_LO12_NC	.rodata+0x13ad
    5dc4:	f9003be0 	str	x0, [sp, #112]
    5dc8:	91000320 	add	x0, x25, #0x0	5dc8: R_AARCH64_ADD_ABS_LO12_NC	.rodata+0x13ba
    5dcc:	f9003fe0 	str	x0, [sp, #120]
    5dd0:	eb13029f 	cmp	x20, x19
    5dd4:	5400010c 	b.gt	5df4 <nsh_dumpbuffer+0x78>
    5dd8:	f9402bfc 	ldr	x28, [sp, #80]
    5ddc:	a94157f4 	ldp	x20, x21, [sp, #16]
    5de0:	a9425ff6 	ldp	x22, x23, [sp, #32]
    5de4:	a94367f8 	ldp	x24, x25, [sp, #48]
    5de8:	a9446ffa 	ldp	x26, x27, [sp, #64]
    5dec:	a8d04ffe 	ldp	x30, x19, [sp], #256
    5df0:	d65f03c0 	ret
    5df4:	f9403be2 	ldr	x2, [sp, #112]
    5df8:	2a1303e3 	mov	w3, w19
    5dfc:	910203f6 	add	x22, sp, #0x80
    5e00:	d2801001 	mov	x1, #0x80                  	// #128
    5e04:	aa1603e0 	mov	x0, x22
    5e08:	9000001b 	adrp	x27, ebb8 <_srodata>	5e08: R_AARCH64_ADR_PREL_PG_HI21	.rodata+0x13b4
    5e0c:	94000000 	bl	d04c <snprintf>	5e0c: R_AARCH64_CALL26	snprintf
    5e10:	aa1303f7 	mov	x23, x19
    5e14:	aa1603e0 	mov	x0, x22
    5e18:	9100037b 	add	x27, x27, #0x0	5e18: R_AARCH64_ADD_ABS_LO12_NC	.rodata+0x13b4
    5e1c:	94000000 	bl	940 <strlen>	5e1c: R_AARCH64_CALL26	strlen
    5e20:	aa0003f9 	mov	x25, x0
    5e24:	d280101c 	mov	x28, #0x80                  	// #128
    5e28:	8b1902da 	add	x26, x22, x25
    5e2c:	eb17029f 	cmp	x20, x23
    5e30:	5400058d 	b.le	5ee0 <nsh_dumpbuffer+0x164>
    5e34:	f94037e0 	ldr	x0, [sp, #104]
    5e38:	aa1b03e2 	mov	x2, x27
    5e3c:	cb190381 	sub	x1, x28, x25
    5e40:	38776803 	ldrb	w3, [x0, x23]
    5e44:	aa1a03e0 	mov	x0, x26
    5e48:	94000000 	bl	d04c <snprintf>	5e48: R_AARCH64_CALL26	snprintf
    5e4c:	aa1a03e0 	mov	x0, x26
    5e50:	910006f7 	add	x23, x23, #0x1
    5e54:	94000000 	bl	940 <strlen>	5e54: R_AARCH64_CALL26	strlen
    5e58:	91004278 	add	x24, x19, #0x10
    5e5c:	8b000339 	add	x25, x25, x0
    5e60:	eb1802ff 	cmp	x23, x24
    5e64:	54fffe21 	b.ne	5e28 <nsh_dumpbuffer+0xac>  // b.any
    5e68:	9000001a 	adrp	x26, ebb8 <_srodata>	5e68: R_AARCH64_ADR_PREL_PG_HI21	.rodata+0x13be
    5e6c:	9100035a 	add	x26, x26, #0x0	5e6c: R_AARCH64_ADD_ABS_LO12_NC	.rodata+0x13be
    5e70:	d280101c 	mov	x28, #0x80                  	// #128
    5e74:	528005c5 	mov	w5, #0x2e                  	// #46
    5e78:	eb13029f 	cmp	x20, x19
    5e7c:	540001ed 	b.le	5eb8 <nsh_dumpbuffer+0x13c>
    5e80:	f94037e0 	ldr	x0, [sp, #104]
    5e84:	cb190381 	sub	x1, x28, x25
    5e88:	aa1a03e2 	mov	x2, x26
    5e8c:	8b1902db 	add	x27, x22, x25
    5e90:	38736803 	ldrb	w3, [x0, x19]
    5e94:	51008060 	sub	w0, w3, #0x20
    5e98:	71017c1f 	cmp	w0, #0x5f
    5e9c:	aa1b03e0 	mov	x0, x27
    5ea0:	1a853063 	csel	w3, w3, w5, cc	// cc = lo, ul, last
    5ea4:	94000000 	bl	d04c <snprintf>	5ea4: R_AARCH64_CALL26	snprintf
    5ea8:	aa1b03e0 	mov	x0, x27
    5eac:	94000000 	bl	940 <strlen>	5eac: R_AARCH64_CALL26	strlen
    5eb0:	8b000339 	add	x25, x25, x0
    5eb4:	528005c5 	mov	w5, #0x2e                  	// #46
    5eb8:	91000673 	add	x19, x19, #0x1
    5ebc:	eb18027f 	cmp	x19, x24
    5ec0:	54fffdc1 	b.ne	5e78 <nsh_dumpbuffer+0xfc>  // b.any
    5ec4:	f9401ea3 	ldr	x3, [x21, #56]
    5ec8:	aa1603e2 	mov	x2, x22
    5ecc:	aa1503e0 	mov	x0, x21
    5ed0:	90000001 	adrp	x1, ebb8 <_srodata>	5ed0: R_AARCH64_ADR_PREL_PG_HI21	.rodata+0x13c1
    5ed4:	91000021 	add	x1, x1, #0x0	5ed4: R_AARCH64_ADD_ABS_LO12_NC	.rodata+0x13c1
    5ed8:	d63f0060 	blr	x3
    5edc:	17ffffbd 	b	5dd0 <nsh_dumpbuffer+0x54>
    5ee0:	f9403fe1 	ldr	x1, [sp, #120]
    5ee4:	cb190382 	sub	x2, x28, x25
    5ee8:	aa1a03e0 	mov	x0, x26
    5eec:	94000000 	bl	dc70 <strlcpy>	5eec: R_AARCH64_CALL26	strlcpy
    5ef0:	17ffffd7 	b	5e4c <nsh_dumpbuffer+0xd0>

0000000000005ef4 <cmd_xd>:
cmd_xd():
    5ef4:	a9bd4ffe 	stp	x30, x19, [sp, #-48]!
    5ef8:	aa0203f3 	mov	x19, x2
    5efc:	52800202 	mov	w2, #0x10                  	// #16
    5f00:	a90157f4 	stp	x20, x21, [sp, #16]
    5f04:	aa0003f4 	mov	x20, x0
    5f08:	9100a3e1 	add	x1, sp, #0x28
    5f0c:	f9400660 	ldr	x0, [x19, #8]
    5f10:	94000000 	bl	d648 <strtoul>	5f10: R_AARCH64_CALL26	strtoul
    5f14:	aa0003f5 	mov	x21, x0
    5f18:	f9400260 	ldr	x0, [x19]
    5f1c:	39400000 	ldrb	w0, [x0]
    5f20:	350000a0 	cbnz	w0, 5f34 <cmd_xd+0x40>
    5f24:	12800000 	mov	w0, #0xffffffff            	// #-1
    5f28:	a94157f4 	ldp	x20, x21, [sp, #16]
    5f2c:	a8c34ffe 	ldp	x30, x19, [sp], #48
    5f30:	d65f03c0 	ret
    5f34:	f94017e0 	ldr	x0, [sp, #40]
    5f38:	39400000 	ldrb	w0, [x0]
    5f3c:	35ffff40 	cbnz	w0, 5f24 <cmd_xd+0x30>
    5f40:	f9400a60 	ldr	x0, [x19, #16]
    5f44:	9100a3e1 	add	x1, sp, #0x28
    5f48:	52800002 	mov	w2, #0x0                   	// #0
    5f4c:	94000000 	bl	d574 <strtol>	5f4c: R_AARCH64_CALL26	strtol
    5f50:	aa0003e3 	mov	x3, x0
    5f54:	f9400260 	ldr	x0, [x19]
    5f58:	39400000 	ldrb	w0, [x0]
    5f5c:	34fffe40 	cbz	w0, 5f24 <cmd_xd+0x30>
    5f60:	f94017e0 	ldr	x0, [sp, #40]
    5f64:	39400000 	ldrb	w0, [x0]
    5f68:	35fffde0 	cbnz	w0, 5f24 <cmd_xd+0x30>
    5f6c:	37fffdc3 	tbnz	w3, #31, 5f24 <cmd_xd+0x30>
    5f70:	aa1403e0 	mov	x0, x20
    5f74:	93407c63 	sxtw	x3, w3
    5f78:	aa1503e2 	mov	x2, x21
    5f7c:	90000001 	adrp	x1, ebb8 <_srodata>	5f7c: R_AARCH64_ADR_PREL_PG_HI21	.rodata+0x13c5
    5f80:	91000021 	add	x1, x1, #0x0	5f80: R_AARCH64_ADD_ABS_LO12_NC	.rodata+0x13c5
    5f84:	94000000 	bl	5d7c <nsh_dumpbuffer>	5f84: R_AARCH64_CALL26	nsh_dumpbuffer
    5f88:	52800000 	mov	w0, #0x0                   	// #0
    5f8c:	17ffffe7 	b	5f28 <cmd_xd+0x34>

0000000000005f90 <cmd_hexdump>:
cmd_hexdump():
    5f90:	a9b74ffe 	stp	x30, x19, [sp, #-144]!
    5f94:	a90157f4 	stp	x20, x21, [sp, #16]
    5f98:	aa0003f4 	mov	x20, x0
    5f9c:	a9025ff6 	stp	x22, x23, [sp, #32]
    5fa0:	a90367f8 	stp	x24, x25, [sp, #48]
    5fa4:	aa0203f9 	mov	x25, x2
    5fa8:	a9046ffa 	stp	x26, x27, [sp, #64]
    5fac:	2a0103fa 	mov	w26, w1
    5fb0:	52800021 	mov	w1, #0x1                   	// #1
    5fb4:	f9002bfc 	str	x28, [sp, #80]
    5fb8:	f9400440 	ldr	x0, [x2, #8]
    5fbc:	94000000 	bl	e9c0 <open>	5fbc: R_AARCH64_CALL26	open
    5fc0:	36f802a0 	tbz	w0, #31, 6014 <cmd_hexdump+0x84>
    5fc4:	f9401a93 	ldr	x19, [x20, #48]
    5fc8:	94000000 	bl	2454 <__errno>	5fc8: R_AARCH64_CALL26	__errno
    5fcc:	b9400004 	ldr	w4, [x0]
    5fd0:	90000003 	adrp	x3, ebb8 <_srodata>	5fd0: R_AARCH64_ADR_PREL_PG_HI21	.rodata+0x13ce
    5fd4:	91000063 	add	x3, x3, #0x0	5fd4: R_AARCH64_ADD_ABS_LO12_NC	.rodata+0x13ce
    5fd8:	aa1403e0 	mov	x0, x20
    5fdc:	90000002 	adrp	x2, ebb8 <_srodata>	5fdc: R_AARCH64_ADR_PREL_PG_HI21	.rodata+0x13d3
    5fe0:	90000001 	adrp	x1, f03d <g_fmtcmdfailed>	5fe0: R_AARCH64_ADR_PREL_PG_HI21	g_fmtcmdfailed
    5fe4:	91000042 	add	x2, x2, #0x0	5fe4: R_AARCH64_ADD_ABS_LO12_NC	.rodata+0x13d3
    5fe8:	91000021 	add	x1, x1, #0x0	5fe8: R_AARCH64_ADD_ABS_LO12_NC	g_fmtcmdfailed
    5fec:	d63f0260 	blr	x19
    5ff0:	12800013 	mov	w19, #0xffffffff            	// #-1
    5ff4:	f9402bfc 	ldr	x28, [sp, #80]
    5ff8:	2a1303e0 	mov	w0, w19
    5ffc:	a94157f4 	ldp	x20, x21, [sp, #16]
    6000:	a9425ff6 	ldp	x22, x23, [sp, #32]
    6004:	a94367f8 	ldp	x24, x25, [sp, #48]
    6008:	a9446ffa 	ldp	x26, x27, [sp, #64]
    600c:	a8c94ffe 	ldp	x30, x19, [sp], #144
    6010:	d65f03c0 	ret
    6014:	2a0003f8 	mov	w24, w0
    6018:	d2804000 	mov	x0, #0x200                 	// #512
    601c:	94000000 	bl	b5a8 <malloc>	601c: R_AARCH64_CALL26	malloc
    6020:	aa0003f6 	mov	x22, x0
    6024:	b5000740 	cbnz	x0, 610c <cmd_hexdump+0x17c>
    6028:	2a1803e0 	mov	w0, w24
    602c:	94000000 	bl	e814 <close>	602c: R_AARCH64_CALL26	close
    6030:	f9401a93 	ldr	x19, [x20, #48]
    6034:	94000000 	bl	2454 <__errno>	6034: R_AARCH64_CALL26	__errno
    6038:	90000003 	adrp	x3, ebb8 <_srodata>	6038: R_AARCH64_ADR_PREL_PG_HI21	.rodata+0x13db
    603c:	b9400004 	ldr	w4, [x0]
    6040:	91000063 	add	x3, x3, #0x0	6040: R_AARCH64_ADD_ABS_LO12_NC	.rodata+0x13db
    6044:	17ffffe5 	b	5fd8 <cmd_hexdump+0x48>
    6048:	f94037e1 	ldr	x1, [sp, #104]
    604c:	d28000a2 	mov	x2, #0x5                   	// #5
    6050:	f8757b3b 	ldr	x27, [x25, x21, lsl #3]
    6054:	aa1b03e0 	mov	x0, x27
    6058:	94000000 	bl	a9c <strncmp>	6058: R_AARCH64_CALL26	strncmp
    605c:	35000460 	cbnz	w0, 60e8 <cmd_hexdump+0x158>
    6060:	91001760 	add	x0, x27, #0x5
    6064:	94000000 	bl	d2d0 <atoi>	6064: R_AARCH64_CALL26	atoi
    6068:	2a0003f7 	mov	w23, w0
    606c:	910006b5 	add	x21, x21, #0x1
    6070:	6b15035f 	cmp	w26, w21
    6074:	54fffeac 	b.gt	6048 <cmd_hexdump+0xb8>
    6078:	9000001a 	adrp	x26, ebb8 <_srodata>	6078: R_AARCH64_ADR_PREL_PG_HI21	.rodata+0x13f4
    607c:	5280001c 	mov	w28, #0x0                   	// #0
    6080:	91000340 	add	x0, x26, #0x0	6080: R_AARCH64_ADD_ABS_LO12_NC	.rodata+0x13f4
    6084:	f90037e0 	str	x0, [sp, #104]
    6088:	aa1603e1 	mov	x1, x22
    608c:	2a1803e0 	mov	w0, w24
    6090:	d2804002 	mov	x2, #0x200                 	// #512
    6094:	94000000 	bl	ea70 <read>	6094: R_AARCH64_CALL26	read
    6098:	aa0003f5 	mov	x21, x0
    609c:	7100001f 	cmp	w0, #0x0
    60a0:	5400048a 	b.ge	6130 <cmd_hexdump+0x1a0>  // b.tcont
    60a4:	f9401a93 	ldr	x19, [x20, #48]
    60a8:	94000000 	bl	2454 <__errno>	60a8: R_AARCH64_CALL26	__errno
    60ac:	b9400004 	ldr	w4, [x0]
    60b0:	90000003 	adrp	x3, ebb8 <_srodata>	60b0: R_AARCH64_ADR_PREL_PG_HI21	.rodata+0x13ef
    60b4:	aa1403e0 	mov	x0, x20
    60b8:	91000063 	add	x3, x3, #0x0	60b8: R_AARCH64_ADD_ABS_LO12_NC	.rodata+0x13ef
    60bc:	90000002 	adrp	x2, ebb8 <_srodata>	60bc: R_AARCH64_ADR_PREL_PG_HI21	.rodata+0x13d3
    60c0:	90000001 	adrp	x1, f03d <g_fmtcmdfailed>	60c0: R_AARCH64_ADR_PREL_PG_HI21	g_fmtcmdfailed
    60c4:	91000042 	add	x2, x2, #0x0	60c4: R_AARCH64_ADD_ABS_LO12_NC	.rodata+0x13d3
    60c8:	91000021 	add	x1, x1, #0x0	60c8: R_AARCH64_ADD_ABS_LO12_NC	g_fmtcmdfailed
    60cc:	d63f0260 	blr	x19
    60d0:	12800013 	mov	w19, #0xffffffff            	// #-1
    60d4:	2a1803e0 	mov	w0, w24
    60d8:	94000000 	bl	e814 <close>	60d8: R_AARCH64_CALL26	close
    60dc:	aa1603e0 	mov	x0, x22
    60e0:	94000000 	bl	b598 <free>	60e0: R_AARCH64_CALL26	free
    60e4:	17ffffc4 	b	5ff4 <cmd_hexdump+0x64>
    60e8:	aa1c03e1 	mov	x1, x28
    60ec:	aa1b03e0 	mov	x0, x27
    60f0:	d28000c2 	mov	x2, #0x6                   	// #6
    60f4:	94000000 	bl	a9c <strncmp>	60f4: R_AARCH64_CALL26	strncmp
    60f8:	35fffba0 	cbnz	w0, 606c <cmd_hexdump+0xdc>
    60fc:	91001b60 	add	x0, x27, #0x6
    6100:	94000000 	bl	d2d0 <atoi>	6100: R_AARCH64_CALL26	atoi
    6104:	2a0003f3 	mov	w19, w0
    6108:	17ffffd9 	b	606c <cmd_hexdump+0xdc>
    610c:	9000001b 	adrp	x27, ebb8 <_srodata>	610c: R_AARCH64_ADR_PREL_PG_HI21	.rodata+0x13e2
    6110:	9000001c 	adrp	x28, ebb8 <_srodata>	6110: R_AARCH64_ADR_PREL_PG_HI21	.rodata+0x13e8
    6114:	91000360 	add	x0, x27, #0x0	6114: R_AARCH64_ADD_ABS_LO12_NC	.rodata+0x13e2
    6118:	9100039c 	add	x28, x28, #0x0	6118: R_AARCH64_ADD_ABS_LO12_NC	.rodata+0x13e8
    611c:	d2800055 	mov	x21, #0x2                   	// #2
    6120:	12be0013 	mov	w19, #0xfffffff             	// #268435455
    6124:	52800017 	mov	w23, #0x0                   	// #0
    6128:	f90037e0 	str	x0, [sp, #104]
    612c:	17ffffd1 	b	6070 <cmd_hexdump+0xe0>
    6130:	54000520 	b.eq	61d4 <cmd_hexdump+0x244>  // b.none
    6134:	6b17039f 	cmp	w28, w23
    6138:	540002ea 	b.ge	6194 <cmd_hexdump+0x204>  // b.tcont
    613c:	0b00039c 	add	w28, w28, w0
    6140:	6b1c02ff 	cmp	w23, w28
    6144:	54fffa2a 	b.ge	6088 <cmd_hexdump+0xf8>  // b.tcont
    6148:	f9400723 	ldr	x3, [x25, #8]
    614c:	4b17039a 	sub	w26, w28, w23
    6150:	f94037e2 	ldr	x2, [sp, #104]
    6154:	6b1a027f 	cmp	w19, w26
    6158:	93407ee4 	sxtw	x4, w23
    615c:	1a9ad27b 	csel	w27, w19, w26, le
    6160:	4b1a02b5 	sub	w21, w21, w26
    6164:	d2800401 	mov	x1, #0x20                  	// #32
    6168:	9101c3e0 	add	x0, sp, #0x70
    616c:	94000000 	bl	d04c <snprintf>	616c: R_AARCH64_CALL26	snprintf
    6170:	93407f63 	sxtw	x3, w27
    6174:	8b35c2c2 	add	x2, x22, w21, sxtw
    6178:	9101c3e1 	add	x1, sp, #0x70
    617c:	aa1403e0 	mov	x0, x20
    6180:	94000000 	bl	5d7c <nsh_dumpbuffer>	6180: R_AARCH64_CALL26	nsh_dumpbuffer
    6184:	6b1a027f 	cmp	w19, w26
    6188:	5400026d 	b.le	61d4 <cmd_hexdump+0x244>
    618c:	4b1b0273 	sub	w19, w19, w27
    6190:	17ffffbe 	b	6088 <cmd_hexdump+0xf8>
    6194:	f9400723 	ldr	x3, [x25, #8]
    6198:	6b00027f 	cmp	w19, w0
    619c:	f94037e2 	ldr	x2, [sp, #104]
    61a0:	93407f84 	sxtw	x4, w28
    61a4:	1a80d27b 	csel	w27, w19, w0, le
    61a8:	d2800401 	mov	x1, #0x20                  	// #32
    61ac:	9101c3e0 	add	x0, sp, #0x70
    61b0:	0b1b039c 	add	w28, w28, w27
    61b4:	94000000 	bl	d04c <snprintf>	61b4: R_AARCH64_CALL26	snprintf
    61b8:	93407f63 	sxtw	x3, w27
    61bc:	aa1603e2 	mov	x2, x22
    61c0:	9101c3e1 	add	x1, sp, #0x70
    61c4:	aa1403e0 	mov	x0, x20
    61c8:	94000000 	bl	5d7c <nsh_dumpbuffer>	61c8: R_AARCH64_CALL26	nsh_dumpbuffer
    61cc:	6b15027f 	cmp	w19, w21
    61d0:	17ffffee 	b	6188 <cmd_hexdump+0x1f8>
    61d4:	52800013 	mov	w19, #0x0                   	// #0
    61d8:	17ffffbf 	b	60d4 <cmd_hexdump+0x144>
    61dc:	a9be4ffe 	stp	x30, x19, [sp, #-32]!
    61e0:	aa0003f3 	mov	x19, x0
    61e4:	d2800000 	mov	x0, #0x0                   	// #0
    61e8:	a90157f4 	stp	x20, x21, [sp, #16]
    61ec:	f9401e75 	ldr	x21, [x19, #56]
    61f0:	f9001a7f 	str	xzr, [x19, #48]
    61f4:	f9401662 	ldr	x2, [x19, #40]
    61f8:	aa1503e1 	mov	x1, x21
    61fc:	cb000042 	sub	x2, x2, x0
    6200:	b9400a60 	ldr	w0, [x19, #8]
    6204:	94000000 	bl	ea70 <read>	6204: R_AARCH64_CALL26	read
    6208:	aa0003f4 	mov	x20, x0
    620c:	b6f802a0 	tbz	x0, #63, 6260 <cmd_hexdump+0x2d0>
    6210:	94000000 	bl	2454 <__errno>	6210: R_AARCH64_CALL26	__errno
    6214:	b9400000 	ldr	w0, [x0]
    6218:	7100101f 	cmp	w0, #0x4
    621c:	540002a0 	b.eq	6270 <cmd_hexdump+0x2e0>  // b.none
    6220:	f9400273 	ldr	x19, [x19]
    6224:	f9401a74 	ldr	x20, [x19, #48]
    6228:	94000000 	bl	2454 <__errno>	6228: R_AARCH64_CALL26	__errno
    622c:	b9400004 	ldr	w4, [x0]
    6230:	90000003 	adrp	x3, ebb8 <_srodata>	6230: R_AARCH64_ADR_PREL_PG_HI21	.rodata+0x1400
    6234:	aa1303e0 	mov	x0, x19
    6238:	91000063 	add	x3, x3, #0x0	6238: R_AARCH64_ADD_ABS_LO12_NC	.rodata+0x1400
    623c:	90000002 	adrp	x2, ebb8 <_srodata>	623c: R_AARCH64_ADR_PREL_PG_HI21	.rodata+0x1405
    6240:	90000001 	adrp	x1, f03d <g_fmtcmdfailed>	6240: R_AARCH64_ADR_PREL_PG_HI21	g_fmtcmdfailed
    6244:	91000042 	add	x2, x2, #0x0	6244: R_AARCH64_ADD_ABS_LO12_NC	.rodata+0x1405
    6248:	91000021 	add	x1, x1, #0x0	6248: R_AARCH64_ADD_ABS_LO12_NC	g_fmtcmdfailed
    624c:	d63f0280 	blr	x20
    6250:	12800000 	mov	w0, #0xffffffff            	// #-1
    6254:	a94157f4 	ldp	x20, x21, [sp, #16]
    6258:	a8c24ffe 	ldp	x30, x19, [sp], #32
    625c:	d65f03c0 	ret
    6260:	8b0002b5 	add	x21, x21, x0
    6264:	f9401a60 	ldr	x0, [x19, #48]
    6268:	8b140000 	add	x0, x0, x20
    626c:	f9001a60 	str	x0, [x19, #48]
    6270:	a9428261 	ldp	x1, x0, [x19, #40]
    6274:	eb01001f 	cmp	x0, x1
    6278:	54000042 	b.cs	6280 <cmd_hexdump+0x2f0>  // b.hs, b.nlast
    627c:	b5fffbd4 	cbnz	x20, 61f4 <cmd_hexdump+0x264>
    6280:	39408261 	ldrb	w1, [x19, #32]
    6284:	f100001f 	cmp	x0, #0x0
    6288:	1a9f17e0 	cset	w0, eq	// eq = none
    628c:	2a010000 	orr	w0, w0, w1
    6290:	39008260 	strb	w0, [x19, #32]
    6294:	52800000 	mov	w0, #0x0                   	// #0
    6298:	17ffffef 	b	6254 <cmd_hexdump+0x2c4>

000000000000629c <cmd_dd>:
cmd_dd():
    629c:	4f00041f 	movi	v31.4s, #0x0
    62a0:	a9b44ffe 	stp	x30, x19, [sp, #-192]!
    62a4:	aa0003f3 	mov	x19, x0
    62a8:	d2804000 	mov	x0, #0x200                 	// #512
    62ac:	a90157f4 	stp	x20, x21, [sp, #16]
    62b0:	d2800015 	mov	x21, #0x0                   	// #0
    62b4:	3c8a43ff 	stur	q31, [sp, #164]
    62b8:	a9025ff6 	stp	x22, x23, [sp, #32]
    62bc:	d2800016 	mov	x22, #0x0                   	// #0
    62c0:	a90367f8 	stp	x24, x25, [sp, #48]
    62c4:	aa0203f9 	mov	x25, x2
    62c8:	d2800038 	mov	x24, #0x1                   	// #1
    62cc:	a9046ffa 	stp	x26, x27, [sp, #64]
    62d0:	9000001b 	adrp	x27, ebb8 <_srodata>	62d0: R_AARCH64_ADR_PREL_PG_HI21	.rodata+0x1408
    62d4:	2a0103fa 	mov	w26, w1
    62d8:	f9002bfc 	str	x28, [sp, #80]
    62dc:	9100037b 	add	x27, x27, #0x0	62dc: R_AARCH64_ADD_ABS_LO12_NC	.rodata+0x1408
    62e0:	f90057e0 	str	x0, [sp, #168]
    62e4:	12800000 	mov	w0, #0xffffffff            	// #-1
    62e8:	b90093e0 	str	w0, [sp, #144]
    62ec:	528004c0 	mov	w0, #0x26                  	// #38
    62f0:	3c8943ff 	stur	q31, [sp, #148]
    62f4:	9000001c 	adrp	x28, ebb8 <_srodata>	62f4: R_AARCH64_ADR_PREL_PG_HI21	.rodata+0x140c
    62f8:	9100039c 	add	x28, x28, #0x0	62f8: R_AARCH64_ADD_ABS_LO12_NC	.rodata+0x140c
    62fc:	b9009fe0 	str	w0, [sp, #156]
    6300:	f9419260 	ldr	x0, [x19, #800]
    6304:	f90043f3 	str	x19, [sp, #128]
    6308:	f90047e0 	str	x0, [sp, #136]
    630c:	3d802fff 	str	q31, [sp, #176]
    6310:	b9409ff7 	ldr	w23, [sp, #156]
    6314:	6b18035f 	cmp	w26, w24
    6318:	5400036c 	b.gt	6384 <cmd_dd+0xe8>
    631c:	36001017 	tbz	w23, #0, 651c <cmd_dd+0x280>
    6320:	f10002df 	cmp	x22, #0x0
    6324:	fa401aa4 	ccmp	x21, #0x0, #0x4, ne	// ne = any
    6328:	54000fa1 	b.ne	651c <cmd_dd+0x280>  // b.any
    632c:	f9401a63 	ldr	x3, [x19, #48]
    6330:	90000002 	adrp	x2, ebb8 <_srodata>	6330: R_AARCH64_ADR_PREL_PG_HI21	.rodata+0x1405
    6334:	90000001 	adrp	x1, f137 <g_fmtargrequired>	6334: R_AARCH64_ADR_PREL_PG_HI21	g_fmtargrequired
    6338:	91000042 	add	x2, x2, #0x0	6338: R_AARCH64_ADD_ABS_LO12_NC	.rodata+0x1405
    633c:	91000021 	add	x1, x1, #0x0	633c: R_AARCH64_ADD_ABS_LO12_NC	g_fmtargrequired
    6340:	aa1303e0 	mov	x0, x19
    6344:	12800013 	mov	w19, #0xffffffff            	// #-1
    6348:	d63f0060 	blr	x3
    634c:	b4000076 	cbz	x22, 6358 <cmd_dd+0xbc>
    6350:	aa1603e0 	mov	x0, x22
    6354:	94000000 	bl	698c <nsh_freefullpath>	6354: R_AARCH64_CALL26	nsh_freefullpath
    6358:	b4000075 	cbz	x21, 6364 <cmd_dd+0xc8>
    635c:	aa1503e0 	mov	x0, x21
    6360:	94000000 	bl	698c <nsh_freefullpath>	6360: R_AARCH64_CALL26	nsh_freefullpath
    6364:	f9402bfc 	ldr	x28, [sp, #80]
    6368:	2a1303e0 	mov	w0, w19
    636c:	a94157f4 	ldp	x20, x21, [sp, #16]
    6370:	a9425ff6 	ldp	x22, x23, [sp, #32]
    6374:	a94367f8 	ldp	x24, x25, [sp, #48]
    6378:	a9446ffa 	ldp	x26, x27, [sp, #64]
    637c:	a8cc4ffe 	ldp	x30, x19, [sp], #192
    6380:	d65f03c0 	ret
    6384:	f8787b34 	ldr	x20, [x25, x24, lsl #3]
    6388:	aa1b03e1 	mov	x1, x27
    638c:	d2800062 	mov	x2, #0x3                   	// #3
    6390:	aa1403e0 	mov	x0, x20
    6394:	94000000 	bl	a9c <strncmp>	6394: R_AARCH64_CALL26	strncmp
    6398:	35000160 	cbnz	w0, 63c4 <cmd_dd+0x128>
    639c:	b4000076 	cbz	x22, 63a8 <cmd_dd+0x10c>
    63a0:	aa1603e0 	mov	x0, x22
    63a4:	94000000 	bl	b598 <free>	63a4: R_AARCH64_CALL26	free
    63a8:	f8787b21 	ldr	x1, [x25, x24, lsl #3]
    63ac:	aa1303e0 	mov	x0, x19
    63b0:	91000c21 	add	x1, x1, #0x3
    63b4:	94000000 	bl	68fc <nsh_getfullpath>	63b4: R_AARCH64_CALL26	nsh_getfullpath
    63b8:	aa0003f6 	mov	x22, x0
    63bc:	91000718 	add	x24, x24, #0x1
    63c0:	17ffffd4 	b	6310 <cmd_dd+0x74>
    63c4:	aa1c03e1 	mov	x1, x28
    63c8:	aa1403e0 	mov	x0, x20
    63cc:	d2800062 	mov	x2, #0x3                   	// #3
    63d0:	94000000 	bl	a9c <strncmp>	63d0: R_AARCH64_CALL26	strncmp
    63d4:	35000140 	cbnz	w0, 63fc <cmd_dd+0x160>
    63d8:	b4000075 	cbz	x21, 63e4 <cmd_dd+0x148>
    63dc:	aa1503e0 	mov	x0, x21
    63e0:	94000000 	bl	b598 <free>	63e0: R_AARCH64_CALL26	free
    63e4:	f8787b21 	ldr	x1, [x25, x24, lsl #3]
    63e8:	aa1303e0 	mov	x0, x19
    63ec:	91000c21 	add	x1, x1, #0x3
    63f0:	94000000 	bl	68fc <nsh_getfullpath>	63f0: R_AARCH64_CALL26	nsh_getfullpath
    63f4:	aa0003f5 	mov	x21, x0
    63f8:	17fffff1 	b	63bc <cmd_dd+0x120>
    63fc:	90000001 	adrp	x1, ebb8 <_srodata>	63fc: R_AARCH64_ADR_PREL_PG_HI21	.rodata+0x1410
    6400:	aa1403e0 	mov	x0, x20
    6404:	91000021 	add	x1, x1, #0x0	6404: R_AARCH64_ADD_ABS_LO12_NC	.rodata+0x1410
    6408:	d2800062 	mov	x2, #0x3                   	// #3
    640c:	94000000 	bl	a9c <strncmp>	640c: R_AARCH64_CALL26	strncmp
    6410:	350000c0 	cbnz	w0, 6428 <cmd_dd+0x18c>
    6414:	91000e80 	add	x0, x20, #0x3
    6418:	94000000 	bl	d2d0 <atoi>	6418: R_AARCH64_CALL26	atoi
    641c:	93407c00 	sxtw	x0, w0
    6420:	f90057e0 	str	x0, [sp, #168]
    6424:	17ffffe6 	b	63bc <cmd_dd+0x120>
    6428:	90000001 	adrp	x1, ebb8 <_srodata>	6428: R_AARCH64_ADR_PREL_PG_HI21	.rodata+0x1414
    642c:	aa1403e0 	mov	x0, x20
    6430:	91000021 	add	x1, x1, #0x0	6430: R_AARCH64_ADD_ABS_LO12_NC	.rodata+0x1414
    6434:	d28000c2 	mov	x2, #0x6                   	// #6
    6438:	94000000 	bl	a9c <strncmp>	6438: R_AARCH64_CALL26	strncmp
    643c:	350000a0 	cbnz	w0, 6450 <cmd_dd+0x1b4>
    6440:	91001a80 	add	x0, x20, #0x6
    6444:	94000000 	bl	d2d0 <atoi>	6444: R_AARCH64_CALL26	atoi
    6448:	b90093e0 	str	w0, [sp, #144]
    644c:	17ffffdc 	b	63bc <cmd_dd+0x120>
    6450:	90000001 	adrp	x1, ebb8 <_srodata>	6450: R_AARCH64_ADR_PREL_PG_HI21	.rodata+0x141b
    6454:	aa1403e0 	mov	x0, x20
    6458:	91000021 	add	x1, x1, #0x0	6458: R_AARCH64_ADD_ABS_LO12_NC	.rodata+0x141b
    645c:	d28000a2 	mov	x2, #0x5                   	// #5
    6460:	94000000 	bl	a9c <strncmp>	6460: R_AARCH64_CALL26	strncmp
    6464:	350000a0 	cbnz	w0, 6478 <cmd_dd+0x1dc>
    6468:	91001680 	add	x0, x20, #0x5
    646c:	94000000 	bl	d2d0 <atoi>	646c: R_AARCH64_CALL26	atoi
    6470:	b90097e0 	str	w0, [sp, #148]
    6474:	17ffffd2 	b	63bc <cmd_dd+0x120>
    6478:	90000001 	adrp	x1, ebb8 <_srodata>	6478: R_AARCH64_ADR_PREL_PG_HI21	.rodata+0x1421
    647c:	aa1403e0 	mov	x0, x20
    6480:	91000021 	add	x1, x1, #0x0	6480: R_AARCH64_ADD_ABS_LO12_NC	.rodata+0x1421
    6484:	d28000a2 	mov	x2, #0x5                   	// #5
    6488:	94000000 	bl	a9c <strncmp>	6488: R_AARCH64_CALL26	strncmp
    648c:	350000a0 	cbnz	w0, 64a0 <cmd_dd+0x204>
    6490:	91001680 	add	x0, x20, #0x5
    6494:	94000000 	bl	d2d0 <atoi>	6494: R_AARCH64_CALL26	atoi
    6498:	b9009be0 	str	w0, [sp, #152]
    649c:	17ffffc8 	b	63bc <cmd_dd+0x120>
    64a0:	90000001 	adrp	x1, ebb8 <_srodata>	64a0: R_AARCH64_ADR_PREL_PG_HI21	.rodata+0x1427
    64a4:	aa1403e0 	mov	x0, x20
    64a8:	91000021 	add	x1, x1, #0x0	64a8: R_AARCH64_ADD_ABS_LO12_NC	.rodata+0x1427
    64ac:	d28000c2 	mov	x2, #0x6                   	// #6
    64b0:	94000000 	bl	a9c <strncmp>	64b0: R_AARCH64_CALL26	strncmp
    64b4:	35000080 	cbnz	w0, 64c4 <cmd_dd+0x228>
    64b8:	320002f7 	orr	w23, w23, #0x1
    64bc:	b9009ff7 	str	w23, [sp, #156]
    64c0:	17ffffbf 	b	63bc <cmd_dd+0x120>
    64c4:	90000001 	adrp	x1, ebb8 <_srodata>	64c4: R_AARCH64_ADR_PREL_PG_HI21	.rodata+0x142e
    64c8:	aa1403e0 	mov	x0, x20
    64cc:	91000021 	add	x1, x1, #0x0	64cc: R_AARCH64_ADD_ABS_LO12_NC	.rodata+0x142e
    64d0:	d28000a2 	mov	x2, #0x5                   	// #5
    64d4:	94000000 	bl	a9c <strncmp>	64d4: R_AARCH64_CALL26	strncmp
    64d8:	35fff720 	cbnz	w0, 63bc <cmd_dd+0x120>
    64dc:	90000001 	adrp	x1, ebb8 <_srodata>	64dc: R_AARCH64_ADR_PREL_PG_HI21	.rodata+0x1434
    64e0:	aa1403e0 	mov	x0, x20
    64e4:	91000021 	add	x1, x1, #0x0	64e4: R_AARCH64_ADD_ABS_LO12_NC	.rodata+0x1434
    64e8:	94000000 	bl	db78 <strstr>	64e8: R_AARCH64_CALL26	strstr
    64ec:	b40000a0 	cbz	x0, 6500 <cmd_dd+0x264>
    64f0:	12800480 	mov	w0, #0xffffffdb            	// #-37
    64f4:	0a0002e0 	and	w0, w23, w0
    64f8:	b9009fe0 	str	w0, [sp, #156]
    64fc:	17ffffb0 	b	63bc <cmd_dd+0x120>
    6500:	90000001 	adrp	x1, ebb8 <_srodata>	6500: R_AARCH64_ADR_PREL_PG_HI21	.rodata+0x143c
    6504:	aa1403e0 	mov	x0, x20
    6508:	91000021 	add	x1, x1, #0x0	6508: R_AARCH64_ADD_ABS_LO12_NC	.rodata+0x143c
    650c:	94000000 	bl	db78 <strstr>	650c: R_AARCH64_CALL26	strstr
    6510:	b4fff560 	cbz	x0, 63bc <cmd_dd+0x120>
    6514:	121a7af7 	and	w23, w23, #0xffffffdf
    6518:	17ffffe9 	b	64bc <cmd_dd+0x220>
    651c:	f94057f4 	ldr	x20, [sp, #168]
    6520:	aa1403e0 	mov	x0, x20
    6524:	94000000 	bl	b5a8 <malloc>	6524: R_AARCH64_CALL26	malloc
    6528:	f9005fe0 	str	x0, [sp, #184]
    652c:	b50000e0 	cbnz	x0, 6548 <cmd_dd+0x2ac>
    6530:	f9401a63 	ldr	x3, [x19, #48]
    6534:	90000002 	adrp	x2, ebb8 <_srodata>	6534: R_AARCH64_ADR_PREL_PG_HI21	.rodata+0x1405
    6538:	90000001 	adrp	x1, f025 <g_fmtcmdoutofmemory>	6538: R_AARCH64_ADR_PREL_PG_HI21	g_fmtcmdoutofmemory
    653c:	91000042 	add	x2, x2, #0x0	653c: R_AARCH64_ADD_ABS_LO12_NC	.rodata+0x1405
    6540:	91000021 	add	x1, x1, #0x0	6540: R_AARCH64_ADD_ABS_LO12_NC	g_fmtcmdoutofmemory
    6544:	17ffff7f 	b	6340 <cmd_dd+0xa4>
    6548:	b40002b6 	cbz	x22, 659c <cmd_dd+0x300>
    654c:	aa1603e0 	mov	x0, x22
    6550:	52800021 	mov	w1, #0x1                   	// #1
    6554:	94000000 	bl	e9c0 <open>	6554: R_AARCH64_CALL26	open
    6558:	b9008be0 	str	w0, [sp, #136]
    655c:	36f80200 	tbz	w0, #31, 659c <cmd_dd+0x300>
    6560:	f9401a74 	ldr	x20, [x19, #48]
    6564:	94000000 	bl	2454 <__errno>	6564: R_AARCH64_CALL26	__errno
    6568:	b9400004 	ldr	w4, [x0]
    656c:	aa1303e0 	mov	x0, x19
    6570:	12800013 	mov	w19, #0xffffffff            	// #-1
    6574:	90000003 	adrp	x3, ebb8 <_srodata>	6574: R_AARCH64_ADR_PREL_PG_HI21	.rodata+0x1444
    6578:	90000002 	adrp	x2, ebb8 <_srodata>	6578: R_AARCH64_ADR_PREL_PG_HI21	.rodata+0x1405
    657c:	91000063 	add	x3, x3, #0x0	657c: R_AARCH64_ADD_ABS_LO12_NC	.rodata+0x1444
    6580:	91000042 	add	x2, x2, #0x0	6580: R_AARCH64_ADD_ABS_LO12_NC	.rodata+0x1405
    6584:	90000001 	adrp	x1, f03d <g_fmtcmdfailed>	6584: R_AARCH64_ADR_PREL_PG_HI21	g_fmtcmdfailed
    6588:	91000021 	add	x1, x1, #0x0	6588: R_AARCH64_ADD_ABS_LO12_NC	g_fmtcmdfailed
    658c:	d63f0280 	blr	x20
    6590:	f9405fe0 	ldr	x0, [sp, #184]
    6594:	94000000 	bl	b598 <free>	6594: R_AARCH64_CALL26	free
    6598:	17ffff6d 	b	634c <cmd_dd+0xb0>
    659c:	b40002f5 	cbz	x21, 65f8 <cmd_dd+0x35c>
    65a0:	2a1703e1 	mov	w1, w23
    65a4:	aa1503e0 	mov	x0, x21
    65a8:	52803482 	mov	w2, #0x1a4                 	// #420
    65ac:	94000000 	bl	e9c0 <open>	65ac: R_AARCH64_CALL26	open
    65b0:	b9008fe0 	str	w0, [sp, #140]
    65b4:	36f80220 	tbz	w0, #31, 65f8 <cmd_dd+0x35c>
    65b8:	f9401a74 	ldr	x20, [x19, #48]
    65bc:	94000000 	bl	2454 <__errno>	65bc: R_AARCH64_CALL26	__errno
    65c0:	b9400004 	ldr	w4, [x0]
    65c4:	aa1303e0 	mov	x0, x19
    65c8:	12800013 	mov	w19, #0xffffffff            	// #-1
    65cc:	90000003 	adrp	x3, ebb8 <_srodata>	65cc: R_AARCH64_ADR_PREL_PG_HI21	.rodata+0x1444
    65d0:	90000002 	adrp	x2, ebb8 <_srodata>	65d0: R_AARCH64_ADR_PREL_PG_HI21	.rodata+0x1405
    65d4:	91000063 	add	x3, x3, #0x0	65d4: R_AARCH64_ADD_ABS_LO12_NC	.rodata+0x1444
    65d8:	91000042 	add	x2, x2, #0x0	65d8: R_AARCH64_ADD_ABS_LO12_NC	.rodata+0x1405
    65dc:	90000001 	adrp	x1, f03d <g_fmtcmdfailed>	65dc: R_AARCH64_ADR_PREL_PG_HI21	g_fmtcmdfailed
    65e0:	91000021 	add	x1, x1, #0x0	65e0: R_AARCH64_ADD_ABS_LO12_NC	g_fmtcmdfailed
    65e4:	d63f0280 	blr	x20
    65e8:	b4fffd56 	cbz	x22, 6590 <cmd_dd+0x2f4>
    65ec:	b9408be0 	ldr	w0, [sp, #136]
    65f0:	94000000 	bl	e814 <close>	65f0: R_AARCH64_CALL26	close
    65f4:	17ffffe7 	b	6590 <cmd_dd+0x2f4>
    65f8:	b94097e1 	ldr	w1, [sp, #148]
    65fc:	340002c1 	cbz	w1, 6654 <cmd_dd+0x3b8>
    6600:	1b147c21 	mul	w1, w1, w20
    6604:	b9408be0 	ldr	w0, [sp, #136]
    6608:	52800002 	mov	w2, #0x0                   	// #0
    660c:	94000000 	bl	e90c <lseek>	660c: R_AARCH64_CALL26	lseek
    6610:	36f80220 	tbz	w0, #31, 6654 <cmd_dd+0x3b8>
    6614:	f9401a74 	ldr	x20, [x19, #48]
    6618:	94000000 	bl	2454 <__errno>	6618: R_AARCH64_CALL26	__errno
    661c:	b9400004 	ldr	w4, [x0]
    6620:	90000003 	adrp	x3, ebb8 <_srodata>	6620: R_AARCH64_ADR_PREL_PG_HI21	.rodata+0x1449
    6624:	91000063 	add	x3, x3, #0x0	6624: R_AARCH64_ADD_ABS_LO12_NC	.rodata+0x1449
    6628:	90000002 	adrp	x2, ebb8 <_srodata>	6628: R_AARCH64_ADR_PREL_PG_HI21	.rodata+0x1405
    662c:	90000001 	adrp	x1, f03d <g_fmtcmdfailed>	662c: R_AARCH64_ADR_PREL_PG_HI21	g_fmtcmdfailed
    6630:	91000042 	add	x2, x2, #0x0	6630: R_AARCH64_ADD_ABS_LO12_NC	.rodata+0x1405
    6634:	91000021 	add	x1, x1, #0x0	6634: R_AARCH64_ADD_ABS_LO12_NC	g_fmtcmdfailed
    6638:	aa1303e0 	mov	x0, x19
    663c:	d63f0280 	blr	x20
    6640:	12800013 	mov	w19, #0xffffffff            	// #-1
    6644:	b4fffd35 	cbz	x21, 65e8 <cmd_dd+0x34c>
    6648:	b9408fe0 	ldr	w0, [sp, #140]
    664c:	94000000 	bl	e814 <close>	664c: R_AARCH64_CALL26	close
    6650:	17ffffe6 	b	65e8 <cmd_dd+0x34c>
    6654:	b9409be1 	ldr	w1, [sp, #152]
    6658:	350003c1 	cbnz	w1, 66d0 <cmd_dd+0x434>
    665c:	52800014 	mov	w20, #0x0                   	// #0
    6660:	b94093e0 	ldr	w0, [sp, #144]
    6664:	6b00029f 	cmp	w20, w0
    6668:	540004a3 	b.cc	66fc <cmd_dd+0x460>  // b.lo, b.ul, b.last
    666c:	b9409fe0 	ldr	w0, [sp, #156]
    6670:	12000013 	and	w19, w0, #0x1
    6674:	3607fe80 	tbz	w0, #0, 6644 <cmd_dd+0x3a8>
    6678:	b94097e1 	ldr	w1, [sp, #148]
    667c:	f94043f4 	ldr	x20, [sp, #128]
    6680:	b9408be0 	ldr	w0, [sp, #136]
    6684:	34000061 	cbz	w1, 6690 <cmd_dd+0x3f4>
    6688:	f94057e2 	ldr	x2, [sp, #168]
    668c:	1b027c21 	mul	w1, w1, w2
    6690:	52800002 	mov	w2, #0x0                   	// #0
    6694:	94000000 	bl	e90c <lseek>	6694: R_AARCH64_CALL26	lseek
    6698:	2a0003f3 	mov	w19, w0
    669c:	36f80660 	tbz	w0, #31, 6768 <cmd_dd+0x4cc>
    66a0:	f9401a97 	ldr	x23, [x20, #48]
    66a4:	94000000 	bl	2454 <__errno>	66a4: R_AARCH64_CALL26	__errno
    66a8:	b9400004 	ldr	w4, [x0]
    66ac:	90000003 	adrp	x3, ebb8 <_srodata>	66ac: R_AARCH64_ADR_PREL_PG_HI21	.rodata+0x1465
    66b0:	aa1403e0 	mov	x0, x20
    66b4:	91000063 	add	x3, x3, #0x0	66b4: R_AARCH64_ADD_ABS_LO12_NC	.rodata+0x1465
    66b8:	90000002 	adrp	x2, ebb8 <_srodata>	66b8: R_AARCH64_ADR_PREL_PG_HI21	.rodata+0x1405
    66bc:	90000001 	adrp	x1, f03d <g_fmtcmdfailed>	66bc: R_AARCH64_ADR_PREL_PG_HI21	g_fmtcmdfailed
    66c0:	91000042 	add	x2, x2, #0x0	66c0: R_AARCH64_ADD_ABS_LO12_NC	.rodata+0x1405
    66c4:	91000021 	add	x1, x1, #0x0	66c4: R_AARCH64_ADD_ABS_LO12_NC	g_fmtcmdfailed
    66c8:	d63f02e0 	blr	x23
    66cc:	17ffffde 	b	6644 <cmd_dd+0x3a8>
    66d0:	1b147c21 	mul	w1, w1, w20
    66d4:	b9408fe0 	ldr	w0, [sp, #140]
    66d8:	52800002 	mov	w2, #0x0                   	// #0
    66dc:	94000000 	bl	e90c <lseek>	66dc: R_AARCH64_CALL26	lseek
    66e0:	36fffbe0 	tbz	w0, #31, 665c <cmd_dd+0x3c0>
    66e4:	f9401a74 	ldr	x20, [x19, #48]
    66e8:	94000000 	bl	2454 <__errno>	66e8: R_AARCH64_CALL26	__errno
    66ec:	90000003 	adrp	x3, ebb8 <_srodata>	66ec: R_AARCH64_ADR_PREL_PG_HI21	.rodata+0x1454
    66f0:	b9400004 	ldr	w4, [x0]
    66f4:	91000063 	add	x3, x3, #0x0	66f4: R_AARCH64_ADD_ABS_LO12_NC	.rodata+0x1454
    66f8:	17ffffcc 	b	6628 <cmd_dd+0x38c>
    66fc:	910203e0 	add	x0, sp, #0x80
    6700:	94000000 	bl	0 <memcpy>	6700: R_AARCH64_CALL26	.text+0x61dc
    6704:	3100041f 	cmn	w0, #0x1
    6708:	54fff9c0 	b.eq	6640 <cmd_dd+0x3a4>  // b.none
    670c:	394283e0 	ldrb	w0, [sp, #160]
    6710:	3707fae0 	tbnz	w0, #0, 666c <cmd_dd+0x3d0>
    6714:	f9405ff7 	ldr	x23, [sp, #184]
    6718:	d2800013 	mov	x19, #0x0                   	// #0
    671c:	b9408fe0 	ldr	w0, [sp, #140]
    6720:	aa1703e1 	mov	x1, x23
    6724:	f9405bf8 	ldr	x24, [sp, #176]
    6728:	cb130302 	sub	x2, x24, x19
    672c:	94000000 	bl	2fe0 <write>	672c: R_AARCH64_CALL26	write
    6730:	b6f80100 	tbz	x0, #63, 6750 <cmd_dd+0x4b4>
    6734:	f94043f3 	ldr	x19, [sp, #128]
    6738:	f9401a74 	ldr	x20, [x19, #48]
    673c:	94000000 	bl	2454 <__errno>	673c: R_AARCH64_CALL26	__errno
    6740:	90000003 	adrp	x3, ebb8 <_srodata>	6740: R_AARCH64_ADR_PREL_PG_HI21	.rodata+0x145f
    6744:	b9400004 	ldr	w4, [x0]
    6748:	91000063 	add	x3, x3, #0x0	6748: R_AARCH64_ADD_ABS_LO12_NC	.rodata+0x145f
    674c:	17ffffb7 	b	6628 <cmd_dd+0x38c>
    6750:	8b000273 	add	x19, x19, x0
    6754:	8b0002f7 	add	x23, x23, x0
    6758:	eb13031f 	cmp	x24, x19
    675c:	54fffe08 	b.hi	671c <cmd_dd+0x480>  // b.pmore
    6760:	11000694 	add	w20, w20, #0x1
    6764:	17ffffbf 	b	6660 <cmd_dd+0x3c4>
    6768:	b9408fe0 	ldr	w0, [sp, #140]
    676c:	52800002 	mov	w2, #0x0                   	// #0
    6770:	52800001 	mov	w1, #0x0                   	// #0
    6774:	390283ff 	strb	wzr, [sp, #160]
    6778:	94000000 	bl	e90c <lseek>	6778: R_AARCH64_CALL26	lseek
    677c:	2a0003f3 	mov	w19, w0
    6780:	37fff900 	tbnz	w0, #31, 66a0 <cmd_dd+0x404>
    6784:	f94057e0 	ldr	x0, [sp, #168]
    6788:	94000000 	bl	b5a8 <malloc>	6788: R_AARCH64_CALL26	malloc
    678c:	aa0003f7 	mov	x23, x0
    6790:	b4fff580 	cbz	x0, 6640 <cmd_dd+0x3a4>
    6794:	52800018 	mov	w24, #0x0                   	// #0
    6798:	394283e0 	ldrb	w0, [sp, #160]
    679c:	37000380 	tbnz	w0, #0, 680c <cmd_dd+0x570>
    67a0:	b94093e0 	ldr	w0, [sp, #144]
    67a4:	6b00031f 	cmp	w24, w0
    67a8:	54000322 	b.cs	680c <cmd_dd+0x570>  // b.hs, b.nlast
    67ac:	910203e0 	add	x0, sp, #0x80
    67b0:	94000000 	bl	0 <memcpy>	67b0: R_AARCH64_CALL26	.text+0x61dc
    67b4:	f9405ffa 	ldr	x26, [sp, #184]
    67b8:	3100041f 	cmn	w0, #0x1
    67bc:	54000700 	b.eq	689c <cmd_dd+0x600>  // b.none
    67c0:	f9405bf9 	ldr	x25, [sp, #176]
    67c4:	aa1703e1 	mov	x1, x23
    67c8:	b9408fe0 	ldr	w0, [sp, #140]
    67cc:	aa1903e2 	mov	x2, x25
    67d0:	94000000 	bl	ea70 <read>	67d0: R_AARCH64_CALL26	read
    67d4:	2a0003f3 	mov	w19, w0
    67d8:	eb20c33f 	cmp	x25, w0, sxtw
    67dc:	54000200 	b.eq	681c <cmd_dd+0x580>  // b.none
    67e0:	f9401a98 	ldr	x24, [x20, #48]
    67e4:	94000000 	bl	2454 <__errno>	67e4: R_AARCH64_CALL26	__errno
    67e8:	b9400004 	ldr	w4, [x0]
    67ec:	90000003 	adrp	x3, ebb8 <_srodata>	67ec: R_AARCH64_ADR_PREL_PG_HI21	.rodata+0x1400
    67f0:	90000002 	adrp	x2, ebb8 <_srodata>	67f0: R_AARCH64_ADR_PREL_PG_HI21	.rodata+0x1405
    67f4:	90000001 	adrp	x1, f03d <g_fmtcmdfailed>	67f4: R_AARCH64_ADR_PREL_PG_HI21	g_fmtcmdfailed
    67f8:	91000063 	add	x3, x3, #0x0	67f8: R_AARCH64_ADD_ABS_LO12_NC	.rodata+0x1400
    67fc:	91000042 	add	x2, x2, #0x0	67fc: R_AARCH64_ADD_ABS_LO12_NC	.rodata+0x1405
    6800:	91000021 	add	x1, x1, #0x0	6800: R_AARCH64_ADD_ABS_LO12_NC	g_fmtcmdfailed
    6804:	aa1403e0 	mov	x0, x20
    6808:	d63f0300 	blr	x24
    680c:	37f804b3 	tbnz	w19, #31, 68a0 <cmd_dd+0x604>
    6810:	aa1703e0 	mov	x0, x23
    6814:	94000000 	bl	b598 <free>	6814: R_AARCH64_CALL26	free
    6818:	17ffff8b 	b	6644 <cmd_dd+0x3a8>
    681c:	aa1903e2 	mov	x2, x25
    6820:	aa1703e1 	mov	x1, x23
    6824:	aa1a03e0 	mov	x0, x26
    6828:	94000000 	bl	280 <memcmp>	6828: R_AARCH64_CALL26	memcmp
    682c:	34000500 	cbz	w0, 68cc <cmd_dd+0x630>
    6830:	2a1803e3 	mov	w3, w24
    6834:	d2800401 	mov	x1, #0x20                  	// #32
    6838:	910183e0 	add	x0, sp, #0x60
    683c:	90000002 	adrp	x2, ebb8 <_srodata>	683c: R_AARCH64_ADR_PREL_PG_HI21	.rodata+0x146b
    6840:	91000042 	add	x2, x2, #0x0	6840: R_AARCH64_ADD_ABS_LO12_NC	.rodata+0x146b
    6844:	94000000 	bl	d04c <snprintf>	6844: R_AARCH64_CALL26	snprintf
    6848:	aa1903e3 	mov	x3, x25
    684c:	aa1a03e2 	mov	x2, x26
    6850:	910183e1 	add	x1, sp, #0x60
    6854:	aa1403e0 	mov	x0, x20
    6858:	94000000 	bl	5d7c <nsh_dumpbuffer>	6858: R_AARCH64_CALL26	nsh_dumpbuffer
    685c:	2a1803e3 	mov	w3, w24
    6860:	d2800401 	mov	x1, #0x20                  	// #32
    6864:	910183e0 	add	x0, sp, #0x60
    6868:	90000002 	adrp	x2, ebb8 <_srodata>	6868: R_AARCH64_ADR_PREL_PG_HI21	.rodata+0x147c
    686c:	91000042 	add	x2, x2, #0x0	686c: R_AARCH64_ADD_ABS_LO12_NC	.rodata+0x147c
    6870:	94000000 	bl	d04c <snprintf>	6870: R_AARCH64_CALL26	snprintf
    6874:	aa1703e2 	mov	x2, x23
    6878:	910183e1 	add	x1, sp, #0x60
    687c:	aa1403e0 	mov	x0, x20
    6880:	aa1903e3 	mov	x3, x25
    6884:	94000000 	bl	5d7c <nsh_dumpbuffer>	6884: R_AARCH64_CALL26	nsh_dumpbuffer
    6888:	f9401e82 	ldr	x2, [x20, #56]
    688c:	90000001 	adrp	x1, ebb8 <_srodata>	688c: R_AARCH64_ADR_PREL_PG_HI21	.rodata+0x148f
    6890:	aa1403e0 	mov	x0, x20
    6894:	91000021 	add	x1, x1, #0x0	6894: R_AARCH64_ADD_ABS_LO12_NC	.rodata+0x148f
    6898:	d63f0040 	blr	x2
    689c:	12800013 	mov	w19, #0xffffffff            	// #-1
    68a0:	f9401a85 	ldr	x5, [x20, #48]
    68a4:	2a1303e4 	mov	w4, w19
    68a8:	aa1403e0 	mov	x0, x20
    68ac:	90000003 	adrp	x3, ebb8 <_srodata>	68ac: R_AARCH64_ADR_PREL_PG_HI21	.rodata+0x1491
    68b0:	90000002 	adrp	x2, ebb8 <_srodata>	68b0: R_AARCH64_ADR_PREL_PG_HI21	.rodata+0x1405
    68b4:	91000063 	add	x3, x3, #0x0	68b4: R_AARCH64_ADD_ABS_LO12_NC	.rodata+0x1491
    68b8:	91000042 	add	x2, x2, #0x0	68b8: R_AARCH64_ADD_ABS_LO12_NC	.rodata+0x1405
    68bc:	90000001 	adrp	x1, f03d <g_fmtcmdfailed>	68bc: R_AARCH64_ADR_PREL_PG_HI21	g_fmtcmdfailed
    68c0:	91000021 	add	x1, x1, #0x0	68c0: R_AARCH64_ADD_ABS_LO12_NC	g_fmtcmdfailed
    68c4:	d63f00a0 	blr	x5
    68c8:	17ffffd2 	b	6810 <cmd_dd+0x574>
    68cc:	11000718 	add	w24, w24, #0x1
    68d0:	17ffffb2 	b	6798 <cmd_dd+0x4fc>
    68d4:	f81f0ffe 	str	x30, [sp, #-16]!
    68d8:	94000000 	bl	e860 <getenv>	68d8: R_AARCH64_CALL26	getenv
    68dc:	b5000060 	cbnz	x0, 68e8 <cmd_dd+0x64c>
    68e0:	90000000 	adrp	x0, ebb8 <_srodata>	68e0: R_AARCH64_ADR_PREL_PG_HI21	.rodata+0x14e1
    68e4:	91000000 	add	x0, x0, #0x0	68e4: R_AARCH64_ADD_ABS_LO12_NC	.rodata+0x14e1
    68e8:	f84107fe 	ldr	x30, [sp], #16
    68ec:	d65f03c0 	ret

00000000000068f0 <nsh_getcwd>:
nsh_getcwd():
    68f0:	90000000 	adrp	x0, ebb8 <_srodata>	68f0: R_AARCH64_ADR_PREL_PG_HI21	.rodata+0x14ea
    68f4:	91000000 	add	x0, x0, #0x0	68f4: R_AARCH64_ADD_ABS_LO12_NC	.rodata+0x14ea
    68f8:	14000000 	b	0 <memcpy>	68f8: R_AARCH64_JUMP26	.text+0x68d4

00000000000068fc <nsh_getfullpath>:
nsh_getfullpath():
    68fc:	b4000421 	cbz	x1, 6980 <nsh_getfullpath+0x84>
    6900:	a9be4ffe 	stp	x30, x19, [sp, #-32]!
    6904:	aa0103f3 	mov	x19, x1
    6908:	a90157f4 	stp	x20, x21, [sp, #16]
    690c:	aa0003f5 	mov	x21, x0
    6910:	39400020 	ldrb	w0, [x1]
    6914:	350000c0 	cbnz	w0, 692c <nsh_getfullpath+0x30>
    6918:	90000000 	adrp	x0, ebb8 <_srodata>	6918: R_AARCH64_ADR_PREL_PG_HI21	.rodata+0x14e1
    691c:	91000000 	add	x0, x0, #0x0	691c: R_AARCH64_ADD_ABS_LO12_NC	.rodata+0x14e1
    6920:	a94157f4 	ldp	x20, x21, [sp, #16]
    6924:	a8c24ffe 	ldp	x30, x19, [sp], #32
    6928:	14000000 	b	daf8 <strdup>	6928: R_AARCH64_JUMP26	strdup
    692c:	7100bc1f 	cmp	w0, #0x2f
    6930:	54000061 	b.ne	693c <nsh_getfullpath+0x40>  // b.any
    6934:	aa0103e0 	mov	x0, x1
    6938:	17fffffa 	b	6920 <nsh_getfullpath+0x24>
    693c:	90000000 	adrp	x0, ebb8 <_srodata>	693c: R_AARCH64_ADR_PREL_PG_HI21	.rodata+0x14ea
    6940:	91000000 	add	x0, x0, #0x0	6940: R_AARCH64_ADD_ABS_LO12_NC	.rodata+0x14ea
    6944:	94000000 	bl	0 <memcpy>	6944: R_AARCH64_CALL26	.text+0x68d4
    6948:	aa0003f4 	mov	x20, x0
    694c:	90000001 	adrp	x1, ebb8 <_srodata>	694c: R_AARCH64_ADR_PREL_PG_HI21	.rodata+0x149b
    6950:	aa1303e0 	mov	x0, x19
    6954:	91000021 	add	x1, x1, #0x0	6954: R_AARCH64_ADD_ABS_LO12_NC	.rodata+0x149b
    6958:	94000000 	bl	680 <strcmp>	6958: R_AARCH64_CALL26	strcmp
    695c:	35000060 	cbnz	w0, 6968 <nsh_getfullpath+0x6c>
    6960:	aa1403e0 	mov	x0, x20
    6964:	17ffffef 	b	6920 <nsh_getfullpath+0x24>
    6968:	aa1303e2 	mov	x2, x19
    696c:	aa1403e1 	mov	x1, x20
    6970:	aa1503e0 	mov	x0, x21
    6974:	a94157f4 	ldp	x20, x21, [sp, #16]
    6978:	a8c24ffe 	ldp	x30, x19, [sp], #32
    697c:	14000000 	b	94c8 <nsh_getdirpath>	697c: R_AARCH64_JUMP26	nsh_getdirpath
    6980:	90000000 	adrp	x0, ebb8 <_srodata>	6980: R_AARCH64_ADR_PREL_PG_HI21	.rodata+0x14e1
    6984:	91000000 	add	x0, x0, #0x0	6984: R_AARCH64_ADD_ABS_LO12_NC	.rodata+0x14e1
    6988:	17ffffe8 	b	6928 <nsh_getfullpath+0x2c>

000000000000698c <nsh_freefullpath>:
nsh_freefullpath():
    698c:	b4000040 	cbz	x0, 6994 <nsh_freefullpath+0x8>
    6990:	14000000 	b	b598 <free>	6990: R_AARCH64_JUMP26	free
    6994:	d65f03c0 	ret

0000000000006998 <cmd_cd>:
cmd_cd():
    6998:	a9bd4ffe 	stp	x30, x19, [sp, #-48]!
    699c:	a90157f4 	stp	x20, x21, [sp, #16]
    69a0:	aa0003f5 	mov	x21, x0
    69a4:	a9025ff6 	stp	x22, x23, [sp, #32]
    69a8:	aa0203f6 	mov	x22, x2
    69ac:	7100043f 	cmp	w1, #0x1
    69b0:	540007cd 	b.le	6aa8 <cmd_cd+0x110>
    69b4:	f9400453 	ldr	x19, [x2, #8]
    69b8:	90000001 	adrp	x1, ebb8 <_srodata>	69b8: R_AARCH64_ADR_PREL_PG_HI21	.rodata+0x149d
    69bc:	91000021 	add	x1, x1, #0x0	69bc: R_AARCH64_ADD_ABS_LO12_NC	.rodata+0x149d
    69c0:	aa1303e0 	mov	x0, x19
    69c4:	94000000 	bl	680 <strcmp>	69c4: R_AARCH64_CALL26	strcmp
    69c8:	34000700 	cbz	w0, 6aa8 <cmd_cd+0x110>
    69cc:	90000001 	adrp	x1, ebb8 <_srodata>	69cc: R_AARCH64_ADR_PREL_PG_HI21	.rodata+0x149f
    69d0:	aa1303e0 	mov	x0, x19
    69d4:	91000021 	add	x1, x1, #0x0	69d4: R_AARCH64_ADD_ABS_LO12_NC	.rodata+0x149f
    69d8:	94000000 	bl	680 <strcmp>	69d8: R_AARCH64_CALL26	strcmp
    69dc:	35000420 	cbnz	w0, 6a60 <cmd_cd+0xc8>
    69e0:	90000000 	adrp	x0, ebb8 <_srodata>	69e0: R_AARCH64_ADR_PREL_PG_HI21	.rodata+0x14e3
    69e4:	91000000 	add	x0, x0, #0x0	69e4: R_AARCH64_ADD_ABS_LO12_NC	.rodata+0x14e3
    69e8:	94000000 	bl	0 <memcpy>	69e8: R_AARCH64_CALL26	.text+0x68d4
    69ec:	94000000 	bl	daf8 <strdup>	69ec: R_AARCH64_CALL26	strdup
    69f0:	aa0003f3 	mov	x19, x0
    69f4:	d2800014 	mov	x20, #0x0                   	// #0
    69f8:	94000000 	bl	e1bc <chdir>	69f8: R_AARCH64_CALL26	chdir
    69fc:	2a0003f7 	mov	w23, w0
    6a00:	340001a0 	cbz	w0, 6a34 <cmd_cd+0x9c>
    6a04:	f94002d6 	ldr	x22, [x22]
    6a08:	f9401ab7 	ldr	x23, [x21, #48]
    6a0c:	94000000 	bl	2454 <__errno>	6a0c: R_AARCH64_CALL26	__errno
    6a10:	b9400004 	ldr	w4, [x0]
    6a14:	aa1603e2 	mov	x2, x22
    6a18:	aa1503e0 	mov	x0, x21
    6a1c:	90000003 	adrp	x3, ebb8 <_srodata>	6a1c: R_AARCH64_ADR_PREL_PG_HI21	.rodata+0x14a4
    6a20:	90000001 	adrp	x1, f03d <g_fmtcmdfailed>	6a20: R_AARCH64_ADR_PREL_PG_HI21	g_fmtcmdfailed
    6a24:	91000063 	add	x3, x3, #0x0	6a24: R_AARCH64_ADD_ABS_LO12_NC	.rodata+0x14a4
    6a28:	91000021 	add	x1, x1, #0x0	6a28: R_AARCH64_ADD_ABS_LO12_NC	g_fmtcmdfailed
    6a2c:	d63f02e0 	blr	x23
    6a30:	12800017 	mov	w23, #0xffffffff            	// #-1
    6a34:	b4000073 	cbz	x19, 6a40 <cmd_cd+0xa8>
    6a38:	aa1303e0 	mov	x0, x19
    6a3c:	94000000 	bl	b598 <free>	6a3c: R_AARCH64_CALL26	free
    6a40:	b4000074 	cbz	x20, 6a4c <cmd_cd+0xb4>
    6a44:	aa1403e0 	mov	x0, x20
    6a48:	94000000 	bl	698c <nsh_freefullpath>	6a48: R_AARCH64_CALL26	nsh_freefullpath
    6a4c:	2a1703e0 	mov	w0, w23
    6a50:	a94157f4 	ldp	x20, x21, [sp, #16]
    6a54:	a9425ff6 	ldp	x22, x23, [sp, #32]
    6a58:	a8c34ffe 	ldp	x30, x19, [sp], #48
    6a5c:	d65f03c0 	ret
    6a60:	90000001 	adrp	x1, ebb8 <_srodata>	6a60: R_AARCH64_ADR_PREL_PG_HI21	.rodata+0x14a1
    6a64:	aa1303e0 	mov	x0, x19
    6a68:	91000021 	add	x1, x1, #0x0	6a68: R_AARCH64_ADD_ABS_LO12_NC	.rodata+0x14a1
    6a6c:	94000000 	bl	680 <strcmp>	6a6c: R_AARCH64_CALL26	strcmp
    6a70:	35000100 	cbnz	w0, 6a90 <cmd_cd+0xf8>
    6a74:	90000000 	adrp	x0, ebb8 <_srodata>	6a74: R_AARCH64_ADR_PREL_PG_HI21	.rodata+0x14ea
    6a78:	91000000 	add	x0, x0, #0x0	6a78: R_AARCH64_ADD_ABS_LO12_NC	.rodata+0x14ea
    6a7c:	94000000 	bl	0 <memcpy>	6a7c: R_AARCH64_CALL26	.text+0x68d4
    6a80:	94000000 	bl	daf8 <strdup>	6a80: R_AARCH64_CALL26	strdup
    6a84:	aa0003f3 	mov	x19, x0
    6a88:	94000000 	bl	cbf0 <dirname>	6a88: R_AARCH64_CALL26	dirname
    6a8c:	17ffffda 	b	69f4 <cmd_cd+0x5c>
    6a90:	aa1303e1 	mov	x1, x19
    6a94:	aa1503e0 	mov	x0, x21
    6a98:	d2800013 	mov	x19, #0x0                   	// #0
    6a9c:	94000000 	bl	68fc <nsh_getfullpath>	6a9c: R_AARCH64_CALL26	nsh_getfullpath
    6aa0:	aa0003f4 	mov	x20, x0
    6aa4:	17ffffd5 	b	69f8 <cmd_cd+0x60>
    6aa8:	90000001 	adrp	x1, ebb8 <_srodata>	6aa8: R_AARCH64_ADR_PREL_PG_HI21	.rodata+0x14e1
    6aac:	d2800014 	mov	x20, #0x0                   	// #0
    6ab0:	91000020 	add	x0, x1, #0x0	6ab0: R_AARCH64_ADD_ABS_LO12_NC	.rodata+0x14e1
    6ab4:	d2800013 	mov	x19, #0x0                   	// #0
    6ab8:	17ffffd0 	b	69f8 <cmd_cd+0x60>

0000000000006abc <cmd_echo>:
cmd_echo():
    6abc:	a9b84ffe 	stp	x30, x19, [sp, #-128]!
    6ac0:	d2800023 	mov	x3, #0x1                   	// #1
    6ac4:	f2c04023 	movk	x3, #0x201, lsl #32
    6ac8:	a90157f4 	stp	x20, x21, [sp, #16]
    6acc:	51000435 	sub	w21, w1, #0x1
    6ad0:	a9046ffa 	stp	x26, x27, [sp, #64]
    6ad4:	aa0003fb 	mov	x27, x0
    6ad8:	f9002bfc 	str	x28, [sp, #80]
    6adc:	9100205c 	add	x28, x2, #0x8
    6ae0:	a9025ff6 	stp	x22, x23, [sp, #32]
    6ae4:	52800016 	mov	w22, #0x0                   	// #0
    6ae8:	a90367f8 	stp	x24, x25, [sp, #48]
    6aec:	52800039 	mov	w25, #0x1                   	// #1
    6af0:	710002bf 	cmp	w21, #0x0
    6af4:	540010cd 	b.le	6d0c <cmd_echo+0x250>
    6af8:	f9400380 	ldr	x0, [x28]
    6afc:	39400001 	ldrb	w1, [x0]
    6b00:	7100b43f 	cmp	w1, #0x2d
    6b04:	540000c1 	b.ne	6b1c <cmd_echo+0x60>  // b.any
    6b08:	91000400 	add	x0, x0, #0x1
    6b0c:	d2800002 	mov	x2, #0x0                   	// #0
    6b10:	38626801 	ldrb	w1, [x0, x2]
    6b14:	35000241 	cbnz	w1, 6b5c <cmd_echo+0xa0>
    6b18:	b5000422 	cbnz	x2, 6b9c <cmd_echo+0xe0>
    6b1c:	710002bf 	cmp	w21, #0x0
    6b20:	54000f6d 	b.le	6d0c <cmd_echo+0x250>
    6b24:	90000018 	adrp	x24, ebb8 <_srodata>	6b24: R_AARCH64_ADR_PREL_PG_HI21	.rodata+0x14aa
    6b28:	91000300 	add	x0, x24, #0x0	6b28: R_AARCH64_ADD_ABS_LO12_NC	.rodata+0x14aa
    6b2c:	90000017 	adrp	x23, ebb8 <_srodata>	6b2c: R_AARCH64_ADR_PREL_PG_HI21	.rodata+0x14ad
    6b30:	52800b9a 	mov	w26, #0x5c                  	// #92
    6b34:	f90037e0 	str	x0, [sp, #104]
    6b38:	910002e0 	add	x0, x23, #0x0	6b38: R_AARCH64_ADD_ABS_LO12_NC	.rodata+0x14ad
    6b3c:	f9003be0 	str	x0, [sp, #112]
    6b40:	34000d96 	cbz	w22, 6cf0 <cmd_echo+0x234>
    6b44:	f9400384 	ldr	x4, [x28]
    6b48:	aa0403f3 	mov	x19, x4
    6b4c:	39400080 	ldrb	w0, [x4]
    6b50:	35000380 	cbnz	w0, 6bc0 <cmd_echo+0x104>
    6b54:	3900027f 	strb	wzr, [x19]
    6b58:	14000066 	b	6cf0 <cmd_echo+0x234>
    6b5c:	51011421 	sub	w1, w1, #0x45
    6b60:	12001c21 	and	w1, w1, #0xff
    6b64:	7100a43f 	cmp	w1, #0x29
    6b68:	54fffda8 	b.hi	6b1c <cmd_echo+0x60>  // b.pmore
    6b6c:	9ac12461 	lsr	x1, x3, x1
    6b70:	3607fd61 	tbz	w1, #0, 6b1c <cmd_echo+0x60>
    6b74:	91000442 	add	x2, x2, #0x1
    6b78:	17ffffe6 	b	6b10 <cmd_echo+0x54>
    6b7c:	91000400 	add	x0, x0, #0x1
    6b80:	7101943f 	cmp	w1, #0x65
    6b84:	54000160 	b.eq	6bb0 <cmd_echo+0xf4>  // b.none
    6b88:	7101b83f 	cmp	w1, #0x6e
    6b8c:	54000160 	b.eq	6bb8 <cmd_echo+0xfc>  // b.none
    6b90:	7101143f 	cmp	w1, #0x45
    6b94:	1a9f07e1 	cset	w1, ne	// ne = any
    6b98:	0a0102d6 	and	w22, w22, w1
    6b9c:	39400001 	ldrb	w1, [x0]
    6ba0:	35fffee1 	cbnz	w1, 6b7c <cmd_echo+0xc0>
    6ba4:	510006b5 	sub	w21, w21, #0x1
    6ba8:	9100239c 	add	x28, x28, #0x8
    6bac:	17ffffd1 	b	6af0 <cmd_echo+0x34>
    6bb0:	52800036 	mov	w22, #0x1                   	// #1
    6bb4:	17fffffa 	b	6b9c <cmd_echo+0xe0>
    6bb8:	52800019 	mov	w25, #0x0                   	// #0
    6bbc:	17fffff8 	b	6b9c <cmd_echo+0xe0>
    6bc0:	7101701f 	cmp	w0, #0x5c
    6bc4:	540000a0 	b.eq	6bd8 <cmd_echo+0x11c>  // b.none
    6bc8:	aa0403f7 	mov	x23, x4
    6bcc:	38001660 	strb	w0, [x19], #1
    6bd0:	910006e4 	add	x4, x23, #0x1
    6bd4:	17ffffde 	b	6b4c <cmd_echo+0x90>
    6bd8:	39400483 	ldrb	w3, [x4, #1]
    6bdc:	91000497 	add	x23, x4, #0x1
    6be0:	7100307f 	cmp	w3, #0xc
    6be4:	54000a60 	b.eq	6d30 <cmd_echo+0x274>  // b.none
    6be8:	54000228 	b.hi	6c2c <cmd_echo+0x170>  // b.pmore
    6bec:	7100207f 	cmp	w3, #0x8
    6bf0:	54000a00 	b.eq	6d30 <cmd_echo+0x274>  // b.none
    6bf4:	54000148 	b.hi	6c1c <cmd_echo+0x160>  // b.pmore
    6bf8:	340007a3 	cbz	w3, 6cec <cmd_echo+0x230>
    6bfc:	71001c7f 	cmp	w3, #0x7
    6c00:	54000980 	b.eq	6d30 <cmd_echo+0x274>  // b.none
    6c04:	aa1303e0 	mov	x0, x19
    6c08:	3800241a 	strb	w26, [x0], #2
    6c0c:	39400481 	ldrb	w1, [x4, #1]
    6c10:	39000661 	strb	w1, [x19, #1]
    6c14:	aa0003f3 	mov	x19, x0
    6c18:	17ffffee 	b	6bd0 <cmd_echo+0x114>
    6c1c:	7100287f 	cmp	w3, #0xa
    6c20:	54000880 	b.eq	6d30 <cmd_echo+0x274>  // b.none
    6c24:	71002c7f 	cmp	w3, #0xb
    6c28:	17fffff6 	b	6c00 <cmd_echo+0x144>
    6c2c:	7101707f 	cmp	w3, #0x5c
    6c30:	54000800 	b.eq	6d30 <cmd_echo+0x274>  // b.none
    6c34:	54000228 	b.hi	6c78 <cmd_echo+0x1bc>  // b.pmore
    6c38:	7100347f 	cmp	w3, #0xd
    6c3c:	540007a0 	b.eq	6d30 <cmd_echo+0x274>  // b.none
    6c40:	7100c07f 	cmp	w3, #0x30
    6c44:	54fffe01 	b.ne	6c04 <cmd_echo+0x148>  // b.any
    6c48:	91001084 	add	x4, x4, #0x4
    6c4c:	52800003 	mov	w3, #0x0                   	// #0
    6c50:	394006e0 	ldrb	w0, [x23, #1]
    6c54:	aa1703e1 	mov	x1, x23
    6c58:	910006f7 	add	x23, x23, #0x1
    6c5c:	5100c000 	sub	w0, w0, #0x30
    6c60:	12001c05 	and	w5, w0, #0xff
    6c64:	710020bf 	cmp	w5, #0x8
    6c68:	54000309 	b.ls	6cc8 <cmd_echo+0x20c>  // b.plast
    6c6c:	aa0103f7 	mov	x23, x1
    6c70:	38001663 	strb	w3, [x19], #1
    6c74:	17ffffd7 	b	6bd0 <cmd_echo+0x114>
    6c78:	7101e07f 	cmp	w3, #0x78
    6c7c:	54fffc41 	b.ne	6c04 <cmd_echo+0x148>  // b.any
    6c80:	91000c94 	add	x20, x4, #0x3
    6c84:	52800018 	mov	w24, #0x0                   	// #0
    6c88:	394006e3 	ldrb	w3, [x23, #1]
    6c8c:	b9007fe3 	str	w3, [sp, #124]
    6c90:	2a0303e0 	mov	w0, w3
    6c94:	94000000 	bl	ca60 <isxdigit>	6c94: R_AARCH64_CALL26	isxdigit
    6c98:	b9407fe3 	ldr	w3, [sp, #124]
    6c9c:	34000120 	cbz	w0, 6cc0 <cmd_echo+0x204>
    6ca0:	5100c060 	sub	w0, w3, #0x30
    6ca4:	531c6f18 	lsl	w24, w24, #4
    6ca8:	7100241f 	cmp	w0, #0x9
    6cac:	54000188 	b.hi	6cdc <cmd_echo+0x220>  // b.pmore
    6cb0:	910006f7 	add	x23, x23, #0x1
    6cb4:	0b180018 	add	w24, w0, w24
    6cb8:	eb1402ff 	cmp	x23, x20
    6cbc:	54fffe61 	b.ne	6c88 <cmd_echo+0x1cc>  // b.any
    6cc0:	38001678 	strb	w24, [x19], #1
    6cc4:	17ffffc3 	b	6bd0 <cmd_echo+0x114>
    6cc8:	0b030c03 	add	w3, w0, w3, lsl #3
    6ccc:	eb0402ff 	cmp	x23, x4
    6cd0:	54fffc01 	b.ne	6c50 <cmd_echo+0x194>  // b.any
    6cd4:	aa1703e1 	mov	x1, x23
    6cd8:	17ffffe5 	b	6c6c <cmd_echo+0x1b0>
    6cdc:	2a0303e0 	mov	w0, w3
    6ce0:	94000000 	bl	ca84 <tolower>	6ce0: R_AARCH64_CALL26	tolower
    6ce4:	51015c00 	sub	w0, w0, #0x57
    6ce8:	17fffff2 	b	6cb0 <cmd_echo+0x1f4>
    6cec:	79000260 	strh	w0, [x19]
    6cf0:	f8408782 	ldr	x2, [x28], #8
    6cf4:	aa1b03e0 	mov	x0, x27
    6cf8:	f9401f63 	ldr	x3, [x27, #56]
    6cfc:	f94037e1 	ldr	x1, [sp, #104]
    6d00:	d63f0060 	blr	x3
    6d04:	710006b5 	subs	w21, w21, #0x1
    6d08:	54000181 	b.ne	6d38 <cmd_echo+0x27c>  // b.any
    6d0c:	35000219 	cbnz	w25, 6d4c <cmd_echo+0x290>
    6d10:	f9402bfc 	ldr	x28, [sp, #80]
    6d14:	52800000 	mov	w0, #0x0                   	// #0
    6d18:	a94157f4 	ldp	x20, x21, [sp, #16]
    6d1c:	a9425ff6 	ldp	x22, x23, [sp, #32]
    6d20:	a94367f8 	ldp	x24, x25, [sp, #48]
    6d24:	a9446ffa 	ldp	x26, x27, [sp, #64]
    6d28:	a8c84ffe 	ldp	x30, x19, [sp], #128
    6d2c:	d65f03c0 	ret
    6d30:	38001663 	strb	w3, [x19], #1
    6d34:	17ffffa7 	b	6bd0 <cmd_echo+0x114>
    6d38:	f9401f62 	ldr	x2, [x27, #56]
    6d3c:	aa1b03e0 	mov	x0, x27
    6d40:	f9403be1 	ldr	x1, [sp, #112]
    6d44:	d63f0040 	blr	x2
    6d48:	17ffff7e 	b	6b40 <cmd_echo+0x84>
    6d4c:	f9401f62 	ldr	x2, [x27, #56]
    6d50:	aa1b03e0 	mov	x0, x27
    6d54:	90000001 	adrp	x1, ebb8 <_srodata>	6d54: R_AARCH64_ADR_PREL_PG_HI21	.rodata+0x14af
    6d58:	91000021 	add	x1, x1, #0x0	6d58: R_AARCH64_ADD_ABS_LO12_NC	.rodata+0x14af
    6d5c:	d63f0040 	blr	x2
    6d60:	17ffffec 	b	6d10 <cmd_echo+0x254>

0000000000006d64 <cmd_env>:
cmd_env():
    6d64:	aa0203e1 	mov	x1, x2
    6d68:	90000002 	adrp	x2, ebb8 <_srodata>	6d68: R_AARCH64_ADR_PREL_PG_HI21	.rodata+0x14b1
    6d6c:	91000042 	add	x2, x2, #0x0	6d6c: R_AARCH64_ADD_ABS_LO12_NC	.rodata+0x14b1
    6d70:	f9400021 	ldr	x1, [x1]
    6d74:	14000000 	b	8f10 <nsh_catfile>	6d74: R_AARCH64_JUMP26	nsh_catfile

0000000000006d78 <cmd_pwd>:
cmd_pwd():
    6d78:	a9be4ffe 	stp	x30, x19, [sp, #-32]!
    6d7c:	aa0003f3 	mov	x19, x0
    6d80:	90000000 	adrp	x0, ebb8 <_srodata>	6d80: R_AARCH64_ADR_PREL_PG_HI21	.rodata+0x14ea
    6d84:	f9000bf4 	str	x20, [sp, #16]
    6d88:	91000000 	add	x0, x0, #0x0	6d88: R_AARCH64_ADD_ABS_LO12_NC	.rodata+0x14ea
    6d8c:	f9401e74 	ldr	x20, [x19, #56]
    6d90:	94000000 	bl	0 <memcpy>	6d90: R_AARCH64_CALL26	.text+0x68d4
    6d94:	90000001 	adrp	x1, ebb8 <_srodata>	6d94: R_AARCH64_ADR_PREL_PG_HI21	.rodata+0x14c6
    6d98:	aa0003e2 	mov	x2, x0
    6d9c:	91000021 	add	x1, x1, #0x0	6d9c: R_AARCH64_ADD_ABS_LO12_NC	.rodata+0x14c6
    6da0:	aa1303e0 	mov	x0, x19
    6da4:	d63f0280 	blr	x20
    6da8:	f9400bf4 	ldr	x20, [sp, #16]
    6dac:	52800000 	mov	w0, #0x0                   	// #0
    6db0:	a8c24ffe 	ldp	x30, x19, [sp], #32
    6db4:	d65f03c0 	ret

0000000000006db8 <cmd_set>:
cmd_set():
    6db8:	a9bb4ffe 	stp	x30, x19, [sp, #-80]!
    6dbc:	aa0003f3 	mov	x19, x0
    6dc0:	90000000 	adrp	x0, ebb8 <_srodata>	6dc0: R_AARCH64_ADR_PREL_PG_HI21	.rodata+0x14d5
    6dc4:	91000000 	add	x0, x0, #0x0	6dc4: R_AARCH64_ADD_ABS_LO12_NC	.rodata+0x14d5
    6dc8:	a90367f8 	stp	x24, x25, [sp, #48]
    6dcc:	910123f8 	add	x24, sp, #0x48
    6dd0:	a90157f4 	stp	x20, x21, [sp, #16]
    6dd4:	aa0203f4 	mov	x20, x2
    6dd8:	a9025ff6 	stp	x22, x23, [sp, #32]
    6ddc:	2a0103f6 	mov	w22, w1
    6de0:	79400001 	ldrh	w1, [x0]
    6de4:	39400800 	ldrb	w0, [x0, #2]
    6de8:	71000adf 	cmp	w22, #0x2
    6dec:	39000b00 	strb	w0, [x24, #2]
    6df0:	7a441ac4 	ccmp	w22, #0x4, #0x4, ne	// ne = any
    6df4:	790093e1 	strh	w1, [sp, #72]
    6df8:	54000a81 	b.ne	6f48 <cmd_set+0x190>  // b.any
    6dfc:	f9400455 	ldr	x21, [x2, #8]
    6e00:	aa1503e0 	mov	x0, x21
    6e04:	94000000 	bl	940 <strlen>	6e04: R_AARCH64_CALL26	strlen
    6e08:	f100041f 	cmp	x0, #0x1
    6e0c:	54000268 	b.hi	6e58 <cmd_set+0xa0>  // b.pmore
    6e10:	f9400294 	ldr	x20, [x20]
    6e14:	f9401a75 	ldr	x21, [x19, #48]
    6e18:	94000000 	bl	2454 <__errno>	6e18: R_AARCH64_CALL26	__errno
    6e1c:	b9400004 	ldr	w4, [x0]
    6e20:	90000003 	adrp	x3, ebb8 <_srodata>	6e20: R_AARCH64_ADR_PREL_PG_HI21	.rodata+0x14ca
    6e24:	90000001 	adrp	x1, f137 <g_fmtargrequired>	6e24: R_AARCH64_ADR_PREL_PG_HI21	g_fmtargrequired
    6e28:	91000063 	add	x3, x3, #0x0	6e28: R_AARCH64_ADD_ABS_LO12_NC	.rodata+0x14ca
    6e2c:	aa1403e2 	mov	x2, x20
    6e30:	91000021 	add	x1, x1, #0x0	6e30: R_AARCH64_ADD_ABS_LO12_NC	g_fmtargrequired
    6e34:	aa1303e0 	mov	x0, x19
    6e38:	d63f02a0 	blr	x21
    6e3c:	128002b5 	mov	w21, #0xffffffea            	// #-22
    6e40:	a9425ff6 	ldp	x22, x23, [sp, #32]
    6e44:	2a1503e0 	mov	w0, w21
    6e48:	a94157f4 	ldp	x20, x21, [sp, #16]
    6e4c:	a94367f8 	ldp	x24, x25, [sp, #48]
    6e50:	a8c54ffe 	ldp	x30, x19, [sp], #80
    6e54:	d65f03c0 	ret
    6e58:	384016b7 	ldrb	w23, [x21], #1
    6e5c:	52800560 	mov	w0, #0x2b                  	// #43
    6e60:	7100b6ff 	cmp	w23, #0x2d
    6e64:	7a4012e4 	ccmp	w23, w0, #0x4, ne	// ne = any
    6e68:	54000481 	b.ne	6ef8 <cmd_set+0x140>  // b.any
    6e6c:	52800039 	mov	w25, #0x1                   	// #1
    6e70:	394002a1 	ldrb	w1, [x21]
    6e74:	121a7820 	and	w0, w1, #0xffffffdf
    6e78:	35000380 	cbnz	w0, 6ee8 <cmd_set+0x130>
    6e7c:	52800055 	mov	w21, #0x2                   	// #2
    6e80:	51000ed6 	sub	w22, w22, #0x3
    6e84:	710006df 	cmp	w22, #0x1
    6e88:	54000648 	b.hi	6f50 <cmd_set+0x198>  // b.pmore
    6e8c:	110006b5 	add	w21, w21, #0x1
    6e90:	d37d0ab5 	ubfiz	x21, x21, #3, #3
    6e94:	f8756a80 	ldr	x0, [x20, x21]
    6e98:	8b150295 	add	x21, x20, x21
    6e9c:	94000000 	bl	9468 <nsh_trimspaces>	6e9c: R_AARCH64_CALL26	nsh_trimspaces
    6ea0:	aa0003e1 	mov	x1, x0
    6ea4:	f85f82a0 	ldur	x0, [x21, #-8]
    6ea8:	52800022 	mov	w2, #0x1                   	// #1
    6eac:	94000000 	bl	eae4 <setenv>	6eac: R_AARCH64_CALL26	setenv
    6eb0:	2a0003f5 	mov	w21, w0
    6eb4:	36fffc60 	tbz	w0, #31, 6e40 <cmd_set+0x88>
    6eb8:	f9400294 	ldr	x20, [x20]
    6ebc:	f9401a76 	ldr	x22, [x19, #48]
    6ec0:	94000000 	bl	2454 <__errno>	6ec0: R_AARCH64_CALL26	__errno
    6ec4:	b9400004 	ldr	w4, [x0]
    6ec8:	aa1403e2 	mov	x2, x20
    6ecc:	aa1303e0 	mov	x0, x19
    6ed0:	90000003 	adrp	x3, ebb8 <_srodata>	6ed0: R_AARCH64_ADR_PREL_PG_HI21	.rodata+0x14ce
    6ed4:	90000001 	adrp	x1, f03d <g_fmtcmdfailed>	6ed4: R_AARCH64_ADR_PREL_PG_HI21	g_fmtcmdfailed
    6ed8:	91000063 	add	x3, x3, #0x0	6ed8: R_AARCH64_ADD_ABS_LO12_NC	.rodata+0x14ce
    6edc:	91000021 	add	x1, x1, #0x0	6edc: R_AARCH64_ADD_ABS_LO12_NC	g_fmtcmdfailed
    6ee0:	d63f02c0 	blr	x22
    6ee4:	17ffffd7 	b	6e40 <cmd_set+0x88>
    6ee8:	910006b5 	add	x21, x21, #0x1
    6eec:	aa1803e0 	mov	x0, x24
    6ef0:	94000000 	bl	59c <strchr>	6ef0: R_AARCH64_CALL26	strchr
    6ef4:	b5000160 	cbnz	x0, 6f20 <cmd_set+0x168>
    6ef8:	f9400294 	ldr	x20, [x20]
    6efc:	f9401a75 	ldr	x21, [x19, #48]
    6f00:	94000000 	bl	2454 <__errno>	6f00: R_AARCH64_CALL26	__errno
    6f04:	90000003 	adrp	x3, ebb8 <_srodata>	6f04: R_AARCH64_ADR_PREL_PG_HI21	.rodata+0x14ca
    6f08:	90000001 	adrp	x1, f103 <g_fmtarginvalid>	6f08: R_AARCH64_ADR_PREL_PG_HI21	g_fmtarginvalid
    6f0c:	b9400004 	ldr	w4, [x0]
    6f10:	91000063 	add	x3, x3, #0x0	6f10: R_AARCH64_ADD_ABS_LO12_NC	.rodata+0x14ca
    6f14:	aa1403e2 	mov	x2, x20
    6f18:	91000021 	add	x1, x1, #0x0	6f18: R_AARCH64_ADD_ABS_LO12_NC	g_fmtarginvalid
    6f1c:	17ffffc6 	b	6e34 <cmd_set+0x7c>
    6f20:	394b2261 	ldrb	w1, [x19, #712]
    6f24:	cb180003 	sub	x3, x0, x24
    6f28:	7100aeff 	cmp	w23, #0x2b
    6f2c:	1ac32323 	lsl	w3, w25, w3
    6f30:	2a030020 	orr	w0, w1, w3
    6f34:	12001c00 	and	w0, w0, #0xff
    6f38:	0a230023 	bic	w3, w1, w3
    6f3c:	1a801063 	csel	w3, w3, w0, ne	// ne = any
    6f40:	390b2263 	strb	w3, [x19, #712]
    6f44:	17ffffcb 	b	6e70 <cmd_set+0xb8>
    6f48:	52800035 	mov	w21, #0x1                   	// #1
    6f4c:	17ffffcd 	b	6e80 <cmd_set+0xc8>
    6f50:	52800015 	mov	w21, #0x0                   	// #0
    6f54:	17ffffbb 	b	6e40 <cmd_set+0x88>

0000000000006f58 <cmd_unset>:
cmd_unset():
    6f58:	a9be4ffe 	stp	x30, x19, [sp, #-32]!
    6f5c:	aa0003f3 	mov	x19, x0
    6f60:	a90157f4 	stp	x20, x21, [sp, #16]
    6f64:	aa0203f4 	mov	x20, x2
    6f68:	f9400440 	ldr	x0, [x2, #8]
    6f6c:	94000000 	bl	eb78 <unsetenv>	6f6c: R_AARCH64_CALL26	unsetenv
    6f70:	36f80200 	tbz	w0, #31, 6fb0 <cmd_unset+0x58>
    6f74:	f9400294 	ldr	x20, [x20]
    6f78:	f9401a75 	ldr	x21, [x19, #48]
    6f7c:	94000000 	bl	2454 <__errno>	6f7c: R_AARCH64_CALL26	__errno
    6f80:	b9400004 	ldr	w4, [x0]
    6f84:	aa1403e2 	mov	x2, x20
    6f88:	aa1303e0 	mov	x0, x19
    6f8c:	90000003 	adrp	x3, ebb8 <_srodata>	6f8c: R_AARCH64_ADR_PREL_PG_HI21	.rodata+0x14d8
    6f90:	90000001 	adrp	x1, f03d <g_fmtcmdfailed>	6f90: R_AARCH64_ADR_PREL_PG_HI21	g_fmtcmdfailed
    6f94:	91000063 	add	x3, x3, #0x0	6f94: R_AARCH64_ADD_ABS_LO12_NC	.rodata+0x14d8
    6f98:	91000021 	add	x1, x1, #0x0	6f98: R_AARCH64_ADD_ABS_LO12_NC	g_fmtcmdfailed
    6f9c:	d63f02a0 	blr	x21
    6fa0:	12800000 	mov	w0, #0xffffffff            	// #-1
    6fa4:	a94157f4 	ldp	x20, x21, [sp, #16]
    6fa8:	a8c24ffe 	ldp	x30, x19, [sp], #32
    6fac:	d65f03c0 	ret
    6fb0:	52800000 	mov	w0, #0x0                   	// #0
    6fb4:	17fffffc 	b	6fa4 <cmd_unset+0x4c>

0000000000006fb8 <nsh_fileapp>:
nsh_fileapp():
    6fb8:	a9ba4ffe 	stp	x30, x19, [sp, #-96]!
    6fbc:	a90157f4 	stp	x20, x21, [sp, #16]
    6fc0:	aa0003f4 	mov	x20, x0
    6fc4:	aa0103f5 	mov	x21, x1
    6fc8:	910103e0 	add	x0, sp, #0x40
    6fcc:	a9025ff6 	stp	x22, x23, [sp, #32]
    6fd0:	aa0203f7 	mov	x23, x2
    6fd4:	aa0303f6 	mov	x22, x3
    6fd8:	b9003fff 	str	wzr, [sp, #60]
    6fdc:	94000000 	bl	cef0 <posix_spawn_file_actions_init>	6fdc: R_AARCH64_CALL26	posix_spawn_file_actions_init
    6fe0:	34000240 	cbz	w0, 7028 <nsh_fileapp+0x70>
    6fe4:	f9401a85 	ldr	x5, [x20, #48]
    6fe8:	2a0003f3 	mov	w19, w0
    6fec:	2a0003e4 	mov	w4, w0
    6ff0:	90000003 	adrp	x3, ebb8 <_srodata>	6ff0: R_AARCH64_ADR_PREL_PG_HI21	.rodata+0x14ee
    6ff4:	90000001 	adrp	x1, f03d <g_fmtcmdfailed>	6ff4: R_AARCH64_ADR_PREL_PG_HI21	g_fmtcmdfailed
    6ff8:	91000063 	add	x3, x3, #0x0	6ff8: R_AARCH64_ADD_ABS_LO12_NC	.rodata+0x14ee
    6ffc:	aa1503e2 	mov	x2, x21
    7000:	91000021 	add	x1, x1, #0x0	7000: R_AARCH64_ADD_ABS_LO12_NC	g_fmtcmdfailed
    7004:	aa1403e0 	mov	x0, x20
    7008:	d63f00a0 	blr	x5
    700c:	7100027f 	cmp	w19, #0x0
    7010:	540007cc 	b.gt	7108 <nsh_fileapp+0x150>
    7014:	12800000 	mov	w0, #0xffffffff            	// #-1
    7018:	a94157f4 	ldp	x20, x21, [sp, #16]
    701c:	a9425ff6 	ldp	x22, x23, [sp, #32]
    7020:	a8c64ffe 	ldp	x30, x19, [sp], #96
    7024:	d65f03c0 	ret
    7028:	910123e0 	add	x0, sp, #0x48
    702c:	94000000 	bl	cefc <posix_spawnattr_init>	702c: R_AARCH64_CALL26	posix_spawnattr_init
    7030:	2a0003f3 	mov	w19, w0
    7034:	340001c0 	cbz	w0, 706c <nsh_fileapp+0xb4>
    7038:	f9401a96 	ldr	x22, [x20, #48]
    703c:	94000000 	bl	2454 <__errno>	703c: R_AARCH64_CALL26	__errno
    7040:	b9400004 	ldr	w4, [x0]
    7044:	90000003 	adrp	x3, ebb8 <_srodata>	7044: R_AARCH64_ADR_PREL_PG_HI21	.rodata+0x150c
    7048:	91000063 	add	x3, x3, #0x0	7048: R_AARCH64_ADD_ABS_LO12_NC	.rodata+0x150c
    704c:	90000001 	adrp	x1, f03d <g_fmtcmdfailed>	704c: R_AARCH64_ADR_PREL_PG_HI21	g_fmtcmdfailed
    7050:	aa1503e2 	mov	x2, x21
    7054:	91000021 	add	x1, x1, #0x0	7054: R_AARCH64_ADD_ABS_LO12_NC	g_fmtcmdfailed
    7058:	aa1403e0 	mov	x0, x20
    705c:	d63f02c0 	blr	x22
    7060:	910103e0 	add	x0, sp, #0x40
    7064:	94000000 	bl	cea0 <posix_spawn_file_actions_destroy>	7064: R_AARCH64_CALL26	posix_spawn_file_actions_destroy
    7068:	14000024 	b	70f8 <nsh_fileapp+0x140>
    706c:	b4000556 	cbz	x22, 7114 <nsh_fileapp+0x15c>
    7070:	f9400ac2 	ldr	x2, [x22, #16]
    7074:	b40001c2 	cbz	x2, 70ac <nsh_fileapp+0xf4>
    7078:	b9400ac3 	ldr	w3, [x22, #8]
    707c:	910103e0 	add	x0, sp, #0x40
    7080:	52800004 	mov	w4, #0x0                   	// #0
    7084:	52800001 	mov	w1, #0x0                   	// #0
    7088:	94000000 	bl	cdf0 <posix_spawn_file_actions_addopen>	7088: R_AARCH64_CALL26	posix_spawn_file_actions_addopen
    708c:	2a0003f3 	mov	w19, w0
    7090:	340000e0 	cbz	w0, 70ac <nsh_fileapp+0xf4>
    7094:	f9401a96 	ldr	x22, [x20, #48]
    7098:	94000000 	bl	2454 <__errno>	7098: R_AARCH64_CALL26	__errno
    709c:	90000003 	adrp	x3, ebb8 <_srodata>	709c: R_AARCH64_ADR_PREL_PG_HI21	.rodata+0x1521
    70a0:	b9400004 	ldr	w4, [x0]
    70a4:	91000063 	add	x3, x3, #0x0	70a4: R_AARCH64_ADD_ABS_LO12_NC	.rodata+0x1521
    70a8:	17ffffe9 	b	704c <nsh_fileapp+0x94>
    70ac:	f9400ec2 	ldr	x2, [x22, #24]
    70b0:	b4000322 	cbz	x2, 7114 <nsh_fileapp+0x15c>
    70b4:	b9400ec3 	ldr	w3, [x22, #12]
    70b8:	910103e0 	add	x0, sp, #0x40
    70bc:	52803484 	mov	w4, #0x1a4                 	// #420
    70c0:	52800021 	mov	w1, #0x1                   	// #1
    70c4:	94000000 	bl	cdf0 <posix_spawn_file_actions_addopen>	70c4: R_AARCH64_CALL26	posix_spawn_file_actions_addopen
    70c8:	2a0003f3 	mov	w19, w0
    70cc:	34000240 	cbz	w0, 7114 <nsh_fileapp+0x15c>
    70d0:	f9401a96 	ldr	x22, [x20, #48]
    70d4:	94000000 	bl	2454 <__errno>	70d4: R_AARCH64_CALL26	__errno
    70d8:	b9400004 	ldr	w4, [x0]
    70dc:	90000003 	adrp	x3, ebb8 <_srodata>	70dc: R_AARCH64_ADR_PREL_PG_HI21	.rodata+0x1521
    70e0:	90000001 	adrp	x1, f03d <g_fmtcmdfailed>	70e0: R_AARCH64_ADR_PREL_PG_HI21	g_fmtcmdfailed
    70e4:	91000063 	add	x3, x3, #0x0	70e4: R_AARCH64_ADD_ABS_LO12_NC	.rodata+0x1521
    70e8:	aa1503e2 	mov	x2, x21
    70ec:	91000021 	add	x1, x1, #0x0	70ec: R_AARCH64_ADD_ABS_LO12_NC	g_fmtcmdfailed
    70f0:	aa1403e0 	mov	x0, x20
    70f4:	d63f02c0 	blr	x22
    70f8:	910123e0 	add	x0, sp, #0x48
    70fc:	94000000 	bl	cf74 <posix_spawnattr_destroy>	70fc: R_AARCH64_CALL26	posix_spawnattr_destroy
    7100:	7100027f 	cmp	w19, #0x0
    7104:	5400088d 	b.le	7214 <nsh_fileapp+0x25c>
    7108:	94000000 	bl	2454 <__errno>	7108: R_AARCH64_CALL26	__errno
    710c:	b9000013 	str	w19, [x0]
    7110:	17ffffc1 	b	7014 <nsh_fileapp+0x5c>
    7114:	94000000 	bl	e84c <get_environ_ptr>	7114: R_AARCH64_CALL26	get_environ_ptr
    7118:	aa0003e5 	mov	x5, x0
    711c:	aa1703e4 	mov	x4, x23
    7120:	910123e3 	add	x3, sp, #0x48
    7124:	910103e2 	add	x2, sp, #0x40
    7128:	aa1503e1 	mov	x1, x21
    712c:	9100e3e0 	add	x0, sp, #0x38
    7130:	94000000 	bl	ea20 <posix_spawn>	7130: R_AARCH64_CALL26	posix_spawn
    7134:	2a0003f3 	mov	w19, w0
    7138:	35fff940 	cbnz	w0, 7060 <nsh_fileapp+0xa8>
    713c:	394a8281 	ldrb	w1, [x20, #672]
    7140:	b9403be2 	ldr	w2, [sp, #56]
    7144:	b902a682 	str	w2, [x20, #676]
    7148:	37000501 	tbnz	w1, #0, 71e8 <nsh_fileapp+0x230>
    714c:	394c6280 	ldrb	w0, [x20, #792]
    7150:	360002e0 	tbz	w0, #0, 71ac <nsh_fileapp+0x1f4>
    7154:	f9401683 	ldr	x3, [x20, #40]
    7158:	93407c42 	sxtw	x2, w2
    715c:	aa1403e0 	mov	x0, x20
    7160:	52802301 	mov	w1, #0x118                 	// #280
    7164:	d63f0060 	blr	x3
    7168:	2a0003f6 	mov	w22, w0
    716c:	b9403be0 	ldr	w0, [sp, #56]
    7170:	9100f3e1 	add	x1, sp, #0x3c
    7174:	52800082 	mov	w2, #0x4                   	// #4
    7178:	94000000 	bl	eb90 <waitpid>	7178: R_AARCH64_CALL26	waitpid
    717c:	2a0003f3 	mov	w19, w0
    7180:	37f801a0 	tbnz	w0, #31, 71b4 <nsh_fileapp+0x1fc>
    7184:	52800013 	mov	w19, #0x0                   	// #0
    7188:	394c6280 	ldrb	w0, [x20, #792]
    718c:	3607f6a0 	tbz	w0, #0, 7060 <nsh_fileapp+0xa8>
    7190:	35fff696 	cbnz	w22, 7060 <nsh_fileapp+0xa8>
    7194:	f9401683 	ldr	x3, [x20, #40]
    7198:	aa1403e0 	mov	x0, x20
    719c:	d2800002 	mov	x2, #0x0                   	// #0
    71a0:	52802321 	mov	w1, #0x119                 	// #281
    71a4:	d63f0060 	blr	x3
    71a8:	17ffffae 	b	7060 <nsh_fileapp+0xa8>
    71ac:	52800016 	mov	w22, #0x0                   	// #0
    71b0:	17ffffef 	b	716c <nsh_fileapp+0x1b4>
    71b4:	94000000 	bl	2454 <__errno>	71b4: R_AARCH64_CALL26	__errno
    71b8:	b9400004 	ldr	w4, [x0]
    71bc:	7100289f 	cmp	w4, #0xa
    71c0:	54fffe20 	b.eq	7184 <nsh_fileapp+0x1cc>  // b.none
    71c4:	f9401a85 	ldr	x5, [x20, #48]
    71c8:	aa1503e2 	mov	x2, x21
    71cc:	aa1403e0 	mov	x0, x20
    71d0:	90000003 	adrp	x3, ebb8 <_srodata>	71d0: R_AARCH64_ADR_PREL_PG_HI21	.rodata+0x1542
    71d4:	90000001 	adrp	x1, f03d <g_fmtcmdfailed>	71d4: R_AARCH64_ADR_PREL_PG_HI21	g_fmtcmdfailed
    71d8:	91000063 	add	x3, x3, #0x0	71d8: R_AARCH64_ADD_ABS_LO12_NC	.rodata+0x1542
    71dc:	91000021 	add	x1, x1, #0x0	71dc: R_AARCH64_ADD_ABS_LO12_NC	g_fmtcmdfailed
    71e0:	d63f00a0 	blr	x5
    71e4:	17ffffe9 	b	7188 <nsh_fileapp+0x1d0>
    71e8:	9100c3e1 	add	x1, sp, #0x30
    71ec:	94000000 	bl	2fa0 <sched_getparam>	71ec: R_AARCH64_CALL26	sched_getparam
    71f0:	f9401e85 	ldr	x5, [x20, #56]
    71f4:	aa1503e2 	mov	x2, x21
    71f8:	b94033e4 	ldr	w4, [sp, #48]
    71fc:	aa1403e0 	mov	x0, x20
    7200:	52800003 	mov	w3, #0x0                   	// #0
    7204:	90000001 	adrp	x1, ebb8 <_srodata>	7204: R_AARCH64_ADR_PREL_PG_HI21	.rodata+0x154a
    7208:	91000021 	add	x1, x1, #0x0	7208: R_AARCH64_ADD_ABS_LO12_NC	.rodata+0x154a
    720c:	d63f00a0 	blr	x5
    7210:	17ffff94 	b	7060 <nsh_fileapp+0xa8>
    7214:	54fff001 	b.ne	7014 <nsh_fileapp+0x5c>  // b.any
    7218:	b9403fe0 	ldr	w0, [sp, #60]
    721c:	7100001f 	cmp	w0, #0x0
    7220:	1a9f07e0 	cset	w0, ne	// ne = any
    7224:	17ffff7d 	b	7018 <nsh_fileapp+0x60>
    7228:	a9bf4ffe 	stp	x30, x19, [sp, #-16]!
    722c:	90000001 	adrp	x1, ebb8 <_srodata>	722c: R_AARCH64_ADR_PREL_PG_HI21	.rodata+0x1556
    7230:	aa0003f3 	mov	x19, x0
    7234:	91000021 	add	x1, x1, #0x0	7234: R_AARCH64_ADD_ABS_LO12_NC	.rodata+0x1556
    7238:	94000000 	bl	680 <strcmp>	7238: R_AARCH64_CALL26	strcmp
    723c:	34000120 	cbz	w0, 7260 <nsh_fileapp+0x2a8>
    7240:	aa1303e0 	mov	x0, x19
    7244:	90000001 	adrp	x1, ebb8 <_srodata>	7244: R_AARCH64_ADR_PREL_PG_HI21	.rodata+0x1558
    7248:	91000021 	add	x1, x1, #0x0	7248: R_AARCH64_ADD_ABS_LO12_NC	.rodata+0x1558
    724c:	94000000 	bl	680 <strcmp>	724c: R_AARCH64_CALL26	strcmp
    7250:	7100001f 	cmp	w0, #0x0
    7254:	1a9f17e0 	cset	w0, eq	// eq = none
    7258:	a8c14ffe 	ldp	x30, x19, [sp], #16
    725c:	d65f03c0 	ret
    7260:	52800020 	mov	w0, #0x1                   	// #1
    7264:	17fffffd 	b	7258 <nsh_fileapp+0x2a0>
    7268:	a9b64ffe 	stp	x30, x19, [sp, #-160]!
    726c:	aa0003f3 	mov	x19, x0
    7270:	a9025ff6 	stp	x22, x23, [sp, #32]
    7274:	aa0103f6 	mov	x22, x1
    7278:	aa1603e0 	mov	x0, x22
    727c:	52800021 	mov	w1, #0x1                   	// #1
    7280:	a90157f4 	stp	x20, x21, [sp, #16]
    7284:	aa0203f4 	mov	x20, x2
    7288:	f9001bf8 	str	x24, [sp, #48]
    728c:	94000000 	bl	e9c0 <open>	728c: R_AARCH64_CALL26	open
    7290:	36f80260 	tbz	w0, #31, 72dc <nsh_fileapp+0x324>
    7294:	f9401a74 	ldr	x20, [x19, #48]
    7298:	94000000 	bl	2454 <__errno>	7298: R_AARCH64_CALL26	__errno
    729c:	b9400004 	ldr	w4, [x0]
    72a0:	aa1303e0 	mov	x0, x19
    72a4:	12800013 	mov	w19, #0xffffffff            	// #-1
    72a8:	90000003 	adrp	x3, ebb8 <_srodata>	72a8: R_AARCH64_ADR_PREL_PG_HI21	.rodata+0x155b
    72ac:	90000002 	adrp	x2, ebb8 <_srodata>	72ac: R_AARCH64_ADR_PREL_PG_HI21	.rodata+0x1565
    72b0:	91000063 	add	x3, x3, #0x0	72b0: R_AARCH64_ADD_ABS_LO12_NC	.rodata+0x155b
    72b4:	91000042 	add	x2, x2, #0x0	72b4: R_AARCH64_ADD_ABS_LO12_NC	.rodata+0x1565
    72b8:	90000001 	adrp	x1, f03d <g_fmtcmdfailed>	72b8: R_AARCH64_ADR_PREL_PG_HI21	g_fmtcmdfailed
    72bc:	91000021 	add	x1, x1, #0x0	72bc: R_AARCH64_ADD_ABS_LO12_NC	g_fmtcmdfailed
    72c0:	d63f0280 	blr	x20
    72c4:	f9401bf8 	ldr	x24, [sp, #48]
    72c8:	2a1303e0 	mov	w0, w19
    72cc:	a94157f4 	ldp	x20, x21, [sp, #16]
    72d0:	a9425ff6 	ldp	x22, x23, [sp, #32]
    72d4:	a8ca4ffe 	ldp	x30, x19, [sp], #160
    72d8:	d65f03c0 	ret
    72dc:	2a0003f5 	mov	w21, w0
    72e0:	910123e1 	add	x1, sp, #0x48
    72e4:	aa1403e0 	mov	x0, x20
    72e8:	94000000 	bl	eb08 <stat>	72e8: R_AARCH64_CALL26	stat
    72ec:	35000380 	cbnz	w0, 735c <nsh_fileapp+0x3a4>
    72f0:	b94053e2 	ldr	w2, [sp, #80]
    72f4:	12140c42 	and	w2, w2, #0xf000
    72f8:	7140105f 	cmp	w2, #0x4, lsl #12
    72fc:	540002c1 	b.ne	7354 <nsh_fileapp+0x39c>  // b.any
    7300:	aa1403e0 	mov	x0, x20
    7304:	94000000 	bl	942c <nsh_trimdir>	7304: R_AARCH64_CALL26	nsh_trimdir
    7308:	aa1603e0 	mov	x0, x22
    730c:	94000000 	bl	cb88 <basename>	730c: R_AARCH64_CALL26	basename
    7310:	aa1403e1 	mov	x1, x20
    7314:	aa0003e2 	mov	x2, x0
    7318:	aa1303e0 	mov	x0, x19
    731c:	94000000 	bl	94c8 <nsh_getdirpath>	731c: R_AARCH64_CALL26	nsh_getdirpath
    7320:	aa0003f4 	mov	x20, x0
    7324:	b5000220 	cbnz	x0, 7368 <nsh_fileapp+0x3b0>
    7328:	f9401a63 	ldr	x3, [x19, #48]
    732c:	aa1303e0 	mov	x0, x19
    7330:	12800013 	mov	w19, #0xffffffff            	// #-1
    7334:	90000002 	adrp	x2, ebb8 <_srodata>	7334: R_AARCH64_ADR_PREL_PG_HI21	.rodata+0x1565
    7338:	90000001 	adrp	x1, f025 <g_fmtcmdoutofmemory>	7338: R_AARCH64_ADR_PREL_PG_HI21	g_fmtcmdoutofmemory
    733c:	91000042 	add	x2, x2, #0x0	733c: R_AARCH64_ADD_ABS_LO12_NC	.rodata+0x1565
    7340:	91000021 	add	x1, x1, #0x0	7340: R_AARCH64_ADD_ABS_LO12_NC	g_fmtcmdoutofmemory
    7344:	d63f0060 	blr	x3
    7348:	2a1503e0 	mov	w0, w21
    734c:	94000000 	bl	e814 <close>	734c: R_AARCH64_CALL26	close
    7350:	17ffffdd 	b	72c4 <nsh_fileapp+0x30c>
    7354:	7140205f 	cmp	w2, #0x8, lsl #12
    7358:	54000341 	b.ne	73c0 <nsh_fileapp+0x408>  // b.any
    735c:	528004c1 	mov	w1, #0x26                  	// #38
    7360:	d2800017 	mov	x23, #0x0                   	// #0
    7364:	14000003 	b	7370 <nsh_fileapp+0x3b8>
    7368:	aa0003f7 	mov	x23, x0
    736c:	528004c1 	mov	w1, #0x26                  	// #38
    7370:	aa1403e0 	mov	x0, x20
    7374:	528036c2 	mov	w2, #0x1b6                 	// #438
    7378:	94000000 	bl	e9c0 <open>	7378: R_AARCH64_CALL26	open
    737c:	2a0003f6 	mov	w22, w0
    7380:	36f804a0 	tbz	w0, #31, 7414 <nsh_fileapp+0x45c>
    7384:	f9401a74 	ldr	x20, [x19, #48]
    7388:	94000000 	bl	2454 <__errno>	7388: R_AARCH64_CALL26	__errno
    738c:	b9400004 	ldr	w4, [x0]
    7390:	aa1303e0 	mov	x0, x19
    7394:	12800013 	mov	w19, #0xffffffff            	// #-1
    7398:	90000003 	adrp	x3, ebb8 <_srodata>	7398: R_AARCH64_ADR_PREL_PG_HI21	.rodata+0x1568
    739c:	90000002 	adrp	x2, ebb8 <_srodata>	739c: R_AARCH64_ADR_PREL_PG_HI21	.rodata+0x1565
    73a0:	91000063 	add	x3, x3, #0x0	73a0: R_AARCH64_ADD_ABS_LO12_NC	.rodata+0x1568
    73a4:	91000042 	add	x2, x2, #0x0	73a4: R_AARCH64_ADD_ABS_LO12_NC	.rodata+0x1565
    73a8:	90000001 	adrp	x1, f03d <g_fmtcmdfailed>	73a8: R_AARCH64_ADR_PREL_PG_HI21	g_fmtcmdfailed
    73ac:	91000021 	add	x1, x1, #0x0	73ac: R_AARCH64_ADD_ABS_LO12_NC	g_fmtcmdfailed
    73b0:	d63f0280 	blr	x20
    73b4:	aa1703e0 	mov	x0, x23
    73b8:	94000000 	bl	b598 <free>	73b8: R_AARCH64_CALL26	free
    73bc:	17ffffe3 	b	7348 <nsh_fileapp+0x390>
    73c0:	52800041 	mov	w1, #0x2                   	// #2
    73c4:	17ffffe7 	b	7360 <nsh_fileapp+0x3a8>
    73c8:	94000000 	bl	2454 <__errno>	73c8: R_AARCH64_CALL26	__errno
    73cc:	b9400004 	ldr	w4, [x0]
    73d0:	90000003 	adrp	x3, ebb8 <_srodata>	73d0: R_AARCH64_ADR_PREL_PG_HI21	.rodata+0x1572
    73d4:	91000063 	add	x3, x3, #0x0	73d4: R_AARCH64_ADD_ABS_LO12_NC	.rodata+0x1572
    73d8:	aa1403e2 	mov	x2, x20
    73dc:	aa1303e0 	mov	x0, x19
    73e0:	90000001 	adrp	x1, f03d <g_fmtcmdfailed>	73e0: R_AARCH64_ADR_PREL_PG_HI21	g_fmtcmdfailed
    73e4:	91000021 	add	x1, x1, #0x0	73e4: R_AARCH64_ADD_ABS_LO12_NC	g_fmtcmdfailed
    73e8:	d63f0300 	blr	x24
    73ec:	1400001f 	b	7468 <nsh_fileapp+0x4b0>
    73f0:	aa1403e2 	mov	x2, x20
    73f4:	aa1803e1 	mov	x1, x24
    73f8:	2a1603e0 	mov	w0, w22
    73fc:	94000000 	bl	2fe0 <write>	73fc: R_AARCH64_CALL26	write
    7400:	b7f803c0 	tbnz	x0, #63, 7478 <nsh_fileapp+0x4c0>
    7404:	cb000294 	sub	x20, x20, x0
    7408:	8b000318 	add	x24, x24, x0
    740c:	f100029f 	cmp	x20, #0x0
    7410:	54ffff0c 	b.gt	73f0 <nsh_fileapp+0x438>
    7414:	91018278 	add	x24, x19, #0x60
    7418:	2a1503e0 	mov	w0, w21
    741c:	aa1803e1 	mov	x1, x24
    7420:	d2804002 	mov	x2, #0x200                 	// #512
    7424:	94000000 	bl	ea70 <read>	7424: R_AARCH64_CALL26	read
    7428:	aa0003f4 	mov	x20, x0
    742c:	f100001f 	cmp	x0, #0x0
    7430:	b40003c0 	cbz	x0, 74a8 <nsh_fileapp+0x4f0>
    7434:	54fffdea 	b.ge	73f0 <nsh_fileapp+0x438>  // b.tcont
    7438:	94000000 	bl	2454 <__errno>	7438: R_AARCH64_CALL26	__errno
    743c:	b9400000 	ldr	w0, [x0]
    7440:	f9401a78 	ldr	x24, [x19, #48]
    7444:	90000014 	adrp	x20, ebb8 <_srodata>	7444: R_AARCH64_ADR_PREL_PG_HI21	.rodata+0x1565
    7448:	7100101f 	cmp	w0, #0x4
    744c:	91000294 	add	x20, x20, #0x0	744c: R_AARCH64_ADD_ABS_LO12_NC	.rodata+0x1565
    7450:	54fffbc1 	b.ne	73c8 <nsh_fileapp+0x410>  // b.any
    7454:	90000001 	adrp	x1, efec <g_fmtsignalrecvd>	7454: R_AARCH64_ADR_PREL_PG_HI21	g_fmtsignalrecvd
    7458:	aa1403e2 	mov	x2, x20
    745c:	91000021 	add	x1, x1, #0x0	745c: R_AARCH64_ADD_ABS_LO12_NC	g_fmtsignalrecvd
    7460:	aa1303e0 	mov	x0, x19
    7464:	d63f0300 	blr	x24
    7468:	12800013 	mov	w19, #0xffffffff            	// #-1
    746c:	2a1603e0 	mov	w0, w22
    7470:	94000000 	bl	e814 <close>	7470: R_AARCH64_CALL26	close
    7474:	17ffffd0 	b	73b4 <nsh_fileapp+0x3fc>
    7478:	94000000 	bl	2454 <__errno>	7478: R_AARCH64_CALL26	__errno
    747c:	b9400000 	ldr	w0, [x0]
    7480:	f9401a78 	ldr	x24, [x19, #48]
    7484:	90000014 	adrp	x20, ebb8 <_srodata>	7484: R_AARCH64_ADR_PREL_PG_HI21	.rodata+0x1565
    7488:	7100101f 	cmp	w0, #0x4
    748c:	91000294 	add	x20, x20, #0x0	748c: R_AARCH64_ADD_ABS_LO12_NC	.rodata+0x1565
    7490:	54fffe20 	b.eq	7454 <nsh_fileapp+0x49c>  // b.none
    7494:	94000000 	bl	2454 <__errno>	7494: R_AARCH64_CALL26	__errno
    7498:	b9400004 	ldr	w4, [x0]
    749c:	90000003 	adrp	x3, ebb8 <_srodata>	749c: R_AARCH64_ADR_PREL_PG_HI21	.rodata+0x1577
    74a0:	91000063 	add	x3, x3, #0x0	74a0: R_AARCH64_ADD_ABS_LO12_NC	.rodata+0x1577
    74a4:	17ffffcd 	b	73d8 <nsh_fileapp+0x420>
    74a8:	52800013 	mov	w19, #0x0                   	// #0
    74ac:	17fffff0 	b	746c <nsh_fileapp+0x4b4>
    74b0:	a9b44ffe 	stp	x30, x19, [sp, #-192]!
    74b4:	a90157f4 	stp	x20, x21, [sp, #16]
    74b8:	aa0003f4 	mov	x20, x0
    74bc:	aa0103e0 	mov	x0, x1
    74c0:	a9025ff6 	stp	x22, x23, [sp, #32]
    74c4:	aa0103f7 	mov	x23, x1
    74c8:	a90367f8 	stp	x24, x25, [sp, #48]
    74cc:	aa0203f8 	mov	x24, x2
    74d0:	a9046ffa 	stp	x26, x27, [sp, #64]
    74d4:	f9002bfc 	str	x28, [sp, #80]
    74d8:	94000000 	bl	ca9c <opendir>	74d8: R_AARCH64_CALL26	opendir
    74dc:	b40001a0 	cbz	x0, 7510 <nsh_fileapp+0x558>
    74e0:	90000019 	adrp	x25, ebb8 <_srodata>	74e0: R_AARCH64_ADR_PREL_PG_HI21	.rodata+0x1556
    74e4:	9000001a 	adrp	x26, ebb8 <_srodata>	74e4: R_AARCH64_ADR_PREL_PG_HI21	.rodata+0x1558
    74e8:	aa0003f6 	mov	x22, x0
    74ec:	91000339 	add	x25, x25, #0x0	74ec: R_AARCH64_ADD_ABS_LO12_NC	.rodata+0x1556
    74f0:	9100035a 	add	x26, x26, #0x0	74f0: R_AARCH64_ADD_ABS_LO12_NC	.rodata+0x1558
    74f4:	52800013 	mov	w19, #0x0                   	// #0
    74f8:	aa1603e0 	mov	x0, x22
    74fc:	94000000 	bl	cb44 <readdir>	74fc: R_AARCH64_CALL26	readdir
    7500:	b50008a0 	cbnz	x0, 7614 <nsh_fileapp+0x65c>
    7504:	aa1603e0 	mov	x0, x22
    7508:	94000000 	bl	cafc <closedir>	7508: R_AARCH64_CALL26	closedir
    750c:	1400000d 	b	7540 <nsh_fileapp+0x588>
    7510:	f9401a93 	ldr	x19, [x20, #48]
    7514:	94000000 	bl	2454 <__errno>	7514: R_AARCH64_CALL26	__errno
    7518:	b9400004 	ldr	w4, [x0]
    751c:	90000003 	adrp	x3, ebb8 <_srodata>	751c: R_AARCH64_ADR_PREL_PG_HI21	.rodata+0x157d
    7520:	aa1403e0 	mov	x0, x20
    7524:	91000063 	add	x3, x3, #0x0	7524: R_AARCH64_ADD_ABS_LO12_NC	.rodata+0x157d
    7528:	90000002 	adrp	x2, ebb8 <_srodata>	7528: R_AARCH64_ADR_PREL_PG_HI21	.rodata+0x1565
    752c:	90000001 	adrp	x1, f03d <g_fmtcmdfailed>	752c: R_AARCH64_ADR_PREL_PG_HI21	g_fmtcmdfailed
    7530:	91000042 	add	x2, x2, #0x0	7530: R_AARCH64_ADD_ABS_LO12_NC	.rodata+0x1565
    7534:	91000021 	add	x1, x1, #0x0	7534: R_AARCH64_ADD_ABS_LO12_NC	g_fmtcmdfailed
    7538:	d63f0260 	blr	x19
    753c:	12800013 	mov	w19, #0xffffffff            	// #-1
    7540:	f9402bfc 	ldr	x28, [sp, #80]
    7544:	2a1303e0 	mov	w0, w19
    7548:	a94157f4 	ldp	x20, x21, [sp, #16]
    754c:	a9425ff6 	ldp	x22, x23, [sp, #32]
    7550:	a94367f8 	ldp	x24, x25, [sp, #48]
    7554:	a9446ffa 	ldp	x26, x27, [sp, #64]
    7558:	a8cc4ffe 	ldp	x30, x19, [sp], #192
    755c:	d65f03c0 	ret
    7560:	aa1b03e2 	mov	x2, x27
    7564:	aa1803e1 	mov	x1, x24
    7568:	aa1403e0 	mov	x0, x20
    756c:	94000000 	bl	94c8 <nsh_getdirpath>	756c: R_AARCH64_CALL26	nsh_getdirpath
    7570:	aa0003fb 	mov	x27, x0
    7574:	b4000480 	cbz	x0, 7604 <nsh_fileapp+0x64c>
    7578:	b94073e1 	ldr	w1, [sp, #112]
    757c:	12140c21 	and	w1, w1, #0xf000
    7580:	7140103f 	cmp	w1, #0x4, lsl #12
    7584:	54000321 	b.ne	75e8 <nsh_fileapp+0x630>  // b.any
    7588:	52803fa1 	mov	w1, #0x1fd                 	// #509
    758c:	94000000 	bl	e950 <mkdir>	758c: R_AARCH64_CALL26	mkdir
    7590:	2a0003f3 	mov	w19, w0
    7594:	340001e0 	cbz	w0, 75d0 <nsh_fileapp+0x618>
    7598:	f9401a9c 	ldr	x28, [x20, #48]
    759c:	94000000 	bl	2454 <__errno>	759c: R_AARCH64_CALL26	__errno
    75a0:	b9400004 	ldr	w4, [x0]
    75a4:	90000003 	adrp	x3, ebb8 <_srodata>	75a4: R_AARCH64_ADR_PREL_PG_HI21	.rodata+0x158a
    75a8:	90000002 	adrp	x2, ebb8 <_srodata>	75a8: R_AARCH64_ADR_PREL_PG_HI21	.rodata+0x1565
    75ac:	90000001 	adrp	x1, f03d <g_fmtcmdfailed>	75ac: R_AARCH64_ADR_PREL_PG_HI21	g_fmtcmdfailed
    75b0:	91000063 	add	x3, x3, #0x0	75b0: R_AARCH64_ADD_ABS_LO12_NC	.rodata+0x158a
    75b4:	91000042 	add	x2, x2, #0x0	75b4: R_AARCH64_ADD_ABS_LO12_NC	.rodata+0x1565
    75b8:	91000021 	add	x1, x1, #0x0	75b8: R_AARCH64_ADD_ABS_LO12_NC	g_fmtcmdfailed
    75bc:	aa1403e0 	mov	x0, x20
    75c0:	d63f0380 	blr	x28
    75c4:	aa1b03e0 	mov	x0, x27
    75c8:	94000000 	bl	b598 <free>	75c8: R_AARCH64_CALL26	free
    75cc:	14000033 	b	7698 <nsh_fileapp+0x6e0>
    75d0:	aa1b03e2 	mov	x2, x27
    75d4:	aa1503e1 	mov	x1, x21
    75d8:	aa1403e0 	mov	x0, x20
    75dc:	97ffffb5 	bl	74b0 <nsh_fileapp+0x4f8>
    75e0:	2a0003f3 	mov	w19, w0
    75e4:	17fffff8 	b	75c4 <nsh_fileapp+0x60c>
    75e8:	aa0003e2 	mov	x2, x0
    75ec:	aa1503e1 	mov	x1, x21
    75f0:	aa1403e0 	mov	x0, x20
    75f4:	94000000 	bl	0 <memcpy>	75f4: R_AARCH64_CALL26	.text+0x7268
    75f8:	7100001f 	cmp	w0, #0x0
    75fc:	5a9f03f3 	csetm	w19, ne	// ne = any
    7600:	17fffff1 	b	75c4 <nsh_fileapp+0x60c>
    7604:	12800013 	mov	w19, #0xffffffff            	// #-1
    7608:	14000024 	b	7698 <nsh_fileapp+0x6e0>
    760c:	12800013 	mov	w19, #0xffffffff            	// #-1
    7610:	17ffffba 	b	74f8 <nsh_fileapp+0x540>
    7614:	35fff793 	cbnz	w19, 7504 <nsh_fileapp+0x54c>
    7618:	9100041b 	add	x27, x0, #0x1
    761c:	aa1903e1 	mov	x1, x25
    7620:	aa1b03e0 	mov	x0, x27
    7624:	94000000 	bl	680 <strcmp>	7624: R_AARCH64_CALL26	strcmp
    7628:	2a0003f3 	mov	w19, w0
    762c:	34fff660 	cbz	w0, 74f8 <nsh_fileapp+0x540>
    7630:	aa1a03e1 	mov	x1, x26
    7634:	aa1b03e0 	mov	x0, x27
    7638:	94000000 	bl	680 <strcmp>	7638: R_AARCH64_CALL26	strcmp
    763c:	2a0003f3 	mov	w19, w0
    7640:	34fff5c0 	cbz	w0, 74f8 <nsh_fileapp+0x540>
    7644:	aa1b03e2 	mov	x2, x27
    7648:	aa1703e1 	mov	x1, x23
    764c:	aa1403e0 	mov	x0, x20
    7650:	94000000 	bl	94c8 <nsh_getdirpath>	7650: R_AARCH64_CALL26	nsh_getdirpath
    7654:	aa0003f5 	mov	x21, x0
    7658:	b4fffda0 	cbz	x0, 760c <nsh_fileapp+0x654>
    765c:	9101a3e1 	add	x1, sp, #0x68
    7660:	94000000 	bl	eb08 <stat>	7660: R_AARCH64_CALL26	stat
    7664:	2a0003f3 	mov	w19, w0
    7668:	34fff7c0 	cbz	w0, 7560 <nsh_fileapp+0x5a8>
    766c:	f9401a9b 	ldr	x27, [x20, #48]
    7670:	94000000 	bl	2454 <__errno>	7670: R_AARCH64_CALL26	__errno
    7674:	b9400004 	ldr	w4, [x0]
    7678:	90000003 	adrp	x3, ebb8 <_srodata>	7678: R_AARCH64_ADR_PREL_PG_HI21	.rodata+0x1585
    767c:	90000002 	adrp	x2, ebb8 <_srodata>	767c: R_AARCH64_ADR_PREL_PG_HI21	.rodata+0x1565
    7680:	90000001 	adrp	x1, f03d <g_fmtcmdfailed>	7680: R_AARCH64_ADR_PREL_PG_HI21	g_fmtcmdfailed
    7684:	91000063 	add	x3, x3, #0x0	7684: R_AARCH64_ADD_ABS_LO12_NC	.rodata+0x1585
    7688:	91000042 	add	x2, x2, #0x0	7688: R_AARCH64_ADD_ABS_LO12_NC	.rodata+0x1565
    768c:	91000021 	add	x1, x1, #0x0	768c: R_AARCH64_ADD_ABS_LO12_NC	g_fmtcmdfailed
    7690:	aa1403e0 	mov	x0, x20
    7694:	d63f0360 	blr	x27
    7698:	aa1503e0 	mov	x0, x21
    769c:	94000000 	bl	b598 <free>	769c: R_AARCH64_CALL26	free
    76a0:	17ffff96 	b	74f8 <nsh_fileapp+0x540>
    76a4:	a9b54ffe 	stp	x30, x19, [sp, #-176]!
    76a8:	aa0003f3 	mov	x19, x0
    76ac:	52800160 	mov	w0, #0xb                   	// #11
    76b0:	a90157f4 	stp	x20, x21, [sp, #16]
    76b4:	aa0203f4 	mov	x20, x2
    76b8:	a9025ff6 	stp	x22, x23, [sp, #32]
    76bc:	aa0103f7 	mov	x23, x1
    76c0:	f9001bf8 	str	x24, [sp, #48]
    76c4:	6a03001f 	tst	w0, w3
    76c8:	54000de0 	b.eq	7884 <nsh_fileapp+0x8cc>  // b.none
    76cc:	d2800b02 	mov	x2, #0x58                  	// #88
    76d0:	aa0303f5 	mov	x21, x3
    76d4:	8b2263e0 	add	x0, sp, x2
    76d8:	52800001 	mov	w1, #0x0                   	// #0
    76dc:	94000000 	bl	3c0 <memset>	76dc: R_AARCH64_CALL26	memset
    76e0:	b40003b4 	cbz	x20, 7754 <nsh_fileapp+0x79c>
    76e4:	91000682 	add	x2, x20, #0x1
    76e8:	aa1703e1 	mov	x1, x23
    76ec:	aa1303e0 	mov	x0, x19
    76f0:	94000000 	bl	94c8 <nsh_getdirpath>	76f0: R_AARCH64_CALL26	nsh_getdirpath
    76f4:	910163e1 	add	x1, sp, #0x58
    76f8:	aa0003f8 	mov	x24, x0
    76fc:	94000000 	bl	eb08 <stat>	76fc: R_AARCH64_CALL26	stat
    7700:	2a0003f6 	mov	w22, w0
    7704:	aa1803e0 	mov	x0, x24
    7708:	94000000 	bl	b598 <free>	7708: R_AARCH64_CALL26	free
    770c:	340002f6 	cbz	w22, 7768 <nsh_fileapp+0x7b0>
    7710:	f9401a74 	ldr	x20, [x19, #48]
    7714:	94000000 	bl	2454 <__errno>	7714: R_AARCH64_CALL26	__errno
    7718:	b9400004 	ldr	w4, [x0]
    771c:	90000003 	adrp	x3, ebb8 <_srodata>	771c: R_AARCH64_ADR_PREL_PG_HI21	.rodata+0x1585
    7720:	aa1303e0 	mov	x0, x19
    7724:	91000063 	add	x3, x3, #0x0	7724: R_AARCH64_ADD_ABS_LO12_NC	.rodata+0x1585
    7728:	90000002 	adrp	x2, ebb8 <_srodata>	7728: R_AARCH64_ADR_PREL_PG_HI21	.rodata+0x1590
    772c:	90000001 	adrp	x1, f03d <g_fmtcmdfailed>	772c: R_AARCH64_ADR_PREL_PG_HI21	g_fmtcmdfailed
    7730:	91000042 	add	x2, x2, #0x0	7730: R_AARCH64_ADD_ABS_LO12_NC	.rodata+0x1590
    7734:	91000021 	add	x1, x1, #0x0	7734: R_AARCH64_ADD_ABS_LO12_NC	g_fmtcmdfailed
    7738:	d63f0280 	blr	x20
    773c:	12800000 	mov	w0, #0xffffffff            	// #-1
    7740:	f9401bf8 	ldr	x24, [sp, #48]
    7744:	a94157f4 	ldp	x20, x21, [sp, #16]
    7748:	a9425ff6 	ldp	x22, x23, [sp, #32]
    774c:	a8cb4ffe 	ldp	x30, x19, [sp], #176
    7750:	d65f03c0 	ret
    7754:	910163e1 	add	x1, sp, #0x58
    7758:	aa1703e0 	mov	x0, x23
    775c:	94000000 	bl	eb08 <stat>	775c: R_AARCH64_CALL26	stat
    7760:	2a0003f6 	mov	w22, w0
    7764:	17ffffea 	b	770c <nsh_fileapp+0x754>
    7768:	360806b5 	tbz	w21, #1, 783c <nsh_fileapp+0x884>
    776c:	90000000 	adrp	x0, ebb8 <_srodata>	776c: R_AARCH64_ADR_PREL_PG_HI21	.rodata+0x15be
    7770:	91000000 	add	x0, x0, #0x0	7770: R_AARCH64_ADD_ABS_LO12_NC	.rodata+0x15be
    7774:	910123e2 	add	x2, sp, #0x48
    7778:	b94063e4 	ldr	w4, [sp, #96]
    777c:	f9400001 	ldr	x1, [x0]
    7780:	f90027e1 	str	x1, [sp, #72]
    7784:	b8407000 	ldur	w0, [x0, #7]
    7788:	12140c83 	and	w3, w4, #0xf000
    778c:	b8007040 	stur	w0, [x2, #7]
    7790:	7140187f 	cmp	w3, #0x6, lsl #12
    7794:	54000a21 	b.ne	78d8 <nsh_fileapp+0x920>  // b.any
    7798:	52800c40 	mov	w0, #0x62                  	// #98
    779c:	390123e0 	strb	w0, [sp, #72]
    77a0:	36400064 	tbz	w4, #8, 77ac <nsh_fileapp+0x7f4>
    77a4:	52800e40 	mov	w0, #0x72                  	// #114
    77a8:	390127e0 	strb	w0, [sp, #73]
    77ac:	36380064 	tbz	w4, #7, 77b8 <nsh_fileapp+0x800>
    77b0:	52800ee0 	mov	w0, #0x77                  	// #119
    77b4:	39012be0 	strb	w0, [sp, #74]
    77b8:	f94033e0 	ldr	x0, [sp, #96]
    77bc:	d2810801 	mov	x1, #0x840                 	// #2112
    77c0:	8a010001 	and	x1, x0, x1
    77c4:	f121003f 	cmp	x1, #0x840
    77c8:	54000b01 	b.ne	7928 <nsh_fileapp+0x970>  // b.any
    77cc:	52800e61 	mov	w1, #0x73                  	// #115
    77d0:	39012fe1 	strb	w1, [sp, #75]
    77d4:	36280064 	tbz	w4, #5, 77e0 <nsh_fileapp+0x828>
    77d8:	52800e41 	mov	w1, #0x72                  	// #114
    77dc:	390133e1 	strb	w1, [sp, #76]
    77e0:	36200064 	tbz	w4, #4, 77ec <nsh_fileapp+0x834>
    77e4:	52800ee1 	mov	w1, #0x77                  	// #119
    77e8:	390137e1 	strb	w1, [sp, #77]
    77ec:	d2808101 	mov	x1, #0x408                 	// #1032
    77f0:	8a010000 	and	x0, x0, x1
    77f4:	eb01001f 	cmp	x0, x1
    77f8:	54000a41 	b.ne	7940 <nsh_fileapp+0x988>  // b.any
    77fc:	52800e60 	mov	w0, #0x73                  	// #115
    7800:	39013be0 	strb	w0, [sp, #78]
    7804:	36100064 	tbz	w4, #2, 7810 <nsh_fileapp+0x858>
    7808:	52800e40 	mov	w0, #0x72                  	// #114
    780c:	39013fe0 	strb	w0, [sp, #79]
    7810:	36080064 	tbz	w4, #1, 781c <nsh_fileapp+0x864>
    7814:	52800ee0 	mov	w0, #0x77                  	// #119
    7818:	390143e0 	strb	w0, [sp, #80]
    781c:	36000064 	tbz	w4, #0, 7828 <nsh_fileapp+0x870>
    7820:	52800f00 	mov	w0, #0x78                  	// #120
    7824:	390147e0 	strb	w0, [sp, #81]
    7828:	f9401e63 	ldr	x3, [x19, #56]
    782c:	90000001 	adrp	x1, ebb8 <_srodata>	782c: R_AARCH64_ADR_PREL_PG_HI21	.rodata+0x1593
    7830:	aa1303e0 	mov	x0, x19
    7834:	91000021 	add	x1, x1, #0x0	7834: R_AARCH64_ADD_ABS_LO12_NC	.rodata+0x1593
    7838:	d63f0060 	blr	x3
    783c:	36000255 	tbz	w21, #0, 7884 <nsh_fileapp+0x8cc>
    7840:	f9401e63 	ldr	x3, [x19, #56]
    7844:	b94077e2 	ldr	w2, [sp, #116]
    7848:	36200ab5 	tbz	w21, #4, 799c <nsh_fileapp+0x9e4>
    784c:	710ffc5f 	cmp	w2, #0x3ff
    7850:	54000a69 	b.ls	799c <nsh_fileapp+0x9e4>  // b.plast
    7854:	1e220040 	scvtf	s0, w2
    7858:	12b80000 	mov	w0, #0x3fffffff            	// #1073741823
    785c:	6b00005f 	cmp	w2, w0
    7860:	540007c9 	b.ls	7958 <nsh_fileapp+0x9a0>  // b.plast
    7864:	52a61000 	mov	w0, #0x30800000            	// #813694976
    7868:	1e27001f 	fmov	s31, w0
    786c:	90000001 	adrp	x1, ebb8 <_srodata>	786c: R_AARCH64_ADR_PREL_PG_HI21	.rodata+0x1597
    7870:	91000021 	add	x1, x1, #0x0	7870: R_AARCH64_ADD_ABS_LO12_NC	.rodata+0x1597
    7874:	1e3f0800 	fmul	s0, s0, s31
    7878:	1e22c000 	fcvt	d0, s0
    787c:	aa1303e0 	mov	x0, x19
    7880:	d63f0060 	blr	x3
    7884:	f9401e63 	ldr	x3, [x19, #56]
    7888:	b40009b4 	cbz	x20, 79bc <nsh_fileapp+0xa04>
    788c:	91000696 	add	x22, x20, #0x1
    7890:	aa1303e0 	mov	x0, x19
    7894:	aa1603e2 	mov	x2, x22
    7898:	90000001 	adrp	x1, ebb8 <_srodata>	7898: R_AARCH64_ADR_PREL_PG_HI21	.rodata+0x1593
    789c:	91000021 	add	x1, x1, #0x0	789c: R_AARCH64_ADD_ABS_LO12_NC	.rodata+0x1593
    78a0:	d63f0060 	blr	x3
    78a4:	39400280 	ldrb	w0, [x20]
    78a8:	f9401e75 	ldr	x21, [x19, #56]
    78ac:	7100101f 	cmp	w0, #0x4
    78b0:	54000801 	b.ne	79b0 <nsh_fileapp+0x9f8>  // b.any
    78b4:	aa1603e0 	mov	x0, x22
    78b8:	94000000 	bl	0 <memcpy>	78b8: R_AARCH64_CALL26	.text+0x7228
    78bc:	350007a0 	cbnz	w0, 79b0 <nsh_fileapp+0x9f8>
    78c0:	90000001 	adrp	x1, ebb8 <_srodata>	78c0: R_AARCH64_ADR_PREL_PG_HI21	.rodata+0x15b4
    78c4:	91000021 	add	x1, x1, #0x0	78c4: R_AARCH64_ADD_ABS_LO12_NC	.rodata+0x15b4
    78c8:	aa1303e0 	mov	x0, x19
    78cc:	d63f02a0 	blr	x21
    78d0:	52800000 	mov	w0, #0x0                   	// #0
    78d4:	17ffff9b 	b	7740 <nsh_fileapp+0x788>
    78d8:	7140087f 	cmp	w3, #0x2, lsl #12
    78dc:	54000061 	b.ne	78e8 <nsh_fileapp+0x930>  // b.any
    78e0:	52800c60 	mov	w0, #0x63                  	// #99
    78e4:	17ffffae 	b	779c <nsh_fileapp+0x7e4>
    78e8:	7140107f 	cmp	w3, #0x4, lsl #12
    78ec:	54000061 	b.ne	78f8 <nsh_fileapp+0x940>  // b.any
    78f0:	52800c80 	mov	w0, #0x64                  	// #100
    78f4:	17ffffaa 	b	779c <nsh_fileapp+0x7e4>
    78f8:	71401c7f 	cmp	w3, #0x7, lsl #12
    78fc:	54000061 	b.ne	7908 <nsh_fileapp+0x950>  // b.any
    7900:	52800d00 	mov	w0, #0x68                  	// #104
    7904:	17ffffa6 	b	779c <nsh_fileapp+0x7e4>
    7908:	7140147f 	cmp	w3, #0x5, lsl #12
    790c:	54000061 	b.ne	7918 <nsh_fileapp+0x960>  // b.any
    7910:	52800da0 	mov	w0, #0x6d                  	// #109
    7914:	17ffffa2 	b	779c <nsh_fileapp+0x7e4>
    7918:	7140207f 	cmp	w3, #0x8, lsl #12
    791c:	54fff420 	b.eq	77a0 <nsh_fileapp+0x7e8>  // b.none
    7920:	528007e0 	mov	w0, #0x3f                  	// #63
    7924:	17ffff9e 	b	779c <nsh_fileapp+0x7e4>
    7928:	36580064 	tbz	w4, #11, 7934 <nsh_fileapp+0x97c>
    792c:	52800a61 	mov	w1, #0x53                  	// #83
    7930:	17ffffa8 	b	77d0 <nsh_fileapp+0x818>
    7934:	3637f504 	tbz	w4, #6, 77d4 <nsh_fileapp+0x81c>
    7938:	52800f01 	mov	w1, #0x78                  	// #120
    793c:	17ffffa5 	b	77d0 <nsh_fileapp+0x818>
    7940:	36500064 	tbz	w4, #10, 794c <nsh_fileapp+0x994>
    7944:	52800a60 	mov	w0, #0x53                  	// #83
    7948:	17ffffae 	b	7800 <nsh_fileapp+0x848>
    794c:	361ff5c4 	tbz	w4, #3, 7804 <nsh_fileapp+0x84c>
    7950:	52800f00 	mov	w0, #0x78                  	// #120
    7954:	17ffffab 	b	7800 <nsh_fileapp+0x848>
    7958:	12bffe00 	mov	w0, #0xfffff               	// #1048575
    795c:	6b00005f 	cmp	w2, w0
    7960:	54000109 	b.ls	7980 <nsh_fileapp+0x9c8>  // b.plast
    7964:	52a6b000 	mov	w0, #0x35800000            	// #897581056
    7968:	1e27001f 	fmov	s31, w0
    796c:	90000001 	adrp	x1, ebb8 <_srodata>	796c: R_AARCH64_ADR_PREL_PG_HI21	.rodata+0x159f
    7970:	91000021 	add	x1, x1, #0x0	7970: R_AARCH64_ADD_ABS_LO12_NC	.rodata+0x159f
    7974:	1e3f0800 	fmul	s0, s0, s31
    7978:	1e22c000 	fcvt	d0, s0
    797c:	17ffffc0 	b	787c <nsh_fileapp+0x8c4>
    7980:	52a75000 	mov	w0, #0x3a800000            	// #981467136
    7984:	1e27001f 	fmov	s31, w0
    7988:	90000001 	adrp	x1, ebb8 <_srodata>	7988: R_AARCH64_ADR_PREL_PG_HI21	.rodata+0x15a7
    798c:	91000021 	add	x1, x1, #0x0	798c: R_AARCH64_ADD_ABS_LO12_NC	.rodata+0x15a7
    7990:	1e3f0800 	fmul	s0, s0, s31
    7994:	1e22c000 	fcvt	d0, s0
    7998:	17ffffb9 	b	787c <nsh_fileapp+0x8c4>
    799c:	aa1303e0 	mov	x0, x19
    79a0:	90000001 	adrp	x1, ebb8 <_srodata>	79a0: R_AARCH64_ADR_PREL_PG_HI21	.rodata+0x15af
    79a4:	91000021 	add	x1, x1, #0x0	79a4: R_AARCH64_ADD_ABS_LO12_NC	.rodata+0x15af
    79a8:	d63f0060 	blr	x3
    79ac:	17ffffb6 	b	7884 <nsh_fileapp+0x8cc>
    79b0:	90000001 	adrp	x1, ebb8 <_srodata>	79b0: R_AARCH64_ADR_PREL_PG_HI21	.rodata+0x15b7
    79b4:	91000021 	add	x1, x1, #0x0	79b4: R_AARCH64_ADD_ABS_LO12_NC	.rodata+0x15b7
    79b8:	17ffffc4 	b	78c8 <nsh_fileapp+0x910>
    79bc:	aa1703e2 	mov	x2, x23
    79c0:	aa1303e0 	mov	x0, x19
    79c4:	90000001 	adrp	x1, ebb8 <_srodata>	79c4: R_AARCH64_ADR_PREL_PG_HI21	.rodata+0x15b9
    79c8:	91000021 	add	x1, x1, #0x0	79c8: R_AARCH64_ADD_ABS_LO12_NC	.rodata+0x15b9
    79cc:	d63f0060 	blr	x3
    79d0:	17ffffc0 	b	78d0 <nsh_fileapp+0x918>
    79d4:	a9bb4ffe 	stp	x30, x19, [sp, #-80]!
    79d8:	a90157f4 	stp	x20, x21, [sp, #16]
    79dc:	aa0003f4 	mov	x20, x0
    79e0:	a9025ff6 	stp	x22, x23, [sp, #32]
    79e4:	aa0103f7 	mov	x23, x1
    79e8:	a90367f8 	stp	x24, x25, [sp, #48]
    79ec:	f90023fa 	str	x26, [sp, #64]
    79f0:	94000000 	bl	e930 <lstat>	79f0: R_AARCH64_CALL26	lstat
    79f4:	2a0003f3 	mov	w19, w0
    79f8:	37f80860 	tbnz	w0, #31, 7b04 <nsh_fileapp+0xb4c>
    79fc:	b9400ae0 	ldr	w0, [x23, #8]
    7a00:	12140c00 	and	w0, w0, #0xf000
    7a04:	7140101f 	cmp	w0, #0x4, lsl #12
    7a08:	aa1403e0 	mov	x0, x20
    7a0c:	540000e0 	b.eq	7a28 <nsh_fileapp+0xa70>  // b.none
    7a10:	f94023fa 	ldr	x26, [sp, #64]
    7a14:	a94157f4 	ldp	x20, x21, [sp, #16]
    7a18:	a9425ff6 	ldp	x22, x23, [sp, #32]
    7a1c:	a94367f8 	ldp	x24, x25, [sp, #48]
    7a20:	a8c54ffe 	ldp	x30, x19, [sp], #80
    7a24:	14000000 	b	eb60 <unlink>	7a24: R_AARCH64_JUMP26	unlink
    7a28:	94000000 	bl	ca9c <opendir>	7a28: R_AARCH64_CALL26	opendir
    7a2c:	aa0003f6 	mov	x22, x0
    7a30:	b4000780 	cbz	x0, 7b20 <nsh_fileapp+0xb68>
    7a34:	aa1403e0 	mov	x0, x20
    7a38:	94000000 	bl	940 <strlen>	7a38: R_AARCH64_CALL26	strlen
    7a3c:	aa0003f5 	mov	x21, x0
    7a40:	b40000e0 	cbz	x0, 7a5c <nsh_fileapp+0xaa4>
    7a44:	d1000400 	sub	x0, x0, #0x1
    7a48:	38606a81 	ldrb	w1, [x20, x0]
    7a4c:	7100bc3f 	cmp	w1, #0x2f
    7a50:	54000061 	b.ne	7a5c <nsh_fileapp+0xaa4>  // b.any
    7a54:	aa0003f5 	mov	x21, x0
    7a58:	38206a9f 	strb	wzr, [x20, x0]
    7a5c:	90000018 	adrp	x24, ebb8 <_srodata>	7a5c: R_AARCH64_ADR_PREL_PG_HI21	.rodata+0x1556
    7a60:	90000019 	adrp	x25, ebb8 <_srodata>	7a60: R_AARCH64_ADR_PREL_PG_HI21	.rodata+0x1558
    7a64:	91000318 	add	x24, x24, #0x0	7a64: R_AARCH64_ADD_ABS_LO12_NC	.rodata+0x1556
    7a68:	91000339 	add	x25, x25, #0x0	7a68: R_AARCH64_ADD_ABS_LO12_NC	.rodata+0x1558
    7a6c:	9000001a 	adrp	x26, ebb8 <_srodata>	7a6c: R_AARCH64_ADR_PREL_PG_HI21	.rodata+0x15c9
    7a70:	aa1603e0 	mov	x0, x22
    7a74:	94000000 	bl	cb44 <readdir>	7a74: R_AARCH64_CALL26	readdir
    7a78:	b50001a0 	cbnz	x0, 7aac <nsh_fileapp+0xaf4>
    7a7c:	aa1603e0 	mov	x0, x22
    7a80:	94000000 	bl	cafc <closedir>	7a80: R_AARCH64_CALL26	closedir
    7a84:	2a0003f3 	mov	w19, w0
    7a88:	37f803e0 	tbnz	w0, #31, 7b04 <nsh_fileapp+0xb4c>
    7a8c:	38356a9f 	strb	wzr, [x20, x21]
    7a90:	aa1403e0 	mov	x0, x20
    7a94:	f94023fa 	ldr	x26, [sp, #64]
    7a98:	a94157f4 	ldp	x20, x21, [sp, #16]
    7a9c:	a9425ff6 	ldp	x22, x23, [sp, #32]
    7aa0:	a94367f8 	ldp	x24, x25, [sp, #48]
    7aa4:	a8c54ffe 	ldp	x30, x19, [sp], #80
    7aa8:	14000000 	b	eab4 <rmdir>	7aa8: R_AARCH64_JUMP26	rmdir
    7aac:	91000413 	add	x19, x0, #0x1
    7ab0:	aa1803e1 	mov	x1, x24
    7ab4:	aa1303e0 	mov	x0, x19
    7ab8:	94000000 	bl	680 <strcmp>	7ab8: R_AARCH64_CALL26	strcmp
    7abc:	34fffda0 	cbz	w0, 7a70 <nsh_fileapp+0xab8>
    7ac0:	aa1903e1 	mov	x1, x25
    7ac4:	aa1303e0 	mov	x0, x19
    7ac8:	94000000 	bl	680 <strcmp>	7ac8: R_AARCH64_CALL26	strcmp
    7acc:	34fffd20 	cbz	w0, 7a70 <nsh_fileapp+0xab8>
    7ad0:	aa1303e3 	mov	x3, x19
    7ad4:	91000342 	add	x2, x26, #0x0	7ad4: R_AARCH64_ADD_ABS_LO12_NC	.rodata+0x15c9
    7ad8:	8b150280 	add	x0, x20, x21
    7adc:	d2802001 	mov	x1, #0x100                 	// #256
    7ae0:	cb150021 	sub	x1, x1, x21
    7ae4:	94000000 	bl	d04c <snprintf>	7ae4: R_AARCH64_CALL26	snprintf
    7ae8:	aa1703e1 	mov	x1, x23
    7aec:	aa1403e0 	mov	x0, x20
    7af0:	97ffffb9 	bl	79d4 <nsh_fileapp+0xa1c>
    7af4:	2a0003f3 	mov	w19, w0
    7af8:	36fffbc0 	tbz	w0, #31, 7a70 <nsh_fileapp+0xab8>
    7afc:	aa1603e0 	mov	x0, x22
    7b00:	94000000 	bl	cafc <closedir>	7b00: R_AARCH64_CALL26	closedir
    7b04:	f94023fa 	ldr	x26, [sp, #64]
    7b08:	2a1303e0 	mov	w0, w19
    7b0c:	a94157f4 	ldp	x20, x21, [sp, #16]
    7b10:	a9425ff6 	ldp	x22, x23, [sp, #32]
    7b14:	a94367f8 	ldp	x24, x25, [sp, #48]
    7b18:	a8c54ffe 	ldp	x30, x19, [sp], #80
    7b1c:	d65f03c0 	ret
    7b20:	12800013 	mov	w19, #0xffffffff            	// #-1
    7b24:	17fffff8 	b	7b04 <nsh_fileapp+0xb4c>
    7b28:	a9bd4ffe 	stp	x30, x19, [sp, #-48]!
    7b2c:	a90157f4 	stp	x20, x21, [sp, #16]
    7b30:	aa0003f4 	mov	x20, x0
    7b34:	a9025ff6 	stp	x22, x23, [sp, #32]
    7b38:	39400040 	ldrb	w0, [x2]
    7b3c:	7100101f 	cmp	w0, #0x4
    7b40:	54000581 	b.ne	7bf0 <nsh_fileapp+0xc38>  // b.any
    7b44:	91000453 	add	x19, x2, #0x1
    7b48:	aa0103f5 	mov	x21, x1
    7b4c:	aa0303f7 	mov	x23, x3
    7b50:	aa1303e0 	mov	x0, x19
    7b54:	94000000 	bl	0 <memcpy>	7b54: R_AARCH64_CALL26	.text+0x7228
    7b58:	350004c0 	cbnz	w0, 7bf0 <nsh_fileapp+0xc38>
    7b5c:	aa1303e2 	mov	x2, x19
    7b60:	aa1503e1 	mov	x1, x21
    7b64:	aa1403e0 	mov	x0, x20
    7b68:	94000000 	bl	94c8 <nsh_getdirpath>	7b68: R_AARCH64_CALL26	nsh_getdirpath
    7b6c:	f9401e83 	ldr	x3, [x20, #56]
    7b70:	aa0003e2 	mov	x2, x0
    7b74:	aa0003f5 	mov	x21, x0
    7b78:	90000001 	adrp	x1, ebb8 <_srodata>	7b78: R_AARCH64_ADR_PREL_PG_HI21	.rodata+0x15cd
    7b7c:	aa1403e0 	mov	x0, x20
    7b80:	91000021 	add	x1, x1, #0x0	7b80: R_AARCH64_ADD_ABS_LO12_NC	.rodata+0x15cd
    7b84:	90000016 	adrp	x22, ebb8 <_srodata>	7b84: R_AARCH64_ADR_PREL_PG_HI21	.rodata+0x1590
    7b88:	d63f0060 	blr	x3
    7b8c:	910002d6 	add	x22, x22, #0x0	7b8c: R_AARCH64_ADD_ABS_LO12_NC	.rodata+0x1590
    7b90:	aa1703e4 	mov	x4, x23
    7b94:	aa1503e2 	mov	x2, x21
    7b98:	aa1603e1 	mov	x1, x22
    7b9c:	aa1403e0 	mov	x0, x20
    7ba0:	90000003 	adrp	x3, 0 <memcpy>	7ba0: R_AARCH64_ADR_PREL_PG_HI21	.text+0x76a4
    7ba4:	91000063 	add	x3, x3, #0x0	7ba4: R_AARCH64_ADD_ABS_LO12_NC	.text+0x76a4
    7ba8:	94000000 	bl	9344 <nsh_foreach_direntry>	7ba8: R_AARCH64_CALL26	nsh_foreach_direntry
    7bac:	2a0003f3 	mov	w19, w0
    7bb0:	35000120 	cbnz	w0, 7bd4 <nsh_fileapp+0xc1c>
    7bb4:	aa1703e4 	mov	x4, x23
    7bb8:	aa1503e2 	mov	x2, x21
    7bbc:	aa1603e1 	mov	x1, x22
    7bc0:	aa1403e0 	mov	x0, x20
    7bc4:	90000003 	adrp	x3, 0 <memcpy>	7bc4: R_AARCH64_ADR_PREL_PG_HI21	.text+0x7b28
    7bc8:	91000063 	add	x3, x3, #0x0	7bc8: R_AARCH64_ADD_ABS_LO12_NC	.text+0x7b28
    7bcc:	94000000 	bl	9344 <nsh_foreach_direntry>	7bcc: R_AARCH64_CALL26	nsh_foreach_direntry
    7bd0:	2a0003f3 	mov	w19, w0
    7bd4:	aa1503e0 	mov	x0, x21
    7bd8:	94000000 	bl	b598 <free>	7bd8: R_AARCH64_CALL26	free
    7bdc:	2a1303e0 	mov	w0, w19
    7be0:	a94157f4 	ldp	x20, x21, [sp, #16]
    7be4:	a9425ff6 	ldp	x22, x23, [sp, #32]
    7be8:	a8c34ffe 	ldp	x30, x19, [sp], #48
    7bec:	d65f03c0 	ret
    7bf0:	52800013 	mov	w19, #0x0                   	// #0
    7bf4:	17fffffa 	b	7bdc <nsh_fileapp+0xc24>
    7bf8:	a9bc4ffe 	stp	x30, x19, [sp, #-64]!
    7bfc:	aa0003f3 	mov	x19, x0
    7c00:	a90157f4 	stp	x20, x21, [sp, #16]
    7c04:	f90013f6 	str	x22, [sp, #32]
    7c08:	39400040 	ldrb	w0, [x2]
    7c0c:	7100101f 	cmp	w0, #0x4
    7c10:	54000721 	b.ne	7cf4 <nsh_fileapp+0xd3c>  // b.any
    7c14:	91000454 	add	x20, x2, #0x1
    7c18:	aa1403e2 	mov	x2, x20
    7c1c:	39400040 	ldrb	w0, [x2]
    7c20:	35000620 	cbnz	w0, 7ce4 <nsh_fileapp+0xd2c>
    7c24:	aa0103e2 	mov	x2, x1
    7c28:	aa1403e3 	mov	x3, x20
    7c2c:	9100e3e0 	add	x0, sp, #0x38
    7c30:	90000001 	adrp	x1, ebb8 <_srodata>	7c30: R_AARCH64_ADR_PREL_PG_HI21	.rodata+0x15d2
    7c34:	90000015 	adrp	x21, ebb8 <_srodata>	7c34: R_AARCH64_ADR_PREL_PG_HI21	.rodata+0x15ea
    7c38:	91000021 	add	x1, x1, #0x0	7c38: R_AARCH64_ADD_ABS_LO12_NC	.rodata+0x15d2
    7c3c:	910002b5 	add	x21, x21, #0x0	7c3c: R_AARCH64_ADD_ABS_LO12_NC	.rodata+0x15ea
    7c40:	94000000 	bl	cfe4 <asprintf>	7c40: R_AARCH64_CALL26	asprintf
    7c44:	36f80160 	tbz	w0, #31, 7c70 <nsh_fileapp+0xcb8>
    7c48:	f9401a76 	ldr	x22, [x19, #48]
    7c4c:	94000000 	bl	2454 <__errno>	7c4c: R_AARCH64_CALL26	__errno
    7c50:	b9400004 	ldr	w4, [x0]
    7c54:	90000003 	adrp	x3, ebb8 <_srodata>	7c54: R_AARCH64_ADR_PREL_PG_HI21	.rodata+0x15e1
    7c58:	90000001 	adrp	x1, f03d <g_fmtcmdfailed>	7c58: R_AARCH64_ADR_PREL_PG_HI21	g_fmtcmdfailed
    7c5c:	91000063 	add	x3, x3, #0x0	7c5c: R_AARCH64_ADD_ABS_LO12_NC	.rodata+0x15e1
    7c60:	aa1503e2 	mov	x2, x21
    7c64:	91000021 	add	x1, x1, #0x0	7c64: R_AARCH64_ADD_ABS_LO12_NC	g_fmtcmdfailed
    7c68:	aa1303e0 	mov	x0, x19
    7c6c:	d63f02c0 	blr	x22
    7c70:	f9401e63 	ldr	x3, [x19, #56]
    7c74:	aa1403e2 	mov	x2, x20
    7c78:	aa1303e0 	mov	x0, x19
    7c7c:	90000001 	adrp	x1, ebb8 <_srodata>	7c7c: R_AARCH64_ADR_PREL_PG_HI21	.rodata+0x15f1
    7c80:	91000021 	add	x1, x1, #0x0	7c80: R_AARCH64_ADD_ABS_LO12_NC	.rodata+0x15f1
    7c84:	d63f0060 	blr	x3
    7c88:	f9401fe2 	ldr	x2, [sp, #56]
    7c8c:	aa1503e1 	mov	x1, x21
    7c90:	aa1303e0 	mov	x0, x19
    7c94:	94000000 	bl	8f10 <nsh_catfile>	7c94: R_AARCH64_CALL26	nsh_catfile
    7c98:	2a0003f4 	mov	w20, w0
    7c9c:	36f80160 	tbz	w0, #31, 7cc8 <nsh_fileapp+0xd10>
    7ca0:	f9401a76 	ldr	x22, [x19, #48]
    7ca4:	94000000 	bl	2454 <__errno>	7ca4: R_AARCH64_CALL26	__errno
    7ca8:	b9400004 	ldr	w4, [x0]
    7cac:	90000003 	adrp	x3, ebb8 <_srodata>	7cac: R_AARCH64_ADR_PREL_PG_HI21	.rodata+0x15f9
    7cb0:	90000001 	adrp	x1, f03d <g_fmtcmdfailed>	7cb0: R_AARCH64_ADR_PREL_PG_HI21	g_fmtcmdfailed
    7cb4:	91000063 	add	x3, x3, #0x0	7cb4: R_AARCH64_ADD_ABS_LO12_NC	.rodata+0x15f9
    7cb8:	aa1503e2 	mov	x2, x21
    7cbc:	91000021 	add	x1, x1, #0x0	7cbc: R_AARCH64_ADD_ABS_LO12_NC	g_fmtcmdfailed
    7cc0:	aa1303e0 	mov	x0, x19
    7cc4:	d63f02c0 	blr	x22
    7cc8:	f9401fe0 	ldr	x0, [sp, #56]
    7ccc:	94000000 	bl	b598 <free>	7ccc: R_AARCH64_CALL26	free
    7cd0:	f94013f6 	ldr	x22, [sp, #32]
    7cd4:	2a1403e0 	mov	w0, w20
    7cd8:	a94157f4 	ldp	x20, x21, [sp, #16]
    7cdc:	a8c44ffe 	ldp	x30, x19, [sp], #64
    7ce0:	d65f03c0 	ret
    7ce4:	5100c000 	sub	w0, w0, #0x30
    7ce8:	91000442 	add	x2, x2, #0x1
    7cec:	7100241f 	cmp	w0, #0x9
    7cf0:	54fff969 	b.ls	7c1c <nsh_fileapp+0xc64>  // b.plast
    7cf4:	52800014 	mov	w20, #0x0                   	// #0
    7cf8:	17fffff6 	b	7cd0 <nsh_fileapp+0xd18>

0000000000007cfc <cmd_basename>:
cmd_basename():
    7cfc:	a9bd4ffe 	stp	x30, x19, [sp, #-48]!
    7d00:	aa0203f3 	mov	x19, x2
    7d04:	a90157f4 	stp	x20, x21, [sp, #16]
    7d08:	aa0003f5 	mov	x21, x0
    7d0c:	f90013f6 	str	x22, [sp, #32]
    7d10:	2a0103f6 	mov	w22, w1
    7d14:	f9400440 	ldr	x0, [x2, #8]
    7d18:	94000000 	bl	cb88 <basename>	7d18: R_AARCH64_CALL26	basename
    7d1c:	aa0003f4 	mov	x20, x0
    7d20:	71000adf 	cmp	w22, #0x2
    7d24:	540001ed 	b.le	7d60 <cmd_basename+0x64>
    7d28:	94000000 	bl	940 <strlen>	7d28: R_AARCH64_CALL26	strlen
    7d2c:	f9400a76 	ldr	x22, [x19, #16]
    7d30:	aa0003f3 	mov	x19, x0
    7d34:	aa1603e0 	mov	x0, x22
    7d38:	94000000 	bl	940 <strlen>	7d38: R_AARCH64_CALL26	strlen
    7d3c:	4b000260 	sub	w0, w19, w0
    7d40:	7100001f 	cmp	w0, #0x0
    7d44:	540000ed 	b.le	7d60 <cmd_basename+0x64>
    7d48:	93407c13 	sxtw	x19, w0
    7d4c:	aa1603e1 	mov	x1, x22
    7d50:	8b20c280 	add	x0, x20, w0, sxtw
    7d54:	94000000 	bl	680 <strcmp>	7d54: R_AARCH64_CALL26	strcmp
    7d58:	35000040 	cbnz	w0, 7d60 <cmd_basename+0x64>
    7d5c:	38336a9f 	strb	wzr, [x20, x19]
    7d60:	f9401ea3 	ldr	x3, [x21, #56]
    7d64:	aa1403e2 	mov	x2, x20
    7d68:	aa1503e0 	mov	x0, x21
    7d6c:	90000001 	adrp	x1, ebb8 <_srodata>	7d6c: R_AARCH64_ADR_PREL_PG_HI21	.rodata+0x1606
    7d70:	91000021 	add	x1, x1, #0x0	7d70: R_AARCH64_ADD_ABS_LO12_NC	.rodata+0x1606
    7d74:	d63f0060 	blr	x3
    7d78:	f94013f6 	ldr	x22, [sp, #32]
    7d7c:	52800000 	mov	w0, #0x0                   	// #0
    7d80:	a94157f4 	ldp	x20, x21, [sp, #16]
    7d84:	a8c34ffe 	ldp	x30, x19, [sp], #48
    7d88:	d65f03c0 	ret

0000000000007d8c <cmd_dirname>:
cmd_dirname():
    7d8c:	a9bf4ffe 	stp	x30, x19, [sp, #-16]!
    7d90:	aa0003f3 	mov	x19, x0
    7d94:	f9400440 	ldr	x0, [x2, #8]
    7d98:	94000000 	bl	cbf0 <dirname>	7d98: R_AARCH64_CALL26	dirname
    7d9c:	aa0003e2 	mov	x2, x0
    7da0:	f9401e63 	ldr	x3, [x19, #56]
    7da4:	aa1303e0 	mov	x0, x19
    7da8:	90000001 	adrp	x1, ebb8 <_srodata>	7da8: R_AARCH64_ADR_PREL_PG_HI21	.rodata+0x1606
    7dac:	91000021 	add	x1, x1, #0x0	7dac: R_AARCH64_ADD_ABS_LO12_NC	.rodata+0x1606
    7db0:	d63f0060 	blr	x3
    7db4:	52800000 	mov	w0, #0x0                   	// #0
    7db8:	a8c14ffe 	ldp	x30, x19, [sp], #16
    7dbc:	d65f03c0 	ret

0000000000007dc0 <cmd_cat>:
cmd_cat():
    7dc0:	a9bc4ffe 	stp	x30, x19, [sp, #-64]!
    7dc4:	aa0003f3 	mov	x19, x0
    7dc8:	a9025ff6 	stp	x22, x23, [sp, #32]
    7dcc:	2a0103f6 	mov	w22, w1
    7dd0:	d2800037 	mov	x23, #0x1                   	// #1
    7dd4:	a90367f8 	stp	x24, x25, [sp, #48]
    7dd8:	90000019 	adrp	x25, f025 <g_fmtcmdoutofmemory>	7dd8: R_AARCH64_ADR_PREL_PG_HI21	g_fmtcmdoutofmemory
    7ddc:	aa0203f8 	mov	x24, x2
    7de0:	91000339 	add	x25, x25, #0x0	7de0: R_AARCH64_ADD_ABS_LO12_NC	g_fmtcmdoutofmemory
    7de4:	a90157f4 	stp	x20, x21, [sp, #16]
    7de8:	52800014 	mov	w20, #0x0                   	// #0
    7dec:	7100029f 	cmp	w20, #0x0
    7df0:	7a5702c4 	ccmp	w22, w23, #0x4, eq	// eq = none
    7df4:	5400036c 	b.gt	7e60 <cmd_cat+0xa0>
    7df8:	710006df 	cmp	w22, #0x1
    7dfc:	54000261 	b.ne	7e48 <cmd_cat+0x88>  // b.any
    7e00:	d2800800 	mov	x0, #0x40                  	// #64
    7e04:	94000000 	bl	b5a8 <malloc>	7e04: R_AARCH64_CALL26	malloc
    7e08:	aa0003f5 	mov	x21, x0
    7e0c:	f9401263 	ldr	x3, [x19, #32]
    7e10:	aa1503e1 	mov	x1, x21
    7e14:	aa1303e0 	mov	x0, x19
    7e18:	d2800802 	mov	x2, #0x40                  	// #64
    7e1c:	d63f0060 	blr	x3
    7e20:	2a0003f4 	mov	w20, w0
    7e24:	7100001f 	cmp	w0, #0x0
    7e28:	340000c0 	cbz	w0, 7e40 <cmd_cat+0x80>
    7e2c:	5400044a 	b.ge	7eb4 <cmd_cat+0xf4>  // b.tcont
    7e30:	94000000 	bl	2454 <__errno>	7e30: R_AARCH64_CALL26	__errno
    7e34:	b9400000 	ldr	w0, [x0]
    7e38:	7100101f 	cmp	w0, #0x4
    7e3c:	54fffe80 	b.eq	7e0c <cmd_cat+0x4c>  // b.none
    7e40:	aa1503e0 	mov	x0, x21
    7e44:	94000000 	bl	b598 <free>	7e44: R_AARCH64_CALL26	free
    7e48:	2a1403e0 	mov	w0, w20
    7e4c:	a94157f4 	ldp	x20, x21, [sp, #16]
    7e50:	a9425ff6 	ldp	x22, x23, [sp, #32]
    7e54:	a94367f8 	ldp	x24, x25, [sp, #48]
    7e58:	a8c44ffe 	ldp	x30, x19, [sp], #64
    7e5c:	d65f03c0 	ret
    7e60:	f8777b01 	ldr	x1, [x24, x23, lsl #3]
    7e64:	aa1303e0 	mov	x0, x19
    7e68:	94000000 	bl	68fc <nsh_getfullpath>	7e68: R_AARCH64_CALL26	nsh_getfullpath
    7e6c:	aa0003f5 	mov	x21, x0
    7e70:	f9400301 	ldr	x1, [x24]
    7e74:	b5000120 	cbnz	x0, 7e98 <cmd_cat+0xd8>
    7e78:	f9401a63 	ldr	x3, [x19, #48]
    7e7c:	aa0103e2 	mov	x2, x1
    7e80:	aa1303e0 	mov	x0, x19
    7e84:	aa1903e1 	mov	x1, x25
    7e88:	12800014 	mov	w20, #0xffffffff            	// #-1
    7e8c:	d63f0060 	blr	x3
    7e90:	910006f7 	add	x23, x23, #0x1
    7e94:	17ffffd6 	b	7dec <cmd_cat+0x2c>
    7e98:	aa0003e2 	mov	x2, x0
    7e9c:	aa1303e0 	mov	x0, x19
    7ea0:	94000000 	bl	8f10 <nsh_catfile>	7ea0: R_AARCH64_CALL26	nsh_catfile
    7ea4:	2a0003f4 	mov	w20, w0
    7ea8:	aa1503e0 	mov	x0, x21
    7eac:	94000000 	bl	698c <nsh_freefullpath>	7eac: R_AARCH64_CALL26	nsh_freefullpath
    7eb0:	17fffff8 	b	7e90 <cmd_cat+0xd0>
    7eb4:	f9400e63 	ldr	x3, [x19, #24]
    7eb8:	93407c02 	sxtw	x2, w0
    7ebc:	aa1503e1 	mov	x1, x21
    7ec0:	aa1303e0 	mov	x0, x19
    7ec4:	d63f0060 	blr	x3
    7ec8:	17ffffd1 	b	7e0c <cmd_cat+0x4c>

0000000000007ecc <cmd_dmesg>:
cmd_dmesg():
    7ecc:	a9bd4ffe 	stp	x30, x19, [sp, #-48]!
    7ed0:	aa0003f3 	mov	x19, x0
    7ed4:	a90157f4 	stp	x20, x21, [sp, #16]
    7ed8:	aa0203f5 	mov	x21, x2
    7edc:	a9025ff6 	stp	x22, x23, [sp, #32]
    7ee0:	7100043f 	cmp	w1, #0x1
    7ee4:	5400076d 	b.le	7fd0 <cmd_dmesg+0x104>
    7ee8:	2a0103e0 	mov	w0, w1
    7eec:	90000002 	adrp	x2, ebb8 <_srodata>	7eec: R_AARCH64_ADR_PREL_PG_HI21	.rodata+0x160a
    7ef0:	aa1503e1 	mov	x1, x21
    7ef4:	91000042 	add	x2, x2, #0x0	7ef4: R_AARCH64_ADD_ABS_LO12_NC	.rodata+0x160a
    7ef8:	94000000 	bl	e0bc <getopt>	7ef8: R_AARCH64_CALL26	getopt
    7efc:	3100041f 	cmn	w0, #0x1
    7f00:	54000680 	b.eq	7fd0 <cmd_dmesg+0x104>  // b.none
    7f04:	71010c1f 	cmp	w0, #0x43
    7f08:	54000100 	b.eq	7f28 <cmd_dmesg+0x5c>  // b.none
    7f0c:	71018c1f 	cmp	w0, #0x63
    7f10:	54000701 	b.ne	7ff0 <cmd_dmesg+0x124>  // b.any
    7f14:	f94002a1 	ldr	x1, [x21]
    7f18:	90000002 	adrp	x2, ebb8 <_srodata>	7f18: R_AARCH64_ADR_PREL_PG_HI21	.rodata+0x160e
    7f1c:	aa1303e0 	mov	x0, x19
    7f20:	91000042 	add	x2, x2, #0x0	7f20: R_AARCH64_ADD_ABS_LO12_NC	.rodata+0x160e
    7f24:	94000000 	bl	8f10 <nsh_catfile>	7f24: R_AARCH64_CALL26	nsh_catfile
    7f28:	52800021 	mov	w1, #0x1                   	// #1
    7f2c:	90000000 	adrp	x0, ebb8 <_srodata>	7f2c: R_AARCH64_ADR_PREL_PG_HI21	.rodata+0x160e
    7f30:	91000000 	add	x0, x0, #0x0	7f30: R_AARCH64_ADD_ABS_LO12_NC	.rodata+0x160e
    7f34:	94000000 	bl	e9c0 <open>	7f34: R_AARCH64_CALL26	open
    7f38:	2a0003f4 	mov	w20, w0
    7f3c:	36f80220 	tbz	w0, #31, 7f80 <cmd_dmesg+0xb4>
    7f40:	f94002b5 	ldr	x21, [x21]
    7f44:	f9401a76 	ldr	x22, [x19, #48]
    7f48:	94000000 	bl	2454 <__errno>	7f48: R_AARCH64_CALL26	__errno
    7f4c:	b9400004 	ldr	w4, [x0]
    7f50:	90000003 	adrp	x3, ebb8 <_srodata>	7f50: R_AARCH64_ADR_PREL_PG_HI21	.rodata+0x1619
    7f54:	90000001 	adrp	x1, f03d <g_fmtcmdfailed>	7f54: R_AARCH64_ADR_PREL_PG_HI21	g_fmtcmdfailed
    7f58:	91000063 	add	x3, x3, #0x0	7f58: R_AARCH64_ADD_ABS_LO12_NC	.rodata+0x1619
    7f5c:	aa1503e2 	mov	x2, x21
    7f60:	91000021 	add	x1, x1, #0x0	7f60: R_AARCH64_ADD_ABS_LO12_NC	g_fmtcmdfailed
    7f64:	aa1303e0 	mov	x0, x19
    7f68:	d63f02c0 	blr	x22
    7f6c:	2a1403e0 	mov	w0, w20
    7f70:	a94157f4 	ldp	x20, x21, [sp, #16]
    7f74:	a9425ff6 	ldp	x22, x23, [sp, #32]
    7f78:	a8c34ffe 	ldp	x30, x19, [sp], #48
    7f7c:	d65f03c0 	ret
    7f80:	52800002 	mov	w2, #0x0                   	// #0
    7f84:	5280a1a1 	mov	w1, #0x50d                 	// #1293
    7f88:	94000000 	bl	e8ac <ioctl>	7f88: R_AARCH64_CALL26	ioctl
    7f8c:	2a0003f6 	mov	w22, w0
    7f90:	36f80180 	tbz	w0, #31, 7fc0 <cmd_dmesg+0xf4>
    7f94:	f94002b5 	ldr	x21, [x21]
    7f98:	f9401a77 	ldr	x23, [x19, #48]
    7f9c:	94000000 	bl	2454 <__errno>	7f9c: R_AARCH64_CALL26	__errno
    7fa0:	b9400004 	ldr	w4, [x0]
    7fa4:	90000003 	adrp	x3, ebb8 <_srodata>	7fa4: R_AARCH64_ADR_PREL_PG_HI21	.rodata+0x161e
    7fa8:	90000001 	adrp	x1, f03d <g_fmtcmdfailed>	7fa8: R_AARCH64_ADR_PREL_PG_HI21	g_fmtcmdfailed
    7fac:	91000063 	add	x3, x3, #0x0	7fac: R_AARCH64_ADD_ABS_LO12_NC	.rodata+0x161e
    7fb0:	aa1503e2 	mov	x2, x21
    7fb4:	91000021 	add	x1, x1, #0x0	7fb4: R_AARCH64_ADD_ABS_LO12_NC	g_fmtcmdfailed
    7fb8:	aa1303e0 	mov	x0, x19
    7fbc:	d63f02e0 	blr	x23
    7fc0:	2a1403e0 	mov	w0, w20
    7fc4:	2a1603f4 	mov	w20, w22
    7fc8:	94000000 	bl	e814 <close>	7fc8: R_AARCH64_CALL26	close
    7fcc:	17ffffe8 	b	7f6c <cmd_dmesg+0xa0>
    7fd0:	f94002a1 	ldr	x1, [x21]
    7fd4:	aa1303e0 	mov	x0, x19
    7fd8:	a9425ff6 	ldp	x22, x23, [sp, #32]
    7fdc:	90000002 	adrp	x2, ebb8 <_srodata>	7fdc: R_AARCH64_ADR_PREL_PG_HI21	.rodata+0x160e
    7fe0:	a94157f4 	ldp	x20, x21, [sp, #16]
    7fe4:	91000042 	add	x2, x2, #0x0	7fe4: R_AARCH64_ADD_ABS_LO12_NC	.rodata+0x160e
    7fe8:	a8c34ffe 	ldp	x30, x19, [sp], #48
    7fec:	14000000 	b	8f10 <nsh_catfile>	7fec: R_AARCH64_JUMP26	nsh_catfile
    7ff0:	12800014 	mov	w20, #0xffffffff            	// #-1
    7ff4:	17ffffde 	b	7f6c <cmd_dmesg+0xa0>

0000000000007ff8 <cmd_cp>:
cmd_cp():
    7ff8:	a9bc4ffe 	stp	x30, x19, [sp, #-64]!
    7ffc:	aa0003f3 	mov	x19, x0
    8000:	a90157f4 	stp	x20, x21, [sp, #16]
    8004:	aa0203f5 	mov	x21, x2
    8008:	a9025ff6 	stp	x22, x23, [sp, #32]
    800c:	90000017 	adrp	x23, ebb8 <_srodata>	800c: R_AARCH64_ADR_PREL_PG_HI21	.rodata+0x1624
    8010:	2a0103f6 	mov	w22, w1
    8014:	910002f7 	add	x23, x23, #0x0	8014: R_AARCH64_ADD_ABS_LO12_NC	.rodata+0x1624
    8018:	f9001bf8 	str	x24, [sp, #48]
    801c:	52800018 	mov	w24, #0x0                   	// #0
    8020:	aa1703e2 	mov	x2, x23
    8024:	aa1503e1 	mov	x1, x21
    8028:	2a1603e0 	mov	w0, w22
    802c:	94000000 	bl	e0bc <getopt>	802c: R_AARCH64_CALL26	getopt
    8030:	2a0003f4 	mov	w20, w0
    8034:	3100041f 	cmn	w0, #0x1
    8038:	54000281 	b.ne	8088 <cmd_cp+0x90>  // b.any
    803c:	94000000 	bl	e0dc <getoptindp>	803c: R_AARCH64_CALL26	getoptindp
    8040:	b9800000 	ldrsw	x0, [x0]
    8044:	f8607aa1 	ldr	x1, [x21, x0, lsl #3]
    8048:	aa1303e0 	mov	x0, x19
    804c:	94000000 	bl	68fc <nsh_getfullpath>	804c: R_AARCH64_CALL26	nsh_getfullpath
    8050:	aa0003f6 	mov	x22, x0
    8054:	b5000220 	cbnz	x0, 8098 <cmd_cp+0xa0>
    8058:	f94002a2 	ldr	x2, [x21]
    805c:	90000001 	adrp	x1, f025 <g_fmtcmdoutofmemory>	805c: R_AARCH64_ADR_PREL_PG_HI21	g_fmtcmdoutofmemory
    8060:	f9401a63 	ldr	x3, [x19, #48]
    8064:	91000021 	add	x1, x1, #0x0	8064: R_AARCH64_ADD_ABS_LO12_NC	g_fmtcmdoutofmemory
    8068:	aa1303e0 	mov	x0, x19
    806c:	d63f0060 	blr	x3
    8070:	f9401bf8 	ldr	x24, [sp, #48]
    8074:	2a1403e0 	mov	w0, w20
    8078:	a94157f4 	ldp	x20, x21, [sp, #16]
    807c:	a9425ff6 	ldp	x22, x23, [sp, #32]
    8080:	a8c44ffe 	ldp	x30, x19, [sp], #64
    8084:	d65f03c0 	ret
    8088:	7101ca9f 	cmp	w20, #0x72
    808c:	7a401b00 	ccmp	w24, #0x0, #0x0, ne	// ne = any
    8090:	1a9f07f8 	cset	w24, ne	// ne = any
    8094:	17ffffe3 	b	8020 <cmd_cp+0x28>
    8098:	94000000 	bl	e0dc <getoptindp>	8098: R_AARCH64_CALL26	getoptindp
    809c:	b9800000 	ldrsw	x0, [x0]
    80a0:	91000400 	add	x0, x0, #0x1
    80a4:	f8607aa1 	ldr	x1, [x21, x0, lsl #3]
    80a8:	aa1303e0 	mov	x0, x19
    80ac:	94000000 	bl	68fc <nsh_getfullpath>	80ac: R_AARCH64_CALL26	nsh_getfullpath
    80b0:	aa0003f7 	mov	x23, x0
    80b4:	b5000140 	cbnz	x0, 80dc <cmd_cp+0xe4>
    80b8:	f94002a2 	ldr	x2, [x21]
    80bc:	90000001 	adrp	x1, f025 <g_fmtcmdoutofmemory>	80bc: R_AARCH64_ADR_PREL_PG_HI21	g_fmtcmdoutofmemory
    80c0:	f9401a63 	ldr	x3, [x19, #48]
    80c4:	91000021 	add	x1, x1, #0x0	80c4: R_AARCH64_ADD_ABS_LO12_NC	g_fmtcmdoutofmemory
    80c8:	aa1303e0 	mov	x0, x19
    80cc:	d63f0060 	blr	x3
    80d0:	aa1603e0 	mov	x0, x22
    80d4:	94000000 	bl	698c <nsh_freefullpath>	80d4: R_AARCH64_CALL26	nsh_freefullpath
    80d8:	17ffffe6 	b	8070 <cmd_cp+0x78>
    80dc:	aa1603e1 	mov	x1, x22
    80e0:	94000000 	bl	680 <strcmp>	80e0: R_AARCH64_CALL26	strcmp
    80e4:	35000140 	cbnz	w0, 810c <cmd_cp+0x114>
    80e8:	f94002a2 	ldr	x2, [x21]
    80ec:	90000001 	adrp	x1, f15e <g_fmtsyntax>	80ec: R_AARCH64_ADR_PREL_PG_HI21	g_fmtsyntax
    80f0:	f9401a63 	ldr	x3, [x19, #48]
    80f4:	91000021 	add	x1, x1, #0x0	80f4: R_AARCH64_ADD_ABS_LO12_NC	g_fmtsyntax
    80f8:	aa1303e0 	mov	x0, x19
    80fc:	d63f0060 	blr	x3
    8100:	aa1703e0 	mov	x0, x23
    8104:	94000000 	bl	698c <nsh_freefullpath>	8104: R_AARCH64_CALL26	nsh_freefullpath
    8108:	17fffff2 	b	80d0 <cmd_cp+0xd8>
    810c:	aa1703e2 	mov	x2, x23
    8110:	aa1603e1 	mov	x1, x22
    8114:	aa1303e0 	mov	x0, x19
    8118:	34000098 	cbz	w24, 8128 <cmd_cp+0x130>
    811c:	94000000 	bl	0 <memcpy>	811c: R_AARCH64_CALL26	.text+0x74b0
    8120:	2a0003f4 	mov	w20, w0
    8124:	17fffff7 	b	8100 <cmd_cp+0x108>
    8128:	94000000 	bl	0 <memcpy>	8128: R_AARCH64_CALL26	.text+0x7268
    812c:	17fffffd 	b	8120 <cmd_cp+0x128>

0000000000008130 <cmd_ls>:
cmd_ls():
    8130:	a9b54ffe 	stp	x30, x19, [sp, #-176]!
    8134:	a90157f4 	stp	x20, x21, [sp, #16]
    8138:	aa0003f4 	mov	x20, x0
    813c:	2a0103f5 	mov	w21, w1
    8140:	a9025ff6 	stp	x22, x23, [sp, #32]
    8144:	aa0203f7 	mov	x23, x2
    8148:	52800016 	mov	w22, #0x0                   	// #0
    814c:	a90367f8 	stp	x24, x25, [sp, #48]
    8150:	90000018 	adrp	x24, ebb8 <_srodata>	8150: R_AARCH64_ADR_PREL_PG_HI21	.rodata+0x1626
    8154:	90000019 	adrp	x25, f103 <g_fmtarginvalid>	8154: R_AARCH64_ADR_PREL_PG_HI21	g_fmtarginvalid
    8158:	91000318 	add	x24, x24, #0x0	8158: R_AARCH64_ADD_ABS_LO12_NC	.rodata+0x1626
    815c:	91000339 	add	x25, x25, #0x0	815c: R_AARCH64_ADD_ABS_LO12_NC	g_fmtarginvalid
    8160:	a9046ffa 	stp	x26, x27, [sp, #64]
    8164:	5280001a 	mov	w26, #0x0                   	// #0
    8168:	5280017b 	mov	w27, #0xb                   	// #11
    816c:	aa1803e2 	mov	x2, x24
    8170:	aa1703e1 	mov	x1, x23
    8174:	2a1503e0 	mov	w0, w21
    8178:	94000000 	bl	e0bc <getopt>	8178: R_AARCH64_CALL26	getopt
    817c:	2a0003f3 	mov	w19, w0
    8180:	3100041f 	cmn	w0, #0x1
    8184:	54000281 	b.ne	81d4 <cmd_ls+0xa4>  // b.any
    8188:	3500019a 	cbnz	w26, 81b8 <cmd_ls+0x88>
    818c:	94000000 	bl	e0dc <getoptindp>	818c: R_AARCH64_CALL26	getoptindp
    8190:	b9400000 	ldr	w0, [x0]
    8194:	11000400 	add	w0, w0, #0x1
    8198:	6b15001f 	cmp	w0, w21
    819c:	540004ca 	b.ge	8234 <cmd_ls+0x104>  // b.tcont
    81a0:	f94002e2 	ldr	x2, [x23]
    81a4:	90000001 	adrp	x1, f094 <g_fmttoomanyargs>	81a4: R_AARCH64_ADR_PREL_PG_HI21	g_fmttoomanyargs
    81a8:	f9401a83 	ldr	x3, [x20, #48]
    81ac:	91000021 	add	x1, x1, #0x0	81ac: R_AARCH64_ADD_ABS_LO12_NC	g_fmttoomanyargs
    81b0:	aa1403e0 	mov	x0, x20
    81b4:	d63f0060 	blr	x3
    81b8:	a94157f4 	ldp	x20, x21, [sp, #16]
    81bc:	2a1303e0 	mov	w0, w19
    81c0:	a9425ff6 	ldp	x22, x23, [sp, #32]
    81c4:	a94367f8 	ldp	x24, x25, [sp, #48]
    81c8:	a9446ffa 	ldp	x26, x27, [sp, #64]
    81cc:	a8cb4ffe 	ldp	x30, x19, [sp], #176
    81d0:	d65f03c0 	ret
    81d4:	7101b27f 	cmp	w19, #0x6c
    81d8:	54000220 	b.eq	821c <cmd_ls+0xec>  // b.none
    81dc:	5400018c 	b.gt	820c <cmd_ls+0xdc>
    81e0:	71014a7f 	cmp	w19, #0x52
    81e4:	54000200 	b.eq	8224 <cmd_ls+0xf4>  // b.none
    81e8:	7101a27f 	cmp	w19, #0x68
    81ec:	54000200 	b.eq	822c <cmd_ls+0xfc>  // b.none
    81f0:	f94002e2 	ldr	x2, [x23]
    81f4:	aa1903e1 	mov	x1, x25
    81f8:	f9401a83 	ldr	x3, [x20, #48]
    81fc:	aa1403e0 	mov	x0, x20
    8200:	5280003a 	mov	w26, #0x1                   	// #1
    8204:	d63f0060 	blr	x3
    8208:	17ffffd9 	b	816c <cmd_ls+0x3c>
    820c:	7101ce7f 	cmp	w19, #0x73
    8210:	54ffff01 	b.ne	81f0 <cmd_ls+0xc0>  // b.any
    8214:	320002d6 	orr	w22, w22, #0x1
    8218:	17ffffd5 	b	816c <cmd_ls+0x3c>
    821c:	2a1b02d6 	orr	w22, w22, w27
    8220:	17ffffd3 	b	816c <cmd_ls+0x3c>
    8224:	321e02d6 	orr	w22, w22, #0x4
    8228:	17ffffd1 	b	816c <cmd_ls+0x3c>
    822c:	321c02d6 	orr	w22, w22, #0x10
    8230:	17ffffcf 	b	816c <cmd_ls+0x3c>
    8234:	94000000 	bl	e0dc <getoptindp>	8234: R_AARCH64_CALL26	getoptindp
    8238:	b9400000 	ldr	w0, [x0]
    823c:	6b15001f 	cmp	w0, w21
    8240:	540001ab 	b.lt	8274 <cmd_ls+0x144>  // b.tstop
    8244:	aa1403e0 	mov	x0, x20
    8248:	94000000 	bl	68f0 <nsh_getcwd>	8248: R_AARCH64_CALL26	nsh_getcwd
    824c:	aa0003e1 	mov	x1, x0
    8250:	aa1403e0 	mov	x0, x20
    8254:	94000000 	bl	68fc <nsh_getfullpath>	8254: R_AARCH64_CALL26	nsh_getfullpath
    8258:	aa0003f5 	mov	x21, x0
    825c:	b5000140 	cbnz	x0, 8284 <cmd_ls+0x154>
    8260:	f94002e2 	ldr	x2, [x23]
    8264:	90000001 	adrp	x1, f025 <g_fmtcmdoutofmemory>	8264: R_AARCH64_ADR_PREL_PG_HI21	g_fmtcmdoutofmemory
    8268:	f9401a83 	ldr	x3, [x20, #48]
    826c:	91000021 	add	x1, x1, #0x0	826c: R_AARCH64_ADD_ABS_LO12_NC	g_fmtcmdoutofmemory
    8270:	17ffffd0 	b	81b0 <cmd_ls+0x80>
    8274:	94000000 	bl	e0dc <getoptindp>	8274: R_AARCH64_CALL26	getoptindp
    8278:	b9800000 	ldrsw	x0, [x0]
    827c:	f8607ae1 	ldr	x1, [x23, x0, lsl #3]
    8280:	17fffff4 	b	8250 <cmd_ls+0x120>
    8284:	94000000 	bl	940 <strlen>	8284: R_AARCH64_CALL26	strlen
    8288:	51000400 	sub	w0, w0, #0x1
    828c:	93407c00 	sxtw	x0, w0
    8290:	7100001f 	cmp	w0, #0x0
    8294:	5400008d 	b.le	82a4 <cmd_ls+0x174>
    8298:	38606aa1 	ldrb	w1, [x21, x0]
    829c:	7100bc3f 	cmp	w1, #0x2f
    82a0:	54000260 	b.eq	82ec <cmd_ls+0x1bc>  // b.none
    82a4:	910163e1 	add	x1, sp, #0x58
    82a8:	aa1503e0 	mov	x0, x21
    82ac:	94000000 	bl	eb08 <stat>	82ac: R_AARCH64_CALL26	stat
    82b0:	36f80240 	tbz	w0, #31, 82f8 <cmd_ls+0x1c8>
    82b4:	f94002f7 	ldr	x23, [x23]
    82b8:	f9401a96 	ldr	x22, [x20, #48]
    82bc:	94000000 	bl	2454 <__errno>	82bc: R_AARCH64_CALL26	__errno
    82c0:	b9400004 	ldr	w4, [x0]
    82c4:	90000003 	adrp	x3, ebb8 <_srodata>	82c4: R_AARCH64_ADR_PREL_PG_HI21	.rodata+0x1585
    82c8:	90000001 	adrp	x1, f03d <g_fmtcmdfailed>	82c8: R_AARCH64_ADR_PREL_PG_HI21	g_fmtcmdfailed
    82cc:	91000063 	add	x3, x3, #0x0	82cc: R_AARCH64_ADD_ABS_LO12_NC	.rodata+0x1585
    82d0:	aa1703e2 	mov	x2, x23
    82d4:	91000021 	add	x1, x1, #0x0	82d4: R_AARCH64_ADD_ABS_LO12_NC	g_fmtcmdfailed
    82d8:	aa1403e0 	mov	x0, x20
    82dc:	d63f02c0 	blr	x22
    82e0:	aa1503e0 	mov	x0, x21
    82e4:	94000000 	bl	698c <nsh_freefullpath>	82e4: R_AARCH64_CALL26	nsh_freefullpath
    82e8:	17ffffb4 	b	81b8 <cmd_ls+0x88>
    82ec:	38206abf 	strb	wzr, [x21, x0]
    82f0:	d1000400 	sub	x0, x0, #0x1
    82f4:	17ffffe7 	b	8290 <cmd_ls+0x160>
    82f8:	b94063e0 	ldr	w0, [sp, #96]
    82fc:	2a1603f8 	mov	w24, w22
    8300:	12140c00 	and	w0, w0, #0xf000
    8304:	7140101f 	cmp	w0, #0x4, lsl #12
    8308:	54000100 	b.eq	8328 <cmd_ls+0x1f8>  // b.none
    830c:	aa1803e3 	mov	x3, x24
    8310:	aa1503e1 	mov	x1, x21
    8314:	aa1403e0 	mov	x0, x20
    8318:	d2800002 	mov	x2, #0x0                   	// #0
    831c:	94000000 	bl	0 <memcpy>	831c: R_AARCH64_CALL26	.text+0x76a4
    8320:	2a0003f3 	mov	w19, w0
    8324:	17ffffef 	b	82e0 <cmd_ls+0x1b0>
    8328:	f9401e83 	ldr	x3, [x20, #56]
    832c:	aa1503e2 	mov	x2, x21
    8330:	aa1403e0 	mov	x0, x20
    8334:	90000001 	adrp	x1, ebb8 <_srodata>	8334: R_AARCH64_ADR_PREL_PG_HI21	.rodata+0x15cd
    8338:	90000017 	adrp	x23, ebb8 <_srodata>	8338: R_AARCH64_ADR_PREL_PG_HI21	.rodata+0x1590
    833c:	91000021 	add	x1, x1, #0x0	833c: R_AARCH64_ADD_ABS_LO12_NC	.rodata+0x15cd
    8340:	910002f7 	add	x23, x23, #0x0	8340: R_AARCH64_ADD_ABS_LO12_NC	.rodata+0x1590
    8344:	d63f0060 	blr	x3
    8348:	aa1803e4 	mov	x4, x24
    834c:	aa1503e2 	mov	x2, x21
    8350:	aa1703e1 	mov	x1, x23
    8354:	aa1403e0 	mov	x0, x20
    8358:	90000003 	adrp	x3, 0 <memcpy>	8358: R_AARCH64_ADR_PREL_PG_HI21	.text+0x76a4
    835c:	91000063 	add	x3, x3, #0x0	835c: R_AARCH64_ADD_ABS_LO12_NC	.text+0x76a4
    8360:	94000000 	bl	9344 <nsh_foreach_direntry>	8360: R_AARCH64_CALL26	nsh_foreach_direntry
    8364:	2a0003f3 	mov	w19, w0
    8368:	35fffbc0 	cbnz	w0, 82e0 <cmd_ls+0x1b0>
    836c:	3617fbb6 	tbz	w22, #2, 82e0 <cmd_ls+0x1b0>
    8370:	aa1803e4 	mov	x4, x24
    8374:	aa1503e2 	mov	x2, x21
    8378:	aa1703e1 	mov	x1, x23
    837c:	aa1403e0 	mov	x0, x20
    8380:	90000003 	adrp	x3, 0 <memcpy>	8380: R_AARCH64_ADR_PREL_PG_HI21	.text+0x7b28
    8384:	91000063 	add	x3, x3, #0x0	8384: R_AARCH64_ADD_ABS_LO12_NC	.text+0x7b28
    8388:	94000000 	bl	9344 <nsh_foreach_direntry>	8388: R_AARCH64_CALL26	nsh_foreach_direntry
    838c:	17ffffe5 	b	8320 <cmd_ls+0x1f0>

0000000000008390 <cmd_mkdir>:
cmd_mkdir():
    8390:	a9bc4ffe 	stp	x30, x19, [sp, #-64]!
    8394:	aa0203f3 	mov	x19, x2
    8398:	a90157f4 	stp	x20, x21, [sp, #16]
    839c:	2a0103f5 	mov	w21, w1
    83a0:	a9025ff6 	stp	x22, x23, [sp, #32]
    83a4:	aa0003f7 	mov	x23, x0
    83a8:	52800016 	mov	w22, #0x0                   	// #0
    83ac:	f9001bf8 	str	x24, [sp, #48]
    83b0:	90000018 	adrp	x24, ebb8 <_srodata>	83b0: R_AARCH64_ADR_PREL_PG_HI21	.rodata+0x162c
    83b4:	91000318 	add	x24, x24, #0x0	83b4: R_AARCH64_ADD_ABS_LO12_NC	.rodata+0x162c
    83b8:	aa1803e2 	mov	x2, x24
    83bc:	aa1303e1 	mov	x1, x19
    83c0:	2a1503e0 	mov	w0, w21
    83c4:	94000000 	bl	e0bc <getopt>	83c4: R_AARCH64_CALL26	getopt
    83c8:	2a0003f4 	mov	w20, w0
    83cc:	3100041f 	cmn	w0, #0x1
    83d0:	54000641 	b.ne	8498 <cmd_mkdir+0x108>  // b.any
    83d4:	94000000 	bl	e0dc <getoptindp>	83d4: R_AARCH64_CALL26	getoptindp
    83d8:	b9400000 	ldr	w0, [x0]
    83dc:	6b15001f 	cmp	w0, w21
    83e0:	5400050a 	b.ge	8480 <cmd_mkdir+0xf0>  // b.tcont
    83e4:	94000000 	bl	e0dc <getoptindp>	83e4: R_AARCH64_CALL26	getoptindp
    83e8:	b9800000 	ldrsw	x0, [x0]
    83ec:	f8607a61 	ldr	x1, [x19, x0, lsl #3]
    83f0:	aa1703e0 	mov	x0, x23
    83f4:	94000000 	bl	68fc <nsh_getfullpath>	83f4: R_AARCH64_CALL26	nsh_getfullpath
    83f8:	aa0003f5 	mov	x21, x0
    83fc:	b4000420 	cbz	x0, 8480 <cmd_mkdir+0xf0>
    8400:	720002d6 	ands	w22, w22, #0x1
    8404:	90000013 	adrp	x19, ebb8 <_srodata>	8404: R_AARCH64_ADR_PREL_PG_HI21	.rodata+0x162b
    8408:	91000273 	add	x19, x19, #0x0	8408: R_AARCH64_ADD_ABS_LO12_NC	.rodata+0x162b
    840c:	528005f8 	mov	w24, #0x2f                  	// #47
    8410:	9a800260 	csel	x0, x19, x0, eq	// eq = none
    8414:	528005e1 	mov	w1, #0x2f                  	// #47
    8418:	94000000 	bl	59c <strchr>	8418: R_AARCH64_CALL26	strchr
    841c:	aa0003f3 	mov	x19, x0
    8420:	b4000040 	cbz	x0, 8428 <cmd_mkdir+0x98>
    8424:	3900001f 	strb	wzr, [x0]
    8428:	aa1503e0 	mov	x0, x21
    842c:	52803fe1 	mov	w1, #0x1ff                 	// #511
    8430:	94000000 	bl	e950 <mkdir>	8430: R_AARCH64_CALL26	mkdir
    8434:	2a0003f4 	mov	w20, w0
    8438:	36f80380 	tbz	w0, #31, 84a8 <cmd_mkdir+0x118>
    843c:	94000000 	bl	2454 <__errno>	843c: R_AARCH64_CALL26	__errno
    8440:	b9400000 	ldr	w0, [x0]
    8444:	7100441f 	cmp	w0, #0x11
    8448:	54000041 	b.ne	8450 <cmd_mkdir+0xc0>  // b.any
    844c:	350002f6 	cbnz	w22, 84a8 <cmd_mkdir+0x118>
    8450:	f9401af3 	ldr	x19, [x23, #48]
    8454:	94000000 	bl	2454 <__errno>	8454: R_AARCH64_CALL26	__errno
    8458:	b9400004 	ldr	w4, [x0]
    845c:	90000003 	adrp	x3, ebb8 <_srodata>	845c: R_AARCH64_ADR_PREL_PG_HI21	.rodata+0x158a
    8460:	90000001 	adrp	x1, f03d <g_fmtcmdfailed>	8460: R_AARCH64_ADR_PREL_PG_HI21	g_fmtcmdfailed
    8464:	91000063 	add	x3, x3, #0x0	8464: R_AARCH64_ADD_ABS_LO12_NC	.rodata+0x158a
    8468:	aa1503e2 	mov	x2, x21
    846c:	91000021 	add	x1, x1, #0x0	846c: R_AARCH64_ADD_ABS_LO12_NC	g_fmtcmdfailed
    8470:	aa1703e0 	mov	x0, x23
    8474:	d63f0260 	blr	x19
    8478:	aa1503e0 	mov	x0, x21
    847c:	94000000 	bl	698c <nsh_freefullpath>	847c: R_AARCH64_CALL26	nsh_freefullpath
    8480:	f9401bf8 	ldr	x24, [sp, #48]
    8484:	2a1403e0 	mov	w0, w20
    8488:	a94157f4 	ldp	x20, x21, [sp, #16]
    848c:	a9425ff6 	ldp	x22, x23, [sp, #32]
    8490:	a8c44ffe 	ldp	x30, x19, [sp], #64
    8494:	d65f03c0 	ret
    8498:	7101c29f 	cmp	w20, #0x70
    849c:	7a401ac0 	ccmp	w22, #0x0, #0x0, ne	// ne = any
    84a0:	1a9f07f6 	cset	w22, ne	// ne = any
    84a4:	17ffffc5 	b	83b8 <cmd_mkdir+0x28>
    84a8:	b4fffe93 	cbz	x19, 8478 <cmd_mkdir+0xe8>
    84ac:	aa1303e0 	mov	x0, x19
    84b0:	38001418 	strb	w24, [x0], #1
    84b4:	17ffffd8 	b	8414 <cmd_mkdir+0x84>

00000000000084b8 <cmd_mkrd>:
cmd_mkrd():
    84b8:	a9ba4ffe 	stp	x30, x19, [sp, #-96]!
    84bc:	aa0003f3 	mov	x19, x0
    84c0:	a90157f4 	stp	x20, x21, [sp, #16]
    84c4:	aa0203f4 	mov	x20, x2
    84c8:	52800015 	mov	w21, #0x0                   	// #0
    84cc:	a9025ff6 	stp	x22, x23, [sp, #32]
    84d0:	2a0103f6 	mov	w22, w1
    84d4:	52800017 	mov	w23, #0x0                   	// #0
    84d8:	a90367f8 	stp	x24, x25, [sp, #48]
    84dc:	90000019 	adrp	x25, f0e6 <g_fmtargrange>	84dc: R_AARCH64_ADR_PREL_PG_HI21	g_fmtargrange
    84e0:	91000339 	add	x25, x25, #0x0	84e0: R_AARCH64_ADD_ABS_LO12_NC	g_fmtargrange
    84e4:	a9046ffa 	stp	x26, x27, [sp, #64]
    84e8:	9000001a 	adrp	x26, ebb8 <_srodata>	84e8: R_AARCH64_ADR_PREL_PG_HI21	.rodata+0x162e
    84ec:	9000001b 	adrp	x27, f103 <g_fmtarginvalid>	84ec: R_AARCH64_ADR_PREL_PG_HI21	g_fmtarginvalid
    84f0:	9100035a 	add	x26, x26, #0x0	84f0: R_AARCH64_ADD_ABS_LO12_NC	.rodata+0x162e
    84f4:	9100037b 	add	x27, x27, #0x0	84f4: R_AARCH64_ADD_ABS_LO12_NC	g_fmtarginvalid
    84f8:	52804018 	mov	w24, #0x200                 	// #512
    84fc:	aa1a03e2 	mov	x2, x26
    8500:	aa1403e1 	mov	x1, x20
    8504:	2a1603e0 	mov	w0, w22
    8508:	94000000 	bl	e0bc <getopt>	8508: R_AARCH64_CALL26	getopt
    850c:	3100041f 	cmn	w0, #0x1
    8510:	540003c1 	b.ne	8588 <cmd_mkrd+0xd0>  // b.any
    8514:	35000957 	cbnz	w23, 863c <cmd_mkrd+0x184>
    8518:	94000000 	bl	e0dc <getoptindp>	8518: R_AARCH64_CALL26	getoptindp
    851c:	b9400000 	ldr	w0, [x0]
    8520:	510006c1 	sub	w1, w22, #0x1
    8524:	6b01001f 	cmp	w0, w1
    8528:	54000721 	b.ne	860c <cmd_mkrd+0x154>  // b.any
    852c:	94000000 	bl	e0dc <getoptindp>	852c: R_AARCH64_CALL26	getoptindp
    8530:	b9800000 	ldrsw	x0, [x0]
    8534:	f8607a80 	ldr	x0, [x20, x0, lsl #3]
    8538:	94000000 	bl	d2d0 <atoi>	8538: R_AARCH64_CALL26	atoi
    853c:	b90057e0 	str	w0, [sp, #84]
    8540:	52800060 	mov	w0, #0x3                   	// #3
    8544:	910143e1 	add	x1, sp, #0x50
    8548:	390143f5 	strb	w21, [sp, #80]
    854c:	7900b3f8 	strh	w24, [sp, #88]
    8550:	39016be0 	strb	w0, [sp, #90]
    8554:	529fe0e0 	mov	w0, #0xff07                	// #65287
    8558:	94000000 	bl	e7cc <boardctl>	8558: R_AARCH64_CALL26	boardctl
    855c:	36f80720 	tbz	w0, #31, 8640 <cmd_mkrd+0x188>
    8560:	f9400282 	ldr	x2, [x20]
    8564:	4b0003e4 	neg	w4, w0
    8568:	f9401a65 	ldr	x5, [x19, #48]
    856c:	aa1303e0 	mov	x0, x19
    8570:	90000003 	adrp	x3, ebb8 <_srodata>	8570: R_AARCH64_ADR_PREL_PG_HI21	.rodata+0x1634
    8574:	90000001 	adrp	x1, f03d <g_fmtcmdfailed>	8574: R_AARCH64_ADR_PREL_PG_HI21	g_fmtcmdfailed
    8578:	91000063 	add	x3, x3, #0x0	8578: R_AARCH64_ADD_ABS_LO12_NC	.rodata+0x1634
    857c:	91000021 	add	x1, x1, #0x0	857c: R_AARCH64_ADD_ABS_LO12_NC	g_fmtcmdfailed
    8580:	d63f00a0 	blr	x5
    8584:	1400002e 	b	863c <cmd_mkrd+0x184>
    8588:	7101b41f 	cmp	w0, #0x6d
    858c:	54000120 	b.eq	85b0 <cmd_mkrd+0xf8>  // b.none
    8590:	7101cc1f 	cmp	w0, #0x73
    8594:	54000280 	b.eq	85e4 <cmd_mkrd+0x12c>  // b.none
    8598:	f9401a63 	ldr	x3, [x19, #48]
    859c:	7100e81f 	cmp	w0, #0x3a
    85a0:	540002e0 	b.eq	85fc <cmd_mkrd+0x144>  // b.none
    85a4:	f9400282 	ldr	x2, [x20]
    85a8:	aa1b03e1 	mov	x1, x27
    85ac:	1400000a 	b	85d4 <cmd_mkrd+0x11c>
    85b0:	94000000 	bl	e0cc <getoptargp>	85b0: R_AARCH64_CALL26	getoptargp
    85b4:	f9400000 	ldr	x0, [x0]
    85b8:	94000000 	bl	d2d0 <atoi>	85b8: R_AARCH64_CALL26	atoi
    85bc:	2a0003f5 	mov	w21, w0
    85c0:	7103fc1f 	cmp	w0, #0xff
    85c4:	54fff9c9 	b.ls	84fc <cmd_mkrd+0x44>  // b.plast
    85c8:	f9400282 	ldr	x2, [x20]
    85cc:	aa1903e1 	mov	x1, x25
    85d0:	f9401a63 	ldr	x3, [x19, #48]
    85d4:	aa1303e0 	mov	x0, x19
    85d8:	52800037 	mov	w23, #0x1                   	// #1
    85dc:	d63f0060 	blr	x3
    85e0:	17ffffc7 	b	84fc <cmd_mkrd+0x44>
    85e4:	94000000 	bl	e0cc <getoptargp>	85e4: R_AARCH64_CALL26	getoptargp
    85e8:	f9400000 	ldr	x0, [x0]
    85ec:	94000000 	bl	d2d0 <atoi>	85ec: R_AARCH64_CALL26	atoi
    85f0:	2a0003f8 	mov	w24, w0
    85f4:	714012bf 	cmp	w21, #0x4, lsl #12
    85f8:	17fffff3 	b	85c4 <cmd_mkrd+0x10c>
    85fc:	f9400282 	ldr	x2, [x20]
    8600:	90000001 	adrp	x1, f137 <g_fmtargrequired>	8600: R_AARCH64_ADR_PREL_PG_HI21	g_fmtargrequired
    8604:	91000021 	add	x1, x1, #0x0	8604: R_AARCH64_ADD_ABS_LO12_NC	g_fmtargrequired
    8608:	17fffff3 	b	85d4 <cmd_mkrd+0x11c>
    860c:	94000000 	bl	e0dc <getoptindp>	860c: R_AARCH64_CALL26	getoptindp
    8610:	b9400002 	ldr	w2, [x0]
    8614:	f9401e63 	ldr	x3, [x19, #56]
    8618:	6b16005f 	cmp	w2, w22
    861c:	f9400282 	ldr	x2, [x20]
    8620:	90000001 	adrp	x1, f094 <g_fmttoomanyargs>	8620: R_AARCH64_ADR_PREL_PG_HI21	g_fmttoomanyargs
    8624:	90000000 	adrp	x0, f137 <g_fmtargrequired>	8624: R_AARCH64_ADR_PREL_PG_HI21	g_fmtargrequired
    8628:	91000021 	add	x1, x1, #0x0	8628: R_AARCH64_ADD_ABS_LO12_NC	g_fmttoomanyargs
    862c:	91000000 	add	x0, x0, #0x0	862c: R_AARCH64_ADD_ABS_LO12_NC	g_fmtargrequired
    8630:	9a80b021 	csel	x1, x1, x0, lt	// lt = tstop
    8634:	aa1303e0 	mov	x0, x19
    8638:	d63f0060 	blr	x3
    863c:	12800000 	mov	w0, #0xffffffff            	// #-1
    8640:	a94157f4 	ldp	x20, x21, [sp, #16]
    8644:	a9425ff6 	ldp	x22, x23, [sp, #32]
    8648:	a94367f8 	ldp	x24, x25, [sp, #48]
    864c:	a9446ffa 	ldp	x26, x27, [sp, #64]
    8650:	a8c64ffe 	ldp	x30, x19, [sp], #96
    8654:	d65f03c0 	ret

0000000000008658 <cmd_mv>:
cmd_mv():
    8658:	a9bc4ffe 	stp	x30, x19, [sp, #-64]!
    865c:	aa0003f3 	mov	x19, x0
    8660:	a90157f4 	stp	x20, x21, [sp, #16]
    8664:	aa0203f4 	mov	x20, x2
    8668:	a9025ff6 	stp	x22, x23, [sp, #32]
    866c:	f9001bf8 	str	x24, [sp, #48]
    8670:	f9400441 	ldr	x1, [x2, #8]
    8674:	94000000 	bl	68fc <nsh_getfullpath>	8674: R_AARCH64_CALL26	nsh_getfullpath
    8678:	b50001c0 	cbnz	x0, 86b0 <cmd_mv+0x58>
    867c:	f9400282 	ldr	x2, [x20]
    8680:	90000001 	adrp	x1, f025 <g_fmtcmdoutofmemory>	8680: R_AARCH64_ADR_PREL_PG_HI21	g_fmtcmdoutofmemory
    8684:	f9401a63 	ldr	x3, [x19, #48]
    8688:	91000021 	add	x1, x1, #0x0	8688: R_AARCH64_ADD_ABS_LO12_NC	g_fmtcmdoutofmemory
    868c:	aa1303e0 	mov	x0, x19
    8690:	12800015 	mov	w21, #0xffffffff            	// #-1
    8694:	d63f0060 	blr	x3
    8698:	f9401bf8 	ldr	x24, [sp, #48]
    869c:	2a1503e0 	mov	w0, w21
    86a0:	a94157f4 	ldp	x20, x21, [sp, #16]
    86a4:	a9425ff6 	ldp	x22, x23, [sp, #32]
    86a8:	a8c44ffe 	ldp	x30, x19, [sp], #64
    86ac:	d65f03c0 	ret
    86b0:	f9400a81 	ldr	x1, [x20, #16]
    86b4:	aa0003f6 	mov	x22, x0
    86b8:	aa1303e0 	mov	x0, x19
    86bc:	94000000 	bl	68fc <nsh_getfullpath>	86bc: R_AARCH64_CALL26	nsh_getfullpath
    86c0:	aa0003f7 	mov	x23, x0
    86c4:	b5000160 	cbnz	x0, 86f0 <cmd_mv+0x98>
    86c8:	f9400282 	ldr	x2, [x20]
    86cc:	90000001 	adrp	x1, f025 <g_fmtcmdoutofmemory>	86cc: R_AARCH64_ADR_PREL_PG_HI21	g_fmtcmdoutofmemory
    86d0:	f9401a63 	ldr	x3, [x19, #48]
    86d4:	91000021 	add	x1, x1, #0x0	86d4: R_AARCH64_ADD_ABS_LO12_NC	g_fmtcmdoutofmemory
    86d8:	aa1303e0 	mov	x0, x19
    86dc:	12800015 	mov	w21, #0xffffffff            	// #-1
    86e0:	d63f0060 	blr	x3
    86e4:	aa1603e0 	mov	x0, x22
    86e8:	94000000 	bl	698c <nsh_freefullpath>	86e8: R_AARCH64_CALL26	nsh_freefullpath
    86ec:	17ffffeb 	b	8698 <cmd_mv+0x40>
    86f0:	aa0003e1 	mov	x1, x0
    86f4:	aa1603e0 	mov	x0, x22
    86f8:	94000000 	bl	ea94 <rename>	86f8: R_AARCH64_CALL26	rename
    86fc:	2a0003f5 	mov	w21, w0
    8700:	36f80180 	tbz	w0, #31, 8730 <cmd_mv+0xd8>
    8704:	f9400294 	ldr	x20, [x20]
    8708:	f9401a78 	ldr	x24, [x19, #48]
    870c:	94000000 	bl	2454 <__errno>	870c: R_AARCH64_CALL26	__errno
    8710:	b9400004 	ldr	w4, [x0]
    8714:	90000003 	adrp	x3, ebb8 <_srodata>	8714: R_AARCH64_ADR_PREL_PG_HI21	.rodata+0x164c
    8718:	90000001 	adrp	x1, f03d <g_fmtcmdfailed>	8718: R_AARCH64_ADR_PREL_PG_HI21	g_fmtcmdfailed
    871c:	91000063 	add	x3, x3, #0x0	871c: R_AARCH64_ADD_ABS_LO12_NC	.rodata+0x164c
    8720:	aa1403e2 	mov	x2, x20
    8724:	91000021 	add	x1, x1, #0x0	8724: R_AARCH64_ADD_ABS_LO12_NC	g_fmtcmdfailed
    8728:	aa1303e0 	mov	x0, x19
    872c:	d63f0300 	blr	x24
    8730:	aa1703e0 	mov	x0, x23
    8734:	94000000 	bl	698c <nsh_freefullpath>	8734: R_AARCH64_CALL26	nsh_freefullpath
    8738:	17ffffeb 	b	86e4 <cmd_mv+0x8c>

000000000000873c <cmd_rm>:
cmd_rm():
    873c:	a9b64ffe 	stp	x30, x19, [sp, #-160]!
    8740:	aa0003f3 	mov	x19, x0
    8744:	a90157f4 	stp	x20, x21, [sp, #16]
    8748:	2a0103f4 	mov	w20, w1
    874c:	aa0203f5 	mov	x21, x2
    8750:	a9025ff6 	stp	x22, x23, [sp, #32]
    8754:	90000016 	adrp	x22, ebb8 <_srodata>	8754: R_AARCH64_ADR_PREL_PG_HI21	.rodata+0x1668
    8758:	910002d6 	add	x22, x22, #0x0	8758: R_AARCH64_ADD_ABS_LO12_NC	.rodata+0x1668
    875c:	52800017 	mov	w23, #0x0                   	// #0
    8760:	f9001bf8 	str	x24, [sp, #48]
    8764:	52800018 	mov	w24, #0x0                   	// #0
    8768:	aa1603e2 	mov	x2, x22
    876c:	aa1503e1 	mov	x1, x21
    8770:	2a1403e0 	mov	w0, w20
    8774:	94000000 	bl	e0bc <getopt>	8774: R_AARCH64_CALL26	getopt
    8778:	3100041f 	cmn	w0, #0x1
    877c:	540001a1 	b.ne	87b0 <cmd_rm+0x74>  // b.any
    8780:	94000000 	bl	e0dc <getoptindp>	8780: R_AARCH64_CALL26	getoptindp
    8784:	b9400000 	ldr	w0, [x0]
    8788:	6b14001f 	cmp	w0, w20
    878c:	5400042b 	b.lt	8810 <cmd_rm+0xd4>  // b.tstop
    8790:	35000877 	cbnz	w23, 889c <cmd_rm+0x160>
    8794:	f94002a2 	ldr	x2, [x21]
    8798:	aa1303e0 	mov	x0, x19
    879c:	f9401a63 	ldr	x3, [x19, #48]
    87a0:	90000001 	adrp	x1, f137 <g_fmtargrequired>	87a0: R_AARCH64_ADR_PREL_PG_HI21	g_fmtargrequired
    87a4:	91000021 	add	x1, x1, #0x0	87a4: R_AARCH64_ADD_ABS_LO12_NC	g_fmtargrequired
    87a8:	d63f0060 	blr	x3
    87ac:	1400000e 	b	87e4 <cmd_rm+0xa8>
    87b0:	7101981f 	cmp	w0, #0x66
    87b4:	54000260 	b.eq	8800 <cmd_rm+0xc4>  // b.none
    87b8:	7101c81f 	cmp	w0, #0x72
    87bc:	54000260 	b.eq	8808 <cmd_rm+0xcc>  // b.none
    87c0:	7100fc1f 	cmp	w0, #0x3f
    87c4:	54fffe81 	b.ne	8794 <cmd_rm+0x58>  // b.any
    87c8:	f9401e74 	ldr	x20, [x19, #56]
    87cc:	94000000 	bl	e0f0 <getoptoptp>	87cc: R_AARCH64_CALL26	getoptoptp
    87d0:	b9400002 	ldr	w2, [x0]
    87d4:	90000001 	adrp	x1, ebb8 <_srodata>	87d4: R_AARCH64_ADR_PREL_PG_HI21	.rodata+0x1653
    87d8:	aa1303e0 	mov	x0, x19
    87dc:	91000021 	add	x1, x1, #0x0	87dc: R_AARCH64_ADD_ABS_LO12_NC	.rodata+0x1653
    87e0:	d63f0280 	blr	x20
    87e4:	12800014 	mov	w20, #0xffffffff            	// #-1
    87e8:	f9401bf8 	ldr	x24, [sp, #48]
    87ec:	2a1403e0 	mov	w0, w20
    87f0:	a94157f4 	ldp	x20, x21, [sp, #16]
    87f4:	a9425ff6 	ldp	x22, x23, [sp, #32]
    87f8:	a8ca4ffe 	ldp	x30, x19, [sp], #160
    87fc:	d65f03c0 	ret
    8800:	52800037 	mov	w23, #0x1                   	// #1
    8804:	17ffffd9 	b	8768 <cmd_rm+0x2c>
    8808:	52800038 	mov	w24, #0x1                   	// #1
    880c:	17ffffd7 	b	8768 <cmd_rm+0x2c>
    8810:	94000000 	bl	e0dc <getoptindp>	8810: R_AARCH64_CALL26	getoptindp
    8814:	b9800000 	ldrsw	x0, [x0]
    8818:	f8607aa1 	ldr	x1, [x21, x0, lsl #3]
    881c:	aa1303e0 	mov	x0, x19
    8820:	94000000 	bl	68fc <nsh_getfullpath>	8820: R_AARCH64_CALL26	nsh_getfullpath
    8824:	aa0003f6 	mov	x22, x0
    8828:	b4fffde0 	cbz	x0, 87e4 <cmd_rm+0xa8>
    882c:	34000298 	cbz	w24, 887c <cmd_rm+0x140>
    8830:	910123e1 	add	x1, sp, #0x48
    8834:	94000000 	bl	0 <memcpy>	8834: R_AARCH64_CALL26	.text+0x79d4
    8838:	2a0003f4 	mov	w20, w0
    883c:	35000257 	cbnz	w23, 8884 <cmd_rm+0x148>
    8840:	36f80194 	tbz	w20, #31, 8870 <cmd_rm+0x134>
    8844:	f94002b5 	ldr	x21, [x21]
    8848:	f9401a77 	ldr	x23, [x19, #48]
    884c:	94000000 	bl	2454 <__errno>	884c: R_AARCH64_CALL26	__errno
    8850:	b9400004 	ldr	w4, [x0]
    8854:	90000003 	adrp	x3, ebb8 <_srodata>	8854: R_AARCH64_ADR_PREL_PG_HI21	.rodata+0x166b
    8858:	90000001 	adrp	x1, f03d <g_fmtcmdfailed>	8858: R_AARCH64_ADR_PREL_PG_HI21	g_fmtcmdfailed
    885c:	91000063 	add	x3, x3, #0x0	885c: R_AARCH64_ADD_ABS_LO12_NC	.rodata+0x166b
    8860:	aa1503e2 	mov	x2, x21
    8864:	91000021 	add	x1, x1, #0x0	8864: R_AARCH64_ADD_ABS_LO12_NC	g_fmtcmdfailed
    8868:	aa1303e0 	mov	x0, x19
    886c:	d63f02e0 	blr	x23
    8870:	aa1603e0 	mov	x0, x22
    8874:	94000000 	bl	698c <nsh_freefullpath>	8874: R_AARCH64_CALL26	nsh_freefullpath
    8878:	17ffffdc 	b	87e8 <cmd_rm+0xac>
    887c:	94000000 	bl	eb60 <unlink>	887c: R_AARCH64_CALL26	unlink
    8880:	17ffffee 	b	8838 <cmd_rm+0xfc>
    8884:	94000000 	bl	2454 <__errno>	8884: R_AARCH64_CALL26	__errno
    8888:	b9400000 	ldr	w0, [x0]
    888c:	7100081f 	cmp	w0, #0x2
    8890:	54fffd81 	b.ne	8840 <cmd_rm+0x104>  // b.any
    8894:	52800014 	mov	w20, #0x0                   	// #0
    8898:	17fffff6 	b	8870 <cmd_rm+0x134>
    889c:	52800014 	mov	w20, #0x0                   	// #0
    88a0:	17ffffd2 	b	87e8 <cmd_rm+0xac>

00000000000088a4 <cmd_rmdir>:
cmd_rmdir():
    88a4:	a9bd4ffe 	stp	x30, x19, [sp, #-48]!
    88a8:	a90157f4 	stp	x20, x21, [sp, #16]
    88ac:	aa0003f5 	mov	x21, x0
    88b0:	a9025ff6 	stp	x22, x23, [sp, #32]
    88b4:	aa0203f6 	mov	x22, x2
    88b8:	f9400441 	ldr	x1, [x2, #8]
    88bc:	94000000 	bl	68fc <nsh_getfullpath>	88bc: R_AARCH64_CALL26	nsh_getfullpath
    88c0:	b40002e0 	cbz	x0, 891c <cmd_rmdir+0x78>
    88c4:	aa0003f4 	mov	x20, x0
    88c8:	94000000 	bl	eab4 <rmdir>	88c8: R_AARCH64_CALL26	rmdir
    88cc:	2a0003f3 	mov	w19, w0
    88d0:	36f80180 	tbz	w0, #31, 8900 <cmd_rmdir+0x5c>
    88d4:	f94002d6 	ldr	x22, [x22]
    88d8:	f9401ab7 	ldr	x23, [x21, #48]
    88dc:	94000000 	bl	2454 <__errno>	88dc: R_AARCH64_CALL26	__errno
    88e0:	b9400004 	ldr	w4, [x0]
    88e4:	90000003 	adrp	x3, ebb8 <_srodata>	88e4: R_AARCH64_ADR_PREL_PG_HI21	.rodata+0x1672
    88e8:	90000001 	adrp	x1, f03d <g_fmtcmdfailed>	88e8: R_AARCH64_ADR_PREL_PG_HI21	g_fmtcmdfailed
    88ec:	91000063 	add	x3, x3, #0x0	88ec: R_AARCH64_ADD_ABS_LO12_NC	.rodata+0x1672
    88f0:	aa1603e2 	mov	x2, x22
    88f4:	91000021 	add	x1, x1, #0x0	88f4: R_AARCH64_ADD_ABS_LO12_NC	g_fmtcmdfailed
    88f8:	aa1503e0 	mov	x0, x21
    88fc:	d63f02e0 	blr	x23
    8900:	aa1403e0 	mov	x0, x20
    8904:	94000000 	bl	698c <nsh_freefullpath>	8904: R_AARCH64_CALL26	nsh_freefullpath
    8908:	2a1303e0 	mov	w0, w19
    890c:	a94157f4 	ldp	x20, x21, [sp, #16]
    8910:	a9425ff6 	ldp	x22, x23, [sp, #32]
    8914:	a8c34ffe 	ldp	x30, x19, [sp], #48
    8918:	d65f03c0 	ret
    891c:	12800013 	mov	w19, #0xffffffff            	// #-1
    8920:	17fffffa 	b	8908 <cmd_rmdir+0x64>

0000000000008924 <cmd_source>:
cmd_source():
    8924:	a9400841 	ldp	x1, x2, [x2]
    8928:	52800023 	mov	w3, #0x1                   	// #1
    892c:	14000000 	b	4e10 <nsh_script>	892c: R_AARCH64_JUMP26	nsh_script

0000000000008930 <cmd_cmp>:
cmd_cmp():
    8930:	a9ab4ffe 	stp	x30, x19, [sp, #-336]!
    8934:	aa0003f3 	mov	x19, x0
    8938:	a90157f4 	stp	x20, x21, [sp, #16]
    893c:	aa0203f4 	mov	x20, x2
    8940:	a9025ff6 	stp	x22, x23, [sp, #32]
    8944:	a90367f8 	stp	x24, x25, [sp, #48]
    8948:	a9046ffa 	stp	x26, x27, [sp, #64]
    894c:	f9400441 	ldr	x1, [x2, #8]
    8950:	94000000 	bl	68fc <nsh_getfullpath>	8950: R_AARCH64_CALL26	nsh_getfullpath
    8954:	b50001e0 	cbnz	x0, 8990 <cmd_cmp+0x60>
    8958:	f9400282 	ldr	x2, [x20]
    895c:	90000001 	adrp	x1, f137 <g_fmtargrequired>	895c: R_AARCH64_ADR_PREL_PG_HI21	g_fmtargrequired
    8960:	f9401a63 	ldr	x3, [x19, #48]
    8964:	91000021 	add	x1, x1, #0x0	8964: R_AARCH64_ADD_ABS_LO12_NC	g_fmtargrequired
    8968:	aa1303e0 	mov	x0, x19
    896c:	12800015 	mov	w21, #0xffffffff            	// #-1
    8970:	d63f0060 	blr	x3
    8974:	a9425ff6 	ldp	x22, x23, [sp, #32]
    8978:	2a1503e0 	mov	w0, w21
    897c:	a94157f4 	ldp	x20, x21, [sp, #16]
    8980:	a94367f8 	ldp	x24, x25, [sp, #48]
    8984:	a9446ffa 	ldp	x26, x27, [sp, #64]
    8988:	a8d54ffe 	ldp	x30, x19, [sp], #336
    898c:	d65f03c0 	ret
    8990:	f9400a81 	ldr	x1, [x20, #16]
    8994:	aa0003f7 	mov	x23, x0
    8998:	aa1303e0 	mov	x0, x19
    899c:	94000000 	bl	68fc <nsh_getfullpath>	899c: R_AARCH64_CALL26	nsh_getfullpath
    89a0:	aa0003f8 	mov	x24, x0
    89a4:	b5000160 	cbnz	x0, 89d0 <cmd_cmp+0xa0>
    89a8:	f9400282 	ldr	x2, [x20]
    89ac:	90000001 	adrp	x1, f137 <g_fmtargrequired>	89ac: R_AARCH64_ADR_PREL_PG_HI21	g_fmtargrequired
    89b0:	f9401a63 	ldr	x3, [x19, #48]
    89b4:	91000021 	add	x1, x1, #0x0	89b4: R_AARCH64_ADD_ABS_LO12_NC	g_fmtargrequired
    89b8:	aa1303e0 	mov	x0, x19
    89bc:	12800015 	mov	w21, #0xffffffff            	// #-1
    89c0:	d63f0060 	blr	x3
    89c4:	aa1703e0 	mov	x0, x23
    89c8:	94000000 	bl	698c <nsh_freefullpath>	89c8: R_AARCH64_CALL26	nsh_freefullpath
    89cc:	17ffffea 	b	8974 <cmd_cmp+0x44>
    89d0:	aa1703e0 	mov	x0, x23
    89d4:	52800021 	mov	w1, #0x1                   	// #1
    89d8:	94000000 	bl	e9c0 <open>	89d8: R_AARCH64_CALL26	open
    89dc:	2a0003f9 	mov	w25, w0
    89e0:	36f80200 	tbz	w0, #31, 8a20 <cmd_cmp+0xf0>
    89e4:	f9400294 	ldr	x20, [x20]
    89e8:	f9401a75 	ldr	x21, [x19, #48]
    89ec:	94000000 	bl	2454 <__errno>	89ec: R_AARCH64_CALL26	__errno
    89f0:	b9400004 	ldr	w4, [x0]
    89f4:	aa1403e2 	mov	x2, x20
    89f8:	aa1303e0 	mov	x0, x19
    89fc:	90000003 	adrp	x3, ebb8 <_srodata>	89fc: R_AARCH64_ADR_PREL_PG_HI21	.rodata+0x1619
    8a00:	90000001 	adrp	x1, f03d <g_fmtcmdfailed>	8a00: R_AARCH64_ADR_PREL_PG_HI21	g_fmtcmdfailed
    8a04:	91000063 	add	x3, x3, #0x0	8a04: R_AARCH64_ADD_ABS_LO12_NC	.rodata+0x1619
    8a08:	91000021 	add	x1, x1, #0x0	8a08: R_AARCH64_ADD_ABS_LO12_NC	g_fmtcmdfailed
    8a0c:	d63f02a0 	blr	x21
    8a10:	12800015 	mov	w21, #0xffffffff            	// #-1
    8a14:	aa1803e0 	mov	x0, x24
    8a18:	94000000 	bl	698c <nsh_freefullpath>	8a18: R_AARCH64_CALL26	nsh_freefullpath
    8a1c:	17ffffea 	b	89c4 <cmd_cmp+0x94>
    8a20:	aa1803e0 	mov	x0, x24
    8a24:	52800021 	mov	w1, #0x1                   	// #1
    8a28:	94000000 	bl	e9c0 <open>	8a28: R_AARCH64_CALL26	open
    8a2c:	2a0003fa 	mov	w26, w0
    8a30:	36f80200 	tbz	w0, #31, 8a70 <cmd_cmp+0x140>
    8a34:	f9400294 	ldr	x20, [x20]
    8a38:	f9401a75 	ldr	x21, [x19, #48]
    8a3c:	94000000 	bl	2454 <__errno>	8a3c: R_AARCH64_CALL26	__errno
    8a40:	b9400004 	ldr	w4, [x0]
    8a44:	aa1403e2 	mov	x2, x20
    8a48:	aa1303e0 	mov	x0, x19
    8a4c:	90000003 	adrp	x3, ebb8 <_srodata>	8a4c: R_AARCH64_ADR_PREL_PG_HI21	.rodata+0x1619
    8a50:	90000001 	adrp	x1, f03d <g_fmtcmdfailed>	8a50: R_AARCH64_ADR_PREL_PG_HI21	g_fmtcmdfailed
    8a54:	91000063 	add	x3, x3, #0x0	8a54: R_AARCH64_ADD_ABS_LO12_NC	.rodata+0x1619
    8a58:	91000021 	add	x1, x1, #0x0	8a58: R_AARCH64_ADD_ABS_LO12_NC	g_fmtcmdfailed
    8a5c:	d63f02a0 	blr	x21
    8a60:	12800015 	mov	w21, #0xffffffff            	// #-1
    8a64:	2a1903e0 	mov	w0, w25
    8a68:	94000000 	bl	e814 <close>	8a68: R_AARCH64_CALL26	close
    8a6c:	17ffffea 	b	8a14 <cmd_cmp+0xe4>
    8a70:	910143e1 	add	x1, sp, #0x50
    8a74:	d2801002 	mov	x2, #0x80                  	// #128
    8a78:	2a1903e0 	mov	w0, w25
    8a7c:	94000000 	bl	ea70 <read>	8a7c: R_AARCH64_CALL26	read
    8a80:	910343e1 	add	x1, sp, #0xd0
    8a84:	aa0003f6 	mov	x22, x0
    8a88:	d2801002 	mov	x2, #0x80                  	// #128
    8a8c:	2a1a03e0 	mov	w0, w26
    8a90:	94000000 	bl	ea70 <read>	8a90: R_AARCH64_CALL26	read
    8a94:	aa0003fb 	mov	x27, x0
    8a98:	b6f801d6 	tbz	x22, #63, 8ad0 <cmd_cmp+0x1a0>
    8a9c:	f9400294 	ldr	x20, [x20]
    8aa0:	f9401a75 	ldr	x21, [x19, #48]
    8aa4:	94000000 	bl	2454 <__errno>	8aa4: R_AARCH64_CALL26	__errno
    8aa8:	b9400004 	ldr	w4, [x0]
    8aac:	90000003 	adrp	x3, ebb8 <_srodata>	8aac: R_AARCH64_ADR_PREL_PG_HI21	.rodata+0x1572
    8ab0:	90000001 	adrp	x1, f03d <g_fmtcmdfailed>	8ab0: R_AARCH64_ADR_PREL_PG_HI21	g_fmtcmdfailed
    8ab4:	91000063 	add	x3, x3, #0x0	8ab4: R_AARCH64_ADD_ABS_LO12_NC	.rodata+0x1572
    8ab8:	aa1403e2 	mov	x2, x20
    8abc:	91000021 	add	x1, x1, #0x0	8abc: R_AARCH64_ADD_ABS_LO12_NC	g_fmtcmdfailed
    8ac0:	aa1303e0 	mov	x0, x19
    8ac4:	d63f02a0 	blr	x21
    8ac8:	12800015 	mov	w21, #0xffffffff            	// #-1
    8acc:	14000014 	b	8b1c <cmd_cmp+0x1ec>
    8ad0:	b7fffe60 	tbnz	x0, #63, 8a9c <cmd_cmp+0x16c>
    8ad4:	eb0002df 	cmp	x22, x0
    8ad8:	540000e1 	b.ne	8af4 <cmd_cmp+0x1c4>  // b.any
    8adc:	aa1603e2 	mov	x2, x22
    8ae0:	910343e1 	add	x1, sp, #0xd0
    8ae4:	910143e0 	add	x0, sp, #0x50
    8ae8:	94000000 	bl	280 <memcmp>	8ae8: R_AARCH64_CALL26	memcmp
    8aec:	2a0003f5 	mov	w21, w0
    8af0:	34000120 	cbz	w0, 8b14 <cmd_cmp+0x1e4>
    8af4:	f9401a63 	ldr	x3, [x19, #48]
    8af8:	eb1b02df 	cmp	x22, x27
    8afc:	9a9bd2c2 	csel	x2, x22, x27, le
    8b00:	aa1303e0 	mov	x0, x19
    8b04:	90000001 	adrp	x1, ebb8 <_srodata>	8b04: R_AARCH64_ADR_PREL_PG_HI21	.rodata+0x1678
    8b08:	91000021 	add	x1, x1, #0x0	8b08: R_AARCH64_ADD_ABS_LO12_NC	.rodata+0x1678
    8b0c:	d63f0060 	blr	x3
    8b10:	17ffffee 	b	8ac8 <cmd_cmp+0x198>
    8b14:	f101fedf 	cmp	x22, #0x7f
    8b18:	54fffacc 	b.gt	8a70 <cmd_cmp+0x140>
    8b1c:	2a1a03e0 	mov	w0, w26
    8b20:	94000000 	bl	e814 <close>	8b20: R_AARCH64_CALL26	close
    8b24:	17ffffd0 	b	8a64 <cmd_cmp+0x134>

0000000000008b28 <cmd_truncate>:
cmd_truncate():
    8b28:	a9b64ffe 	stp	x30, x19, [sp, #-160]!
    8b2c:	aa0003f3 	mov	x19, x0
    8b30:	90000001 	adrp	x1, ebb8 <_srodata>	8b30: R_AARCH64_ADR_PREL_PG_HI21	.rodata+0x1690
    8b34:	a90157f4 	stp	x20, x21, [sp, #16]
    8b38:	91000021 	add	x1, x1, #0x0	8b38: R_AARCH64_ADD_ABS_LO12_NC	.rodata+0x1690
    8b3c:	aa0203f5 	mov	x21, x2
    8b40:	a9025ff6 	stp	x22, x23, [sp, #32]
    8b44:	f9001bf8 	str	x24, [sp, #48]
    8b48:	f9400440 	ldr	x0, [x2, #8]
    8b4c:	94000000 	bl	680 <strcmp>	8b4c: R_AARCH64_CALL26	strcmp
    8b50:	340001c0 	cbz	w0, 8b88 <cmd_truncate+0x60>
    8b54:	f94002a2 	ldr	x2, [x21]
    8b58:	90000001 	adrp	x1, f103 <g_fmtarginvalid>	8b58: R_AARCH64_ADR_PREL_PG_HI21	g_fmtarginvalid
    8b5c:	f9401a63 	ldr	x3, [x19, #48]
    8b60:	91000021 	add	x1, x1, #0x0	8b60: R_AARCH64_ADD_ABS_LO12_NC	g_fmtarginvalid
    8b64:	12800014 	mov	w20, #0xffffffff            	// #-1
    8b68:	aa1303e0 	mov	x0, x19
    8b6c:	d63f0060 	blr	x3
    8b70:	f9401bf8 	ldr	x24, [sp, #48]
    8b74:	2a1403e0 	mov	w0, w20
    8b78:	a94157f4 	ldp	x20, x21, [sp, #16]
    8b7c:	a9425ff6 	ldp	x22, x23, [sp, #32]
    8b80:	a8ca4ffe 	ldp	x30, x19, [sp], #160
    8b84:	d65f03c0 	ret
    8b88:	2a0003f4 	mov	w20, w0
    8b8c:	910103e1 	add	x1, sp, #0x40
    8b90:	f9400aa0 	ldr	x0, [x21, #16]
    8b94:	52800002 	mov	w2, #0x0                   	// #0
    8b98:	94000000 	bl	d648 <strtoul>	8b98: R_AARCH64_CALL26	strtoul
    8b9c:	aa0003f7 	mov	x23, x0
    8ba0:	f94023e0 	ldr	x0, [sp, #64]
    8ba4:	39400000 	ldrb	w0, [x0]
    8ba8:	35fffd60 	cbnz	w0, 8b54 <cmd_truncate+0x2c>
    8bac:	f9400ea1 	ldr	x1, [x21, #24]
    8bb0:	aa1303e0 	mov	x0, x19
    8bb4:	94000000 	bl	68fc <nsh_getfullpath>	8bb4: R_AARCH64_CALL26	nsh_getfullpath
    8bb8:	aa0003f6 	mov	x22, x0
    8bbc:	b50000c0 	cbnz	x0, 8bd4 <cmd_truncate+0xac>
    8bc0:	f94002a2 	ldr	x2, [x21]
    8bc4:	90000001 	adrp	x1, f025 <g_fmtcmdoutofmemory>	8bc4: R_AARCH64_ADR_PREL_PG_HI21	g_fmtcmdoutofmemory
    8bc8:	f9401a63 	ldr	x3, [x19, #48]
    8bcc:	91000021 	add	x1, x1, #0x0	8bcc: R_AARCH64_ADD_ABS_LO12_NC	g_fmtcmdoutofmemory
    8bd0:	17ffffe5 	b	8b64 <cmd_truncate+0x3c>
    8bd4:	910123e1 	add	x1, sp, #0x48
    8bd8:	94000000 	bl	eb08 <stat>	8bd8: R_AARCH64_CALL26	stat
    8bdc:	36f806c0 	tbz	w0, #31, 8cb4 <cmd_truncate+0x18c>
    8be0:	94000000 	bl	2454 <__errno>	8be0: R_AARCH64_CALL26	__errno
    8be4:	b9400004 	ldr	w4, [x0]
    8be8:	7100089f 	cmp	w4, #0x2
    8bec:	54000521 	b.ne	8c90 <cmd_truncate+0x168>  // b.any
    8bf0:	aa1603e0 	mov	x0, x22
    8bf4:	528036c2 	mov	w2, #0x1b6                 	// #438
    8bf8:	528004c1 	mov	w1, #0x26                  	// #38
    8bfc:	94000000 	bl	e9c0 <open>	8bfc: R_AARCH64_CALL26	open
    8c00:	2a0003f8 	mov	w24, w0
    8c04:	36f801c0 	tbz	w0, #31, 8c3c <cmd_truncate+0x114>
    8c08:	f94002b5 	ldr	x21, [x21]
    8c0c:	f9401a74 	ldr	x20, [x19, #48]
    8c10:	94000000 	bl	2454 <__errno>	8c10: R_AARCH64_CALL26	__errno
    8c14:	b9400004 	ldr	w4, [x0]
    8c18:	90000003 	adrp	x3, ebb8 <_srodata>	8c18: R_AARCH64_ADR_PREL_PG_HI21	.rodata+0x1585
    8c1c:	90000001 	adrp	x1, f03d <g_fmtcmdfailed>	8c1c: R_AARCH64_ADR_PREL_PG_HI21	g_fmtcmdfailed
    8c20:	91000063 	add	x3, x3, #0x0	8c20: R_AARCH64_ADD_ABS_LO12_NC	.rodata+0x1585
    8c24:	aa1503e2 	mov	x2, x21
    8c28:	91000021 	add	x1, x1, #0x0	8c28: R_AARCH64_ADD_ABS_LO12_NC	g_fmtcmdfailed
    8c2c:	aa1303e0 	mov	x0, x19
    8c30:	d63f0280 	blr	x20
    8c34:	12800014 	mov	w20, #0xffffffff            	// #-1
    8c38:	14000013 	b	8c84 <cmd_truncate+0x15c>
    8c3c:	b4000217 	cbz	x23, 8c7c <cmd_truncate+0x154>
    8c40:	2a1703e1 	mov	w1, w23
    8c44:	94000000 	bl	e82c <ftruncate>	8c44: R_AARCH64_CALL26	ftruncate
    8c48:	2a0003f4 	mov	w20, w0
    8c4c:	36f80180 	tbz	w0, #31, 8c7c <cmd_truncate+0x154>
    8c50:	f94002b5 	ldr	x21, [x21]
    8c54:	f9401a77 	ldr	x23, [x19, #48]
    8c58:	94000000 	bl	2454 <__errno>	8c58: R_AARCH64_CALL26	__errno
    8c5c:	b9400004 	ldr	w4, [x0]
    8c60:	90000003 	adrp	x3, ebb8 <_srodata>	8c60: R_AARCH64_ADR_PREL_PG_HI21	.rodata+0x1693
    8c64:	90000001 	adrp	x1, f03d <g_fmtcmdfailed>	8c64: R_AARCH64_ADR_PREL_PG_HI21	g_fmtcmdfailed
    8c68:	91000063 	add	x3, x3, #0x0	8c68: R_AARCH64_ADD_ABS_LO12_NC	.rodata+0x1693
    8c6c:	aa1503e2 	mov	x2, x21
    8c70:	91000021 	add	x1, x1, #0x0	8c70: R_AARCH64_ADD_ABS_LO12_NC	g_fmtcmdfailed
    8c74:	aa1303e0 	mov	x0, x19
    8c78:	d63f02e0 	blr	x23
    8c7c:	2a1803e0 	mov	w0, w24
    8c80:	94000000 	bl	e814 <close>	8c80: R_AARCH64_CALL26	close
    8c84:	aa1603e0 	mov	x0, x22
    8c88:	94000000 	bl	698c <nsh_freefullpath>	8c88: R_AARCH64_CALL26	nsh_freefullpath
    8c8c:	17ffffb9 	b	8b70 <cmd_truncate+0x48>
    8c90:	f94002a2 	ldr	x2, [x21]
    8c94:	aa1303e0 	mov	x0, x19
    8c98:	f9401a65 	ldr	x5, [x19, #48]
    8c9c:	90000003 	adrp	x3, ebb8 <_srodata>	8c9c: R_AARCH64_ADR_PREL_PG_HI21	.rodata+0x1585
    8ca0:	90000001 	adrp	x1, f03d <g_fmtcmdfailed>	8ca0: R_AARCH64_ADR_PREL_PG_HI21	g_fmtcmdfailed
    8ca4:	91000063 	add	x3, x3, #0x0	8ca4: R_AARCH64_ADD_ABS_LO12_NC	.rodata+0x1585
    8ca8:	91000021 	add	x1, x1, #0x0	8ca8: R_AARCH64_ADD_ABS_LO12_NC	g_fmtcmdfailed
    8cac:	d63f00a0 	blr	x5
    8cb0:	17ffffe1 	b	8c34 <cmd_truncate+0x10c>
    8cb4:	b94053e0 	ldr	w0, [sp, #80]
    8cb8:	12140c00 	and	w0, w0, #0xf000
    8cbc:	7140201f 	cmp	w0, #0x8, lsl #12
    8cc0:	54000100 	b.eq	8ce0 <cmd_truncate+0x1b8>  // b.none
    8cc4:	f94002a2 	ldr	x2, [x21]
    8cc8:	aa1303e0 	mov	x0, x19
    8ccc:	f9401a63 	ldr	x3, [x19, #48]
    8cd0:	90000001 	adrp	x1, f103 <g_fmtarginvalid>	8cd0: R_AARCH64_ADR_PREL_PG_HI21	g_fmtarginvalid
    8cd4:	91000021 	add	x1, x1, #0x0	8cd4: R_AARCH64_ADD_ABS_LO12_NC	g_fmtarginvalid
    8cd8:	d63f0060 	blr	x3
    8cdc:	17ffffd6 	b	8c34 <cmd_truncate+0x10c>
    8ce0:	2a1703e1 	mov	w1, w23
    8ce4:	aa1603e0 	mov	x0, x22
    8ce8:	94000000 	bl	e284 <truncate>	8ce8: R_AARCH64_CALL26	truncate
    8cec:	2a0003f4 	mov	w20, w0
    8cf0:	36fffca0 	tbz	w0, #31, 8c84 <cmd_truncate+0x15c>
    8cf4:	f94002b5 	ldr	x21, [x21]
    8cf8:	f9401a77 	ldr	x23, [x19, #48]
    8cfc:	94000000 	bl	2454 <__errno>	8cfc: R_AARCH64_CALL26	__errno
    8d00:	b9400004 	ldr	w4, [x0]
    8d04:	aa1503e2 	mov	x2, x21
    8d08:	aa1303e0 	mov	x0, x19
    8d0c:	90000003 	adrp	x3, ebb8 <_srodata>	8d0c: R_AARCH64_ADR_PREL_PG_HI21	.rodata+0x169d
    8d10:	90000001 	adrp	x1, f03d <g_fmtcmdfailed>	8d10: R_AARCH64_ADR_PREL_PG_HI21	g_fmtcmdfailed
    8d14:	91000063 	add	x3, x3, #0x0	8d14: R_AARCH64_ADD_ABS_LO12_NC	.rodata+0x169d
    8d18:	91000021 	add	x1, x1, #0x0	8d18: R_AARCH64_ADD_ABS_LO12_NC	g_fmtcmdfailed
    8d1c:	d63f02e0 	blr	x23
    8d20:	17ffffd9 	b	8c84 <cmd_truncate+0x15c>

0000000000008d24 <cmd_fdinfo>:
cmd_fdinfo():
    8d24:	f9400443 	ldr	x3, [x2, #8]
    8d28:	b4000543 	cbz	x3, 8dd0 <cmd_fdinfo+0xac>
    8d2c:	a9bd4ffe 	stp	x30, x19, [sp, #-48]!
    8d30:	a90157f4 	stp	x20, x21, [sp, #16]
    8d34:	aa0003f4 	mov	x20, x0
    8d38:	f90017ff 	str	xzr, [sp, #40]
    8d3c:	39400060 	ldrb	w0, [x3]
    8d40:	5100c000 	sub	w0, w0, #0x30
    8d44:	7100241f 	cmp	w0, #0x9
    8d48:	54000229 	b.ls	8d8c <cmd_fdinfo+0x68>  // b.plast
    8d4c:	f9401a93 	ldr	x19, [x20, #48]
    8d50:	94000000 	bl	2454 <__errno>	8d50: R_AARCH64_CALL26	__errno
    8d54:	b9400004 	ldr	w4, [x0]
    8d58:	90000003 	adrp	x3, ebb8 <_srodata>	8d58: R_AARCH64_ADR_PREL_PG_HI21	.rodata+0x16a6
    8d5c:	aa1403e0 	mov	x0, x20
    8d60:	91000063 	add	x3, x3, #0x0	8d60: R_AARCH64_ADD_ABS_LO12_NC	.rodata+0x16a6
    8d64:	90000002 	adrp	x2, ebb8 <_srodata>	8d64: R_AARCH64_ADR_PREL_PG_HI21	.rodata+0x15ea
    8d68:	90000001 	adrp	x1, f03d <g_fmtcmdfailed>	8d68: R_AARCH64_ADR_PREL_PG_HI21	g_fmtcmdfailed
    8d6c:	91000042 	add	x2, x2, #0x0	8d6c: R_AARCH64_ADD_ABS_LO12_NC	.rodata+0x15ea
    8d70:	91000021 	add	x1, x1, #0x0	8d70: R_AARCH64_ADD_ABS_LO12_NC	g_fmtcmdfailed
    8d74:	d63f0260 	blr	x19
    8d78:	12800013 	mov	w19, #0xffffffff            	// #-1
    8d7c:	a94157f4 	ldp	x20, x21, [sp, #16]
    8d80:	2a1303e0 	mov	w0, w19
    8d84:	a8c34ffe 	ldp	x30, x19, [sp], #48
    8d88:	d65f03c0 	ret
    8d8c:	aa0203f5 	mov	x21, x2
    8d90:	9100a3e0 	add	x0, sp, #0x28
    8d94:	90000002 	adrp	x2, ebb8 <_srodata>	8d94: R_AARCH64_ADR_PREL_PG_HI21	.rodata+0x16b5
    8d98:	90000001 	adrp	x1, ebb8 <_srodata>	8d98: R_AARCH64_ADR_PREL_PG_HI21	.rodata+0x15d2
    8d9c:	91000042 	add	x2, x2, #0x0	8d9c: R_AARCH64_ADD_ABS_LO12_NC	.rodata+0x16b5
    8da0:	91000021 	add	x1, x1, #0x0	8da0: R_AARCH64_ADD_ABS_LO12_NC	.rodata+0x15d2
    8da4:	94000000 	bl	cfe4 <asprintf>	8da4: R_AARCH64_CALL26	asprintf
    8da8:	2a0003f3 	mov	w19, w0
    8dac:	37fffe80 	tbnz	w0, #31, 8d7c <cmd_fdinfo+0x58>
    8db0:	f94002a1 	ldr	x1, [x21]
    8db4:	aa1403e0 	mov	x0, x20
    8db8:	f94017e2 	ldr	x2, [sp, #40]
    8dbc:	94000000 	bl	8f10 <nsh_catfile>	8dbc: R_AARCH64_CALL26	nsh_catfile
    8dc0:	2a0003f3 	mov	w19, w0
    8dc4:	f94017e0 	ldr	x0, [sp, #40]
    8dc8:	94000000 	bl	b598 <free>	8dc8: R_AARCH64_CALL26	free
    8dcc:	17ffffec 	b	8d7c <cmd_fdinfo+0x58>
    8dd0:	90000003 	adrp	x3, 0 <memcpy>	8dd0: R_AARCH64_ADR_PREL_PG_HI21	.text+0x7bf8
    8dd4:	90000002 	adrp	x2, ebb8 <_srodata>	8dd4: R_AARCH64_ADR_PREL_PG_HI21	.rodata+0x16b5
    8dd8:	90000001 	adrp	x1, ebb8 <_srodata>	8dd8: R_AARCH64_ADR_PREL_PG_HI21	.rodata+0x15ea
    8ddc:	91000063 	add	x3, x3, #0x0	8ddc: R_AARCH64_ADD_ABS_LO12_NC	.text+0x7bf8
    8de0:	91000042 	add	x2, x2, #0x0	8de0: R_AARCH64_ADD_ABS_LO12_NC	.rodata+0x16b5
    8de4:	91000021 	add	x1, x1, #0x0	8de4: R_AARCH64_ADD_ABS_LO12_NC	.rodata+0x15ea
    8de8:	d2800004 	mov	x4, #0x0                   	// #0
    8dec:	14000000 	b	9344 <nsh_foreach_direntry>	8dec: R_AARCH64_JUMP26	nsh_foreach_direntry
    8df0:	a9bd4ffe 	stp	x30, x19, [sp, #-48]!
    8df4:	a90157f4 	stp	x20, x21, [sp, #16]
    8df8:	a9025ff6 	stp	x22, x23, [sp, #32]
    8dfc:	aa0103f6 	mov	x22, x1
    8e00:	a9410460 	ldp	x0, x1, [x3, #16]
    8e04:	eb00003f 	cmp	x1, x0
    8e08:	54000800 	b.eq	8f08 <cmd_fdinfo+0x1e4>  // b.none
    8e0c:	aa0203f5 	mov	x21, x2
    8e10:	aa0303f4 	mov	x20, x3
    8e14:	d2802000 	mov	x0, #0x100                 	// #256
    8e18:	94000000 	bl	ccfc <lib_get_tempbuffer>	8e18: R_AARCH64_CALL26	lib_get_tempbuffer
    8e1c:	aa0003f3 	mov	x19, x0
    8e20:	b5000100 	cbnz	x0, 8e40 <cmd_fdinfo+0x11c>
    8e24:	94000000 	bl	2454 <__errno>	8e24: R_AARCH64_CALL26	__errno
    8e28:	b9400000 	ldr	w0, [x0]
    8e2c:	4b0003e0 	neg	w0, w0
    8e30:	a94157f4 	ldp	x20, x21, [sp, #16]
    8e34:	a9425ff6 	ldp	x22, x23, [sp, #32]
    8e38:	a8c34ffe 	ldp	x30, x19, [sp], #48
    8e3c:	d65f03c0 	ret
    8e40:	910006b5 	add	x21, x21, #0x1
    8e44:	aa1603e3 	mov	x3, x22
    8e48:	aa1503e4 	mov	x4, x21
    8e4c:	90000002 	adrp	x2, ebb8 <_srodata>	8e4c: R_AARCH64_ADR_PREL_PG_HI21	.rodata+0x16bb
    8e50:	91000042 	add	x2, x2, #0x0	8e50: R_AARCH64_ADD_ABS_LO12_NC	.rodata+0x16bb
    8e54:	d2802001 	mov	x1, #0x100                 	// #256
    8e58:	94000000 	bl	d04c <snprintf>	8e58: R_AARCH64_CALL26	snprintf
    8e5c:	aa1303e0 	mov	x0, x19
    8e60:	52808021 	mov	w1, #0x401                 	// #1025
    8e64:	94000000 	bl	e9c0 <open>	8e64: R_AARCH64_CALL26	open
    8e68:	2a0003f7 	mov	w23, w0
    8e6c:	36f800a0 	tbz	w0, #31, 8e80 <cmd_fdinfo+0x15c>
    8e70:	aa1303e0 	mov	x0, x19
    8e74:	94000000 	bl	cd8c <lib_put_tempbuffer>	8e74: R_AARCH64_CALL26	lib_put_tempbuffer
    8e78:	52800000 	mov	w0, #0x0                   	// #0
    8e7c:	17ffffed 	b	8e30 <cmd_fdinfo+0x10c>
    8e80:	aa1303e1 	mov	x1, x19
    8e84:	d2801fe2 	mov	x2, #0xff                  	// #255
    8e88:	94000000 	bl	ea70 <read>	8e88: R_AARCH64_CALL26	read
    8e8c:	aa0003f6 	mov	x22, x0
    8e90:	2a1703e0 	mov	w0, w23
    8e94:	94000000 	bl	e814 <close>	8e94: R_AARCH64_CALL26	close
    8e98:	36f80096 	tbz	w22, #31, 8ea8 <cmd_fdinfo+0x184>
    8e9c:	aa1303e0 	mov	x0, x19
    8ea0:	94000000 	bl	cd8c <lib_put_tempbuffer>	8ea0: R_AARCH64_CALL26	lib_put_tempbuffer
    8ea4:	17ffffe0 	b	8e24 <cmd_fdinfo+0x100>
    8ea8:	3836ca7f 	strb	wzr, [x19, w22, sxtw]
    8eac:	f9400297 	ldr	x23, [x20]
    8eb0:	aa1703e0 	mov	x0, x23
    8eb4:	94000000 	bl	940 <strlen>	8eb4: R_AARCH64_CALL26	strlen
    8eb8:	93407c16 	sxtw	x22, w0
    8ebc:	aa1703e1 	mov	x1, x23
    8ec0:	aa1603e2 	mov	x2, x22
    8ec4:	aa1303e0 	mov	x0, x19
    8ec8:	94000000 	bl	a9c <strncmp>	8ec8: R_AARCH64_CALL26	strncmp
    8ecc:	35fffd20 	cbnz	w0, 8e70 <cmd_fdinfo+0x14c>
    8ed0:	38766a76 	ldrb	w22, [x19, x22]
    8ed4:	2a1603e0 	mov	w0, w22
    8ed8:	94000000 	bl	ca48 <isspace>	8ed8: R_AARCH64_CALL26	isspace
    8edc:	35000040 	cbnz	w0, 8ee4 <cmd_fdinfo+0x1c0>
    8ee0:	35fffc96 	cbnz	w22, 8e70 <cmd_fdinfo+0x14c>
    8ee4:	f9400e80 	ldr	x0, [x20, #24]
    8ee8:	f9400696 	ldr	x22, [x20, #8]
    8eec:	91000401 	add	x1, x0, #0x1
    8ef0:	f9000e81 	str	x1, [x20, #24]
    8ef4:	d37ef414 	lsl	x20, x0, #2
    8ef8:	aa1503e0 	mov	x0, x21
    8efc:	94000000 	bl	d2d0 <atoi>	8efc: R_AARCH64_CALL26	atoi
    8f00:	b8346ac0 	str	w0, [x22, x20]
    8f04:	17ffffdb 	b	8e70 <cmd_fdinfo+0x14c>
    8f08:	128000c0 	mov	w0, #0xfffffff9            	// #-7
    8f0c:	17ffffc9 	b	8e30 <cmd_fdinfo+0x10c>

0000000000008f10 <nsh_catfile>:
nsh_catfile():
    8f10:	a9bb4ffe 	stp	x30, x19, [sp, #-80]!
    8f14:	aa0003f3 	mov	x19, x0
    8f18:	aa0203e0 	mov	x0, x2
    8f1c:	a90157f4 	stp	x20, x21, [sp, #16]
    8f20:	aa0103f4 	mov	x20, x1
    8f24:	aa0203f5 	mov	x21, x2
    8f28:	52808021 	mov	w1, #0x401                 	// #1025
    8f2c:	a9025ff6 	stp	x22, x23, [sp, #32]
    8f30:	a90367f8 	stp	x24, x25, [sp, #48]
    8f34:	a9046ffa 	stp	x26, x27, [sp, #64]
    8f38:	94000000 	bl	e9c0 <open>	8f38: R_AARCH64_CALL26	open
    8f3c:	36f80400 	tbz	w0, #31, 8fbc <nsh_catfile+0xac>
    8f40:	90000001 	adrp	x1, ebb8 <_srodata>	8f40: R_AARCH64_ADR_PREL_PG_HI21	.rodata+0x16c9
    8f44:	aa1503e0 	mov	x0, x21
    8f48:	91000021 	add	x1, x1, #0x0	8f48: R_AARCH64_ADD_ABS_LO12_NC	.rodata+0x16c9
    8f4c:	d28000a2 	mov	x2, #0x5                   	// #5
    8f50:	94000000 	bl	a9c <strncmp>	8f50: R_AARCH64_CALL26	strncmp
    8f54:	35000100 	cbnz	w0, 8f74 <nsh_catfile+0x64>
    8f58:	f9401a64 	ldr	x4, [x19, #48]
    8f5c:	90000001 	adrp	x1, ebb8 <_srodata>	8f5c: R_AARCH64_ADR_PREL_PG_HI21	.rodata+0x16cf
    8f60:	aa1503e3 	mov	x3, x21
    8f64:	aa1403e2 	mov	x2, x20
    8f68:	91000021 	add	x1, x1, #0x0	8f68: R_AARCH64_ADD_ABS_LO12_NC	.rodata+0x16cf
    8f6c:	aa1303e0 	mov	x0, x19
    8f70:	d63f0080 	blr	x4
    8f74:	f9401a75 	ldr	x21, [x19, #48]
    8f78:	94000000 	bl	2454 <__errno>	8f78: R_AARCH64_CALL26	__errno
    8f7c:	b9400004 	ldr	w4, [x0]
    8f80:	90000003 	adrp	x3, ebb8 <_srodata>	8f80: R_AARCH64_ADR_PREL_PG_HI21	.rodata+0x1700
    8f84:	91000063 	add	x3, x3, #0x0	8f84: R_AARCH64_ADD_ABS_LO12_NC	.rodata+0x1700
    8f88:	12800018 	mov	w24, #0xffffffff            	// #-1
    8f8c:	aa1403e2 	mov	x2, x20
    8f90:	aa1303e0 	mov	x0, x19
    8f94:	90000001 	adrp	x1, f03d <g_fmtcmdfailed>	8f94: R_AARCH64_ADR_PREL_PG_HI21	g_fmtcmdfailed
    8f98:	91000021 	add	x1, x1, #0x0	8f98: R_AARCH64_ADD_ABS_LO12_NC	g_fmtcmdfailed
    8f9c:	d63f02a0 	blr	x21
    8fa0:	2a1803e0 	mov	w0, w24
    8fa4:	a94157f4 	ldp	x20, x21, [sp, #16]
    8fa8:	a9425ff6 	ldp	x22, x23, [sp, #32]
    8fac:	a94367f8 	ldp	x24, x25, [sp, #48]
    8fb0:	a9446ffa 	ldp	x26, x27, [sp, #64]
    8fb4:	a8c54ffe 	ldp	x30, x19, [sp], #80
    8fb8:	d65f03c0 	ret
    8fbc:	2a0003f6 	mov	w22, w0
    8fc0:	52800018 	mov	w24, #0x0                   	// #0
    8fc4:	d2804000 	mov	x0, #0x200                 	// #512
    8fc8:	94000000 	bl	b5a8 <malloc>	8fc8: R_AARCH64_CALL26	malloc
    8fcc:	aa0003f5 	mov	x21, x0
    8fd0:	b4000380 	cbz	x0, 9040 <nsh_catfile+0x130>
    8fd4:	90000019 	adrp	x25, ebb8 <_srodata>	8fd4: R_AARCH64_ADR_PREL_PG_HI21	.rodata+0x1711
    8fd8:	9000001a 	adrp	x26, f03d <g_fmtcmdfailed>	8fd8: R_AARCH64_ADR_PREL_PG_HI21	g_fmtcmdfailed
    8fdc:	91000339 	add	x25, x25, #0x0	8fdc: R_AARCH64_ADD_ABS_LO12_NC	.rodata+0x1711
    8fe0:	9100035a 	add	x26, x26, #0x0	8fe0: R_AARCH64_ADD_ABS_LO12_NC	g_fmtcmdfailed
    8fe4:	aa1503e1 	mov	x1, x21
    8fe8:	2a1603e0 	mov	w0, w22
    8fec:	d2804002 	mov	x2, #0x200                 	// #512
    8ff0:	94000000 	bl	ea70 <read>	8ff0: R_AARCH64_CALL26	read
    8ff4:	2a0003fb 	mov	w27, w0
    8ff8:	7100001f 	cmp	w0, #0x0
    8ffc:	5400042a 	b.ge	9080 <nsh_catfile+0x170>  // b.tcont
    9000:	94000000 	bl	2454 <__errno>	9000: R_AARCH64_CALL26	__errno
    9004:	b9400004 	ldr	w4, [x0]
    9008:	f9401a65 	ldr	x5, [x19, #48]
    900c:	7100109f 	cmp	w4, #0x4
    9010:	54000281 	b.ne	9060 <nsh_catfile+0x150>  // b.any
    9014:	90000001 	adrp	x1, efec <g_fmtsignalrecvd>	9014: R_AARCH64_ADR_PREL_PG_HI21	g_fmtsignalrecvd
    9018:	aa1403e2 	mov	x2, x20
    901c:	91000021 	add	x1, x1, #0x0	901c: R_AARCH64_ADD_ABS_LO12_NC	g_fmtsignalrecvd
    9020:	aa1303e0 	mov	x0, x19
    9024:	d63f00a0 	blr	x5
    9028:	12800018 	mov	w24, #0xffffffff            	// #-1
    902c:	2a1603e0 	mov	w0, w22
    9030:	94000000 	bl	e814 <close>	9030: R_AARCH64_CALL26	close
    9034:	aa1503e0 	mov	x0, x21
    9038:	94000000 	bl	b598 <free>	9038: R_AARCH64_CALL26	free
    903c:	17ffffd9 	b	8fa0 <nsh_catfile+0x90>
    9040:	2a1603e0 	mov	w0, w22
    9044:	94000000 	bl	e814 <close>	9044: R_AARCH64_CALL26	close
    9048:	f9401a75 	ldr	x21, [x19, #48]
    904c:	94000000 	bl	2454 <__errno>	904c: R_AARCH64_CALL26	__errno
    9050:	90000003 	adrp	x3, ebb8 <_srodata>	9050: R_AARCH64_ADR_PREL_PG_HI21	.rodata+0x1705
    9054:	b9400004 	ldr	w4, [x0]
    9058:	91000063 	add	x3, x3, #0x0	9058: R_AARCH64_ADD_ABS_LO12_NC	.rodata+0x1705
    905c:	17ffffcb 	b	8f88 <nsh_catfile+0x78>
    9060:	aa1403e2 	mov	x2, x20
    9064:	aa1303e0 	mov	x0, x19
    9068:	90000003 	adrp	x3, ebb8 <_srodata>	9068: R_AARCH64_ADR_PREL_PG_HI21	.rodata+0x170c
    906c:	90000001 	adrp	x1, f03d <g_fmtcmdfailed>	906c: R_AARCH64_ADR_PREL_PG_HI21	g_fmtcmdfailed
    9070:	91000063 	add	x3, x3, #0x0	9070: R_AARCH64_ADD_ABS_LO12_NC	.rodata+0x170c
    9074:	91000021 	add	x1, x1, #0x0	9074: R_AARCH64_ADD_ABS_LO12_NC	g_fmtcmdfailed
    9078:	d63f00a0 	blr	x5
    907c:	17ffffeb 	b	9028 <nsh_catfile+0x118>
    9080:	54fffd60 	b.eq	902c <nsh_catfile+0x11c>  // b.none
    9084:	52800017 	mov	w23, #0x0                   	// #0
    9088:	f9400e63 	ldr	x3, [x19, #24]
    908c:	4b170362 	sub	w2, w27, w23
    9090:	8b37c2a1 	add	x1, x21, w23, sxtw
    9094:	aa1303e0 	mov	x0, x19
    9098:	93407c42 	sxtw	x2, w2
    909c:	d63f0060 	blr	x3
    90a0:	b6f80260 	tbz	x0, #63, 90ec <nsh_catfile+0x1dc>
    90a4:	94000000 	bl	2454 <__errno>	90a4: R_AARCH64_CALL26	__errno
    90a8:	b9400004 	ldr	w4, [x0]
    90ac:	f9401a65 	ldr	x5, [x19, #48]
    90b0:	7100109f 	cmp	w4, #0x4
    90b4:	54000101 	b.ne	90d4 <nsh_catfile+0x1c4>  // b.any
    90b8:	90000001 	adrp	x1, efec <g_fmtsignalrecvd>	90b8: R_AARCH64_ADR_PREL_PG_HI21	g_fmtsignalrecvd
    90bc:	aa1403e2 	mov	x2, x20
    90c0:	91000021 	add	x1, x1, #0x0	90c0: R_AARCH64_ADD_ABS_LO12_NC	g_fmtsignalrecvd
    90c4:	aa1303e0 	mov	x0, x19
    90c8:	d63f00a0 	blr	x5
    90cc:	12800018 	mov	w24, #0xffffffff            	// #-1
    90d0:	17ffffc5 	b	8fe4 <nsh_catfile+0xd4>
    90d4:	aa1903e3 	mov	x3, x25
    90d8:	aa1403e2 	mov	x2, x20
    90dc:	aa1a03e1 	mov	x1, x26
    90e0:	aa1303e0 	mov	x0, x19
    90e4:	d63f00a0 	blr	x5
    90e8:	17fffff9 	b	90cc <nsh_catfile+0x1bc>
    90ec:	0b0002f7 	add	w23, w23, w0
    90f0:	6b17037f 	cmp	w27, w23
    90f4:	54fffcac 	b.gt	9088 <nsh_catfile+0x178>
    90f8:	17ffffbb 	b	8fe4 <nsh_catfile+0xd4>

00000000000090fc <nsh_readfile>:
nsh_readfile():
    90fc:	a9bb4ffe 	stp	x30, x19, [sp, #-80]!
    9100:	aa0003f3 	mov	x19, x0
    9104:	aa0203e0 	mov	x0, x2
    9108:	a90157f4 	stp	x20, x21, [sp, #16]
    910c:	aa0303f5 	mov	x21, x3
    9110:	a9025ff6 	stp	x22, x23, [sp, #32]
    9114:	aa0403f6 	mov	x22, x4
    9118:	a90367f8 	stp	x24, x25, [sp, #48]
    911c:	aa0103f8 	mov	x24, x1
    9120:	52808021 	mov	w1, #0x401                 	// #1025
    9124:	f90023fa 	str	x26, [sp, #64]
    9128:	94000000 	bl	e9c0 <open>	9128: R_AARCH64_CALL26	open
    912c:	36f80260 	tbz	w0, #31, 9178 <nsh_readfile+0x7c>
    9130:	f9401a74 	ldr	x20, [x19, #48]
    9134:	94000000 	bl	2454 <__errno>	9134: R_AARCH64_CALL26	__errno
    9138:	b9400004 	ldr	w4, [x0]
    913c:	aa1303e0 	mov	x0, x19
    9140:	12800013 	mov	w19, #0xffffffff            	// #-1
    9144:	aa1803e2 	mov	x2, x24
    9148:	90000003 	adrp	x3, ebb8 <_srodata>	9148: R_AARCH64_ADR_PREL_PG_HI21	.rodata+0x1700
    914c:	90000001 	adrp	x1, f03d <g_fmtcmdfailed>	914c: R_AARCH64_ADR_PREL_PG_HI21	g_fmtcmdfailed
    9150:	91000063 	add	x3, x3, #0x0	9150: R_AARCH64_ADD_ABS_LO12_NC	.rodata+0x1700
    9154:	91000021 	add	x1, x1, #0x0	9154: R_AARCH64_ADD_ABS_LO12_NC	g_fmtcmdfailed
    9158:	d63f0280 	blr	x20
    915c:	f94023fa 	ldr	x26, [sp, #64]
    9160:	2a1303e0 	mov	w0, w19
    9164:	a94157f4 	ldp	x20, x21, [sp, #16]
    9168:	a9425ff6 	ldp	x22, x23, [sp, #32]
    916c:	a94367f8 	ldp	x24, x25, [sp, #48]
    9170:	a8c54ffe 	ldp	x30, x19, [sp], #80
    9174:	d65f03c0 	ret
    9178:	2a0003f4 	mov	w20, w0
    917c:	d10006d7 	sub	x23, x22, #0x1
    9180:	aa1503f9 	mov	x25, x21
    9184:	d280001a 	mov	x26, #0x0                   	// #0
    9188:	390002bf 	strb	wzr, [x21]
    918c:	aa1703e2 	mov	x2, x23
    9190:	aa1903e1 	mov	x1, x25
    9194:	2a1403e0 	mov	w0, w20
    9198:	94000000 	bl	ea70 <read>	9198: R_AARCH64_CALL26	read
    919c:	f100001f 	cmp	x0, #0x0
    91a0:	5400036a 	b.ge	920c <nsh_readfile+0x110>  // b.tcont
    91a4:	94000000 	bl	2454 <__errno>	91a4: R_AARCH64_CALL26	__errno
    91a8:	b9400000 	ldr	w0, [x0]
    91ac:	7100001f 	cmp	w0, #0x0
    91b0:	540000ec 	b.gt	91cc <nsh_readfile+0xd0>
    91b4:	90000002 	adrp	x2, ebb8 <_srodata>	91b4: R_AARCH64_ADR_PREL_PG_HI21	.rodata+0x1717
    91b8:	91000042 	add	x2, x2, #0x0	91b8: R_AARCH64_ADD_ABS_LO12_NC	.rodata+0x1717
    91bc:	52802841 	mov	w1, #0x142                 	// #322
    91c0:	90000000 	adrp	x0, ebb8 <_srodata>	91c0: R_AARCH64_ADR_PREL_PG_HI21	.rodata+0x1723
    91c4:	91000000 	add	x0, x0, #0x0	91c4: R_AARCH64_ADD_ABS_LO12_NC	.rodata+0x1723
    91c8:	94000000 	bl	2444 <__assert>	91c8: R_AARCH64_CALL26	__assert
    91cc:	7100101f 	cmp	w0, #0x4
    91d0:	54000340 	b.eq	9238 <nsh_readfile+0x13c>  // b.none
    91d4:	f9401a75 	ldr	x21, [x19, #48]
    91d8:	94000000 	bl	2454 <__errno>	91d8: R_AARCH64_CALL26	__errno
    91dc:	b9400004 	ldr	w4, [x0]
    91e0:	90000003 	adrp	x3, ebb8 <_srodata>	91e0: R_AARCH64_ADR_PREL_PG_HI21	.rodata+0x170c
    91e4:	90000001 	adrp	x1, f03d <g_fmtcmdfailed>	91e4: R_AARCH64_ADR_PREL_PG_HI21	g_fmtcmdfailed
    91e8:	91000063 	add	x3, x3, #0x0	91e8: R_AARCH64_ADD_ABS_LO12_NC	.rodata+0x170c
    91ec:	aa1803e2 	mov	x2, x24
    91f0:	91000021 	add	x1, x1, #0x0	91f0: R_AARCH64_ADD_ABS_LO12_NC	g_fmtcmdfailed
    91f4:	aa1303e0 	mov	x0, x19
    91f8:	d63f02a0 	blr	x21
    91fc:	12800013 	mov	w19, #0xffffffff            	// #-1
    9200:	2a1403e0 	mov	w0, w20
    9204:	94000000 	bl	e814 <close>	9204: R_AARCH64_CALL26	close
    9208:	17ffffd5 	b	915c <nsh_readfile+0x60>
    920c:	540001a0 	b.eq	9240 <nsh_readfile+0x144>  // b.none
    9210:	eb0002ff 	cmp	x23, x0
    9214:	540000aa 	b.ge	9228 <nsh_readfile+0x12c>  // b.tcont
    9218:	90000002 	adrp	x2, ebb8 <_srodata>	9218: R_AARCH64_ADR_PREL_PG_HI21	.rodata+0x1731
    921c:	52802b61 	mov	w1, #0x15b                 	// #347
    9220:	91000042 	add	x2, x2, #0x0	9220: R_AARCH64_ADD_ABS_LO12_NC	.rodata+0x1731
    9224:	17ffffe7 	b	91c0 <nsh_readfile+0xc4>
    9228:	8b00035a 	add	x26, x26, x0
    922c:	8b000339 	add	x25, x25, x0
    9230:	cb0002f7 	sub	x23, x23, x0
    9234:	383a6abf 	strb	wzr, [x21, x26]
    9238:	b5fffab6 	cbnz	x22, 918c <nsh_readfile+0x90>
    923c:	17fffff0 	b	91fc <nsh_readfile+0x100>
    9240:	52800013 	mov	w19, #0x0                   	// #0
    9244:	17ffffef 	b	9200 <nsh_readfile+0x104>

0000000000009248 <nsh_writefile>:
nsh_writefile():
    9248:	a9bc4ffe 	stp	x30, x19, [sp, #-64]!
    924c:	aa0003f3 	mov	x19, x0
    9250:	aa0403e0 	mov	x0, x4
    9254:	a90157f4 	stp	x20, x21, [sp, #16]
    9258:	aa0103f4 	mov	x20, x1
    925c:	aa0403f5 	mov	x21, x4
    9260:	52808041 	mov	w1, #0x402                 	// #1026
    9264:	a9025ff6 	stp	x22, x23, [sp, #32]
    9268:	aa0203f7 	mov	x23, x2
    926c:	f9001bf8 	str	x24, [sp, #48]
    9270:	aa0303f8 	mov	x24, x3
    9274:	94000000 	bl	e9c0 <open>	9274: R_AARCH64_CALL26	open
    9278:	36f803c0 	tbz	w0, #31, 92f0 <nsh_writefile+0xa8>
    927c:	90000001 	adrp	x1, ebb8 <_srodata>	927c: R_AARCH64_ADR_PREL_PG_HI21	.rodata+0x16c9
    9280:	aa1503e0 	mov	x0, x21
    9284:	91000021 	add	x1, x1, #0x0	9284: R_AARCH64_ADD_ABS_LO12_NC	.rodata+0x16c9
    9288:	d28000a2 	mov	x2, #0x5                   	// #5
    928c:	94000000 	bl	a9c <strncmp>	928c: R_AARCH64_CALL26	strncmp
    9290:	35000100 	cbnz	w0, 92b0 <nsh_writefile+0x68>
    9294:	f9401a64 	ldr	x4, [x19, #48]
    9298:	90000001 	adrp	x1, ebb8 <_srodata>	9298: R_AARCH64_ADR_PREL_PG_HI21	.rodata+0x16cf
    929c:	aa1503e3 	mov	x3, x21
    92a0:	aa1403e2 	mov	x2, x20
    92a4:	91000021 	add	x1, x1, #0x0	92a4: R_AARCH64_ADD_ABS_LO12_NC	.rodata+0x16cf
    92a8:	aa1303e0 	mov	x0, x19
    92ac:	d63f0080 	blr	x4
    92b0:	f9401a75 	ldr	x21, [x19, #48]
    92b4:	94000000 	bl	2454 <__errno>	92b4: R_AARCH64_CALL26	__errno
    92b8:	b9400004 	ldr	w4, [x0]
    92bc:	aa1403e2 	mov	x2, x20
    92c0:	aa1303e0 	mov	x0, x19
    92c4:	90000003 	adrp	x3, ebb8 <_srodata>	92c4: R_AARCH64_ADR_PREL_PG_HI21	.rodata+0x1700
    92c8:	90000001 	adrp	x1, f03d <g_fmtcmdfailed>	92c8: R_AARCH64_ADR_PREL_PG_HI21	g_fmtcmdfailed
    92cc:	91000063 	add	x3, x3, #0x0	92cc: R_AARCH64_ADD_ABS_LO12_NC	.rodata+0x1700
    92d0:	91000021 	add	x1, x1, #0x0	92d0: R_AARCH64_ADD_ABS_LO12_NC	g_fmtcmdfailed
    92d4:	d63f02a0 	blr	x21
    92d8:	12800000 	mov	w0, #0xffffffff            	// #-1
    92dc:	f9401bf8 	ldr	x24, [sp, #48]
    92e0:	a94157f4 	ldp	x20, x21, [sp, #16]
    92e4:	a9425ff6 	ldp	x22, x23, [sp, #32]
    92e8:	a8c44ffe 	ldp	x30, x19, [sp], #64
    92ec:	d65f03c0 	ret
    92f0:	2a0003f6 	mov	w22, w0
    92f4:	aa1803e2 	mov	x2, x24
    92f8:	aa1703e1 	mov	x1, x23
    92fc:	94000000 	bl	2fe0 <write>	92fc: R_AARCH64_CALL26	write
    9300:	aa0003f5 	mov	x21, x0
    9304:	36f80160 	tbz	w0, #31, 9330 <nsh_writefile+0xe8>
    9308:	f9401a77 	ldr	x23, [x19, #48]
    930c:	94000000 	bl	2454 <__errno>	930c: R_AARCH64_CALL26	__errno
    9310:	b9400004 	ldr	w4, [x0]
    9314:	90000003 	adrp	x3, ebb8 <_srodata>	9314: R_AARCH64_ADR_PREL_PG_HI21	.rodata+0x1711
    9318:	90000001 	adrp	x1, f03d <g_fmtcmdfailed>	9318: R_AARCH64_ADR_PREL_PG_HI21	g_fmtcmdfailed
    931c:	91000063 	add	x3, x3, #0x0	931c: R_AARCH64_ADD_ABS_LO12_NC	.rodata+0x1711
    9320:	aa1403e2 	mov	x2, x20
    9324:	91000021 	add	x1, x1, #0x0	9324: R_AARCH64_ADD_ABS_LO12_NC	g_fmtcmdfailed
    9328:	aa1303e0 	mov	x0, x19
    932c:	d63f02e0 	blr	x23
    9330:	2a1603e0 	mov	w0, w22
    9334:	94000000 	bl	e814 <close>	9334: R_AARCH64_CALL26	close
    9338:	710002bf 	cmp	w21, #0x0
    933c:	5a9fc3e0 	csetm	w0, le
    9340:	17ffffe7 	b	92dc <nsh_writefile+0x94>

0000000000009344 <nsh_foreach_direntry>:
nsh_foreach_direntry():
    9344:	a9bc4ffe 	stp	x30, x19, [sp, #-64]!
    9348:	aa0003f3 	mov	x19, x0
    934c:	aa0203e0 	mov	x0, x2
    9350:	a90157f4 	stp	x20, x21, [sp, #16]
    9354:	aa0203f4 	mov	x20, x2
    9358:	a9025ff6 	stp	x22, x23, [sp, #32]
    935c:	aa0103f6 	mov	x22, x1
    9360:	aa0303f7 	mov	x23, x3
    9364:	f9001bf8 	str	x24, [sp, #48]
    9368:	aa0403f8 	mov	x24, x4
    936c:	94000000 	bl	ca9c <opendir>	936c: R_AARCH64_CALL26	opendir
    9370:	b50003e0 	cbnz	x0, 93ec <nsh_foreach_direntry+0xa8>
    9374:	90000001 	adrp	x1, ebb8 <_srodata>	9374: R_AARCH64_ADR_PREL_PG_HI21	.rodata+0x16c9
    9378:	aa1403e0 	mov	x0, x20
    937c:	91000021 	add	x1, x1, #0x0	937c: R_AARCH64_ADD_ABS_LO12_NC	.rodata+0x16c9
    9380:	d28000a2 	mov	x2, #0x5                   	// #5
    9384:	94000000 	bl	a9c <strncmp>	9384: R_AARCH64_CALL26	strncmp
    9388:	35000100 	cbnz	w0, 93a8 <nsh_foreach_direntry+0x64>
    938c:	f9401a64 	ldr	x4, [x19, #48]
    9390:	90000001 	adrp	x1, ebb8 <_srodata>	9390: R_AARCH64_ADR_PREL_PG_HI21	.rodata+0x16cf
    9394:	aa1403e3 	mov	x3, x20
    9398:	aa1603e2 	mov	x2, x22
    939c:	91000021 	add	x1, x1, #0x0	939c: R_AARCH64_ADD_ABS_LO12_NC	.rodata+0x16cf
    93a0:	aa1303e0 	mov	x0, x19
    93a4:	d63f0080 	blr	x4
    93a8:	f9401a74 	ldr	x20, [x19, #48]
    93ac:	94000000 	bl	2454 <__errno>	93ac: R_AARCH64_CALL26	__errno
    93b0:	b9400004 	ldr	w4, [x0]
    93b4:	aa1303e0 	mov	x0, x19
    93b8:	12800013 	mov	w19, #0xffffffff            	// #-1
    93bc:	aa1603e2 	mov	x2, x22
    93c0:	90000003 	adrp	x3, ebb8 <_srodata>	93c0: R_AARCH64_ADR_PREL_PG_HI21	.rodata+0x174d
    93c4:	90000001 	adrp	x1, f03d <g_fmtcmdfailed>	93c4: R_AARCH64_ADR_PREL_PG_HI21	g_fmtcmdfailed
    93c8:	91000063 	add	x3, x3, #0x0	93c8: R_AARCH64_ADD_ABS_LO12_NC	.rodata+0x174d
    93cc:	91000021 	add	x1, x1, #0x0	93cc: R_AARCH64_ADD_ABS_LO12_NC	g_fmtcmdfailed
    93d0:	d63f0280 	blr	x20
    93d4:	f9401bf8 	ldr	x24, [sp, #48]
    93d8:	2a1303e0 	mov	w0, w19
    93dc:	a94157f4 	ldp	x20, x21, [sp, #16]
    93e0:	a9425ff6 	ldp	x22, x23, [sp, #32]
    93e4:	a8c44ffe 	ldp	x30, x19, [sp], #64
    93e8:	d65f03c0 	ret
    93ec:	aa0003f5 	mov	x21, x0
    93f0:	aa1503e0 	mov	x0, x21
    93f4:	94000000 	bl	cb44 <readdir>	93f4: R_AARCH64_CALL26	readdir
    93f8:	aa0003e2 	mov	x2, x0
    93fc:	b4000140 	cbz	x0, 9424 <nsh_foreach_direntry+0xe0>
    9400:	aa1803e3 	mov	x3, x24
    9404:	aa1403e1 	mov	x1, x20
    9408:	aa1303e0 	mov	x0, x19
    940c:	d63f02e0 	blr	x23
    9410:	36ffff00 	tbz	w0, #31, 93f0 <nsh_foreach_direntry+0xac>
    9414:	12800013 	mov	w19, #0xffffffff            	// #-1
    9418:	aa1503e0 	mov	x0, x21
    941c:	94000000 	bl	cafc <closedir>	941c: R_AARCH64_CALL26	closedir
    9420:	17ffffed 	b	93d4 <nsh_foreach_direntry+0x90>
    9424:	52800013 	mov	w19, #0x0                   	// #0
    9428:	17fffffc 	b	9418 <nsh_foreach_direntry+0xd4>

000000000000942c <nsh_trimdir>:
nsh_trimdir():
    942c:	a9bf4ffe 	stp	x30, x19, [sp, #-16]!
    9430:	aa0003f3 	mov	x19, x0
    9434:	94000000 	bl	940 <strlen>	9434: R_AARCH64_CALL26	strlen
    9438:	51000401 	sub	w1, w0, #0x1
    943c:	93407c21 	sxtw	x1, w1
    9440:	7100003f 	cmp	w1, #0x0
    9444:	5400008d 	b.le	9454 <nsh_trimdir+0x28>
    9448:	38616a60 	ldrb	w0, [x19, x1]
    944c:	7100bc1f 	cmp	w0, #0x2f
    9450:	54000060 	b.eq	945c <nsh_trimdir+0x30>  // b.none
    9454:	a8c14ffe 	ldp	x30, x19, [sp], #16
    9458:	d65f03c0 	ret
    945c:	38216a7f 	strb	wzr, [x19, x1]
    9460:	d1000421 	sub	x1, x1, #0x1
    9464:	17fffff7 	b	9440 <nsh_trimdir+0x14>

0000000000009468 <nsh_trimspaces>:
nsh_trimspaces():
    9468:	a9be4ffe 	stp	x30, x19, [sp, #-32]!
    946c:	aa0003f3 	mov	x19, x0
    9470:	f9000bf4 	str	x20, [sp, #16]
    9474:	39400260 	ldrb	w0, [x19]
    9478:	350001a0 	cbnz	w0, 94ac <nsh_trimspaces+0x44>
    947c:	aa1303e0 	mov	x0, x19
    9480:	94000000 	bl	940 <strlen>	9480: R_AARCH64_CALL26	strlen
    9484:	51000414 	sub	w20, w0, #0x1
    9488:	93407e94 	sxtw	x20, w20
    948c:	37f80094 	tbnz	w20, #31, 949c <nsh_trimspaces+0x34>
    9490:	38746a60 	ldrb	w0, [x19, x20]
    9494:	94000000 	bl	ca48 <isspace>	9494: R_AARCH64_CALL26	isspace
    9498:	35000120 	cbnz	w0, 94bc <nsh_trimspaces+0x54>
    949c:	f9400bf4 	ldr	x20, [sp, #16]
    94a0:	aa1303e0 	mov	x0, x19
    94a4:	a8c24ffe 	ldp	x30, x19, [sp], #32
    94a8:	d65f03c0 	ret
    94ac:	94000000 	bl	ca48 <isspace>	94ac: R_AARCH64_CALL26	isspace
    94b0:	34fffe60 	cbz	w0, 947c <nsh_trimspaces+0x14>
    94b4:	91000673 	add	x19, x19, #0x1
    94b8:	17ffffef 	b	9474 <nsh_trimspaces+0xc>
    94bc:	38346a7f 	strb	wzr, [x19, x20]
    94c0:	d1000694 	sub	x20, x20, #0x1
    94c4:	17fffff2 	b	948c <nsh_trimspaces+0x24>

00000000000094c8 <nsh_getdirpath>:
nsh_getdirpath():
    94c8:	a9be4ffe 	stp	x30, x19, [sp, #-32]!
    94cc:	aa0003f3 	mov	x19, x0
    94d0:	91018273 	add	x19, x19, #0x60
    94d4:	a90157f4 	stp	x20, x21, [sp, #16]
    94d8:	aa0103f4 	mov	x20, x1
    94dc:	aa0203f5 	mov	x21, x2
    94e0:	aa1403e0 	mov	x0, x20
    94e4:	90000001 	adrp	x1, ebb8 <_srodata>	94e4: R_AARCH64_ADR_PREL_PG_HI21	.rodata+0x1755
    94e8:	91000021 	add	x1, x1, #0x0	94e8: R_AARCH64_ADD_ABS_LO12_NC	.rodata+0x1755
    94ec:	94000000 	bl	680 <strcmp>	94ec: R_AARCH64_CALL26	strcmp
    94f0:	350001a0 	cbnz	w0, 9524 <nsh_getdirpath+0x5c>
    94f4:	90000002 	adrp	x2, ebb8 <_srodata>	94f4: R_AARCH64_ADR_PREL_PG_HI21	.rodata+0x1757
    94f8:	aa1503e3 	mov	x3, x21
    94fc:	91000042 	add	x2, x2, #0x0	94fc: R_AARCH64_ADD_ABS_LO12_NC	.rodata+0x1757
    9500:	aa1303e0 	mov	x0, x19
    9504:	d2804001 	mov	x1, #0x200                 	// #512
    9508:	94000000 	bl	d04c <snprintf>	9508: R_AARCH64_CALL26	snprintf
    950c:	a94157f4 	ldp	x20, x21, [sp, #16]
    9510:	aa1303e0 	mov	x0, x19
    9514:	a8c24ffe 	ldp	x30, x19, [sp], #32
    9518:	52800022 	mov	w2, #0x1                   	// #1
    951c:	d2800001 	mov	x1, #0x0                   	// #0
    9520:	14000000 	b	d384 <lib_realpath>	9520: R_AARCH64_JUMP26	lib_realpath
    9524:	aa1503e4 	mov	x4, x21
    9528:	aa1403e3 	mov	x3, x20
    952c:	aa1303e0 	mov	x0, x19
    9530:	90000002 	adrp	x2, ebb8 <_srodata>	9530: R_AARCH64_ADR_PREL_PG_HI21	.rodata+0x175b
    9534:	d2804001 	mov	x1, #0x200                 	// #512
    9538:	91000042 	add	x2, x2, #0x0	9538: R_AARCH64_ADD_ABS_LO12_NC	.rodata+0x175b
    953c:	94000000 	bl	d04c <snprintf>	953c: R_AARCH64_CALL26	snprintf
    9540:	17fffff3 	b	950c <nsh_getdirpath+0x44>

0000000000009544 <nsh_getpid>:
nsh_getpid():
    9544:	f81d0ffe 	str	x30, [sp, #-48]!
    9548:	f100003f 	cmp	x1, #0x0
    954c:	fa401844 	ccmp	x2, #0x0, #0x4, ne	// ne = any
    9550:	a9010be1 	stp	x1, x2, [sp, #16]
    9554:	a9027fe3 	stp	x3, xzr, [sp, #32]
    9558:	54000180 	b.eq	9588 <nsh_getpid+0x44>  // b.none
    955c:	910043e4 	add	x4, sp, #0x10
    9560:	90000003 	adrp	x3, 0 <memcpy>	9560: R_AARCH64_ADR_PREL_PG_HI21	.text+0x8df0
    9564:	90000002 	adrp	x2, ebb8 <_srodata>	9564: R_AARCH64_ADR_PREL_PG_HI21	.rodata+0x16c9
    9568:	91000063 	add	x3, x3, #0x0	9568: R_AARCH64_ADD_ABS_LO12_NC	.text+0x8df0
    956c:	91000042 	add	x2, x2, #0x0	956c: R_AARCH64_ADD_ABS_LO12_NC	.rodata+0x16c9
    9570:	90000001 	adrp	x1, ebb8 <_srodata>	9570: R_AARCH64_ADR_PREL_PG_HI21	.rodata+0x1761
    9574:	91000021 	add	x1, x1, #0x0	9574: R_AARCH64_ADD_ABS_LO12_NC	.rodata+0x1761
    9578:	94000000 	bl	9344 <nsh_foreach_direntry>	9578: R_AARCH64_CALL26	nsh_foreach_direntry
    957c:	f94017e0 	ldr	x0, [sp, #40]
    9580:	f84307fe 	ldr	x30, [sp], #48
    9584:	d65f03c0 	ret
    9588:	928002a0 	mov	x0, #0xffffffffffffffea    	// #-22
    958c:	17fffffd 	b	9580 <nsh_getpid+0x3c>

0000000000009590 <cmd_free>:
cmd_free():
    9590:	aa0203e1 	mov	x1, x2
    9594:	90000002 	adrp	x2, ebb8 <_srodata>	9594: R_AARCH64_ADR_PREL_PG_HI21	.rodata+0x1767
    9598:	91000042 	add	x2, x2, #0x0	9598: R_AARCH64_ADD_ABS_LO12_NC	.rodata+0x1767
    959c:	f9400021 	ldr	x1, [x1]
    95a0:	14000000 	b	8f10 <nsh_catfile>	95a0: R_AARCH64_JUMP26	nsh_catfile

00000000000095a4 <cmd_memdump>:
cmd_memdump():
    95a4:	a9bc4ffe 	stp	x30, x19, [sp, #-64]!
    95a8:	a90157f4 	stp	x20, x21, [sp, #16]
    95ac:	aa0203f4 	mov	x20, x2
    95b0:	a9025ff6 	stp	x22, x23, [sp, #32]
    95b4:	aa0003f7 	mov	x23, x0
    95b8:	2a0103f6 	mov	w22, w1
    95bc:	d2800a00 	mov	x0, #0x50                  	// #80
    95c0:	a90367f8 	stp	x24, x25, [sp, #48]
    95c4:	94000000 	bl	ccfc <lib_get_tempbuffer>	95c4: R_AARCH64_CALL26	lib_get_tempbuffer
    95c8:	b4000800 	cbz	x0, 96c8 <cmd_memdump+0x124>
    95cc:	3900001f 	strb	wzr, [x0]
    95d0:	aa0003f3 	mov	x19, x0
    95d4:	710006df 	cmp	w22, #0x1
    95d8:	540001e1 	b.ne	9614 <cmd_memdump+0x70>  // b.any
    95dc:	90000001 	adrp	x1, ebb8 <_srodata>	95dc: R_AARCH64_ADR_PREL_PG_HI21	.rodata+0x1775
    95e0:	d2800a02 	mov	x2, #0x50                  	// #80
    95e4:	91000021 	add	x1, x1, #0x0	95e4: R_AARCH64_ADD_ABS_LO12_NC	.rodata+0x1775
    95e8:	94000000 	bl	dc70 <strlcpy>	95e8: R_AARCH64_CALL26	strlcpy
    95ec:	aa1303e0 	mov	x0, x19
    95f0:	94000000 	bl	940 <strlen>	95f0: R_AARCH64_CALL26	strlen
    95f4:	f9400281 	ldr	x1, [x20]
    95f8:	aa0003e3 	mov	x3, x0
    95fc:	aa1303e2 	mov	x2, x19
    9600:	aa1703e0 	mov	x0, x23
    9604:	90000004 	adrp	x4, ebb8 <_srodata>	9604: R_AARCH64_ADR_PREL_PG_HI21	.rodata+0x1782
    9608:	91000084 	add	x4, x4, #0x0	9608: R_AARCH64_ADD_ABS_LO12_NC	.rodata+0x1782
    960c:	94000000 	bl	9248 <nsh_writefile>	960c: R_AARCH64_CALL26	nsh_writefile
    9610:	14000012 	b	9658 <cmd_memdump+0xb4>
    9614:	5400050d 	b.le	96b4 <cmd_memdump+0x110>
    9618:	f9400695 	ldr	x21, [x20, #8]
    961c:	90000001 	adrp	x1, ebb8 <_srodata>	961c: R_AARCH64_ADR_PREL_PG_HI21	.rodata+0x177a
    9620:	91000021 	add	x1, x1, #0x0	9620: R_AARCH64_ADD_ABS_LO12_NC	.rodata+0x177a
    9624:	aa1503e0 	mov	x0, x21
    9628:	94000000 	bl	680 <strcmp>	9628: R_AARCH64_CALL26	strcmp
    962c:	340000c0 	cbz	w0, 9644 <cmd_memdump+0xa0>
    9630:	90000001 	adrp	x1, ebb8 <_srodata>	9630: R_AARCH64_ADR_PREL_PG_HI21	.rodata+0x177d
    9634:	aa1503e0 	mov	x0, x21
    9638:	91000021 	add	x1, x1, #0x0	9638: R_AARCH64_ADD_ABS_LO12_NC	.rodata+0x177d
    963c:	94000000 	bl	680 <strcmp>	963c: R_AARCH64_CALL26	strcmp
    9640:	350003a0 	cbnz	w0, 96b4 <cmd_memdump+0x110>
    9644:	f9400281 	ldr	x1, [x20]
    9648:	90000002 	adrp	x2, ebb8 <_srodata>	9648: R_AARCH64_ADR_PREL_PG_HI21	.rodata+0x1782
    964c:	aa1703e0 	mov	x0, x23
    9650:	91000042 	add	x2, x2, #0x0	9650: R_AARCH64_ADD_ABS_LO12_NC	.rodata+0x1782
    9654:	94000000 	bl	8f10 <nsh_catfile>	9654: R_AARCH64_CALL26	nsh_catfile
    9658:	2a0003f4 	mov	w20, w0
    965c:	aa1303e0 	mov	x0, x19
    9660:	94000000 	bl	cd8c <lib_put_tempbuffer>	9660: R_AARCH64_CALL26	lib_put_tempbuffer
    9664:	2a1403e0 	mov	w0, w20
    9668:	a94157f4 	ldp	x20, x21, [sp, #16]
    966c:	a9425ff6 	ldp	x22, x23, [sp, #32]
    9670:	a94367f8 	ldp	x24, x25, [sp, #48]
    9674:	a8c44ffe 	ldp	x30, x19, [sp], #64
    9678:	d65f03c0 	ret
    967c:	f8757a81 	ldr	x1, [x20, x21, lsl #3]
    9680:	aa1303e0 	mov	x0, x19
    9684:	d2800a02 	mov	x2, #0x50                  	// #80
    9688:	94000000 	bl	dbf4 <strlcat>	9688: R_AARCH64_CALL26	strlcat
    968c:	6b15033f 	cmp	w25, w21
    9690:	540000ad 	b.le	96a4 <cmd_memdump+0x100>
    9694:	aa1803e1 	mov	x1, x24
    9698:	aa1303e0 	mov	x0, x19
    969c:	d2800a02 	mov	x2, #0x50                  	// #80
    96a0:	94000000 	bl	dbf4 <strlcat>	96a0: R_AARCH64_CALL26	strlcat
    96a4:	910006b5 	add	x21, x21, #0x1
    96a8:	6b1502df 	cmp	w22, w21
    96ac:	54fffe8c 	b.gt	967c <cmd_memdump+0xd8>
    96b0:	17ffffcf 	b	95ec <cmd_memdump+0x48>
    96b4:	90000018 	adrp	x24, ebb8 <_srodata>	96b4: R_AARCH64_ADR_PREL_PG_HI21	.rodata+0x1790
    96b8:	510006d9 	sub	w25, w22, #0x1
    96bc:	91000318 	add	x24, x24, #0x0	96bc: R_AARCH64_ADD_ABS_LO12_NC	.rodata+0x1790
    96c0:	d2800035 	mov	x21, #0x1                   	// #1
    96c4:	17fffff9 	b	96a8 <cmd_memdump+0x104>
    96c8:	12800174 	mov	w20, #0xfffffff4            	// #-12
    96cc:	17ffffe6 	b	9664 <cmd_memdump+0xc0>

00000000000096d0 <cmd_df>:
cmd_df():
    96d0:	a9be4ffe 	stp	x30, x19, [sp, #-32]!
    96d4:	aa0003f3 	mov	x19, x0
    96d8:	f9000bf4 	str	x20, [sp, #16]
    96dc:	f9400054 	ldr	x20, [x2]
    96e0:	7100043f 	cmp	w1, #0x1
    96e4:	540001ad 	b.le	9718 <cmd_df+0x48>
    96e8:	f9400440 	ldr	x0, [x2, #8]
    96ec:	90000001 	adrp	x1, ebb8 <_srodata>	96ec: R_AARCH64_ADR_PREL_PG_HI21	.rodata+0x1792
    96f0:	91000021 	add	x1, x1, #0x0	96f0: R_AARCH64_ADD_ABS_LO12_NC	.rodata+0x1792
    96f4:	94000000 	bl	680 <strcmp>	96f4: R_AARCH64_CALL26	strcmp
    96f8:	35000100 	cbnz	w0, 9718 <cmd_df+0x48>
    96fc:	90000002 	adrp	x2, ebb8 <_srodata>	96fc: R_AARCH64_ADR_PREL_PG_HI21	.rodata+0x1795
    9700:	91000042 	add	x2, x2, #0x0	9700: R_AARCH64_ADD_ABS_LO12_NC	.rodata+0x1795
    9704:	aa1403e1 	mov	x1, x20
    9708:	aa1303e0 	mov	x0, x19
    970c:	f9400bf4 	ldr	x20, [sp, #16]
    9710:	a8c24ffe 	ldp	x30, x19, [sp], #32
    9714:	14000000 	b	8f10 <nsh_catfile>	9714: R_AARCH64_JUMP26	nsh_catfile
    9718:	90000002 	adrp	x2, ebb8 <_srodata>	9718: R_AARCH64_ADR_PREL_PG_HI21	.rodata+0x17a4
    971c:	91000042 	add	x2, x2, #0x0	971c: R_AARCH64_ADD_ABS_LO12_NC	.rodata+0x17a4
    9720:	17fffff9 	b	9704 <cmd_df+0x34>

0000000000009724 <cmd_mount>:
cmd_mount():
    9724:	a9ba4ffe 	stp	x30, x19, [sp, #-96]!
    9728:	a90157f4 	stp	x20, x21, [sp, #16]
    972c:	aa0203f5 	mov	x21, x2
    9730:	a9025ff6 	stp	x22, x23, [sp, #32]
    9734:	a90367f8 	stp	x24, x25, [sp, #48]
    9738:	a9046ffa 	stp	x26, x27, [sp, #64]
    973c:	f9002bfc 	str	x28, [sp, #80]
    9740:	7100043f 	cmp	w1, #0x1
    9744:	5400062c 	b.gt	9808 <cmd_mount+0xe4>
    9748:	f94002a1 	ldr	x1, [x21]
    974c:	90000002 	adrp	x2, ebb8 <_srodata>	974c: R_AARCH64_ADR_PREL_PG_HI21	.rodata+0x17b4
    9750:	f9402bfc 	ldr	x28, [sp, #80]
    9754:	91000042 	add	x2, x2, #0x0	9754: R_AARCH64_ADD_ABS_LO12_NC	.rodata+0x17b4
    9758:	a9425ff6 	ldp	x22, x23, [sp, #32]
    975c:	a94367f8 	ldp	x24, x25, [sp, #48]
    9760:	a9446ffa 	ldp	x26, x27, [sp, #64]
    9764:	a94157f4 	ldp	x20, x21, [sp, #16]
    9768:	a8c64ffe 	ldp	x30, x19, [sp], #96
    976c:	14000000 	b	8f10 <nsh_catfile>	976c: R_AARCH64_JUMP26	nsh_catfile
    9770:	7101bedf 	cmp	w22, #0x6f
    9774:	54000380 	b.eq	97e4 <cmd_mount+0xc0>  // b.none
    9778:	7101d2df 	cmp	w22, #0x74
    977c:	540000e0 	b.eq	9798 <cmd_mount+0x74>  // b.none
    9780:	f9401a63 	ldr	x3, [x19, #48]
    9784:	7100eadf 	cmp	w22, #0x3a
    9788:	54000340 	b.eq	97f0 <cmd_mount+0xcc>  // b.none
    978c:	f94002a2 	ldr	x2, [x21]
    9790:	aa1b03e1 	mov	x1, x27
    9794:	14000019 	b	97f8 <cmd_mount+0xd4>
    9798:	94000000 	bl	e0cc <getoptargp>	9798: R_AARCH64_CALL26	getoptargp
    979c:	f9400018 	ldr	x24, [x0]
    97a0:	aa1a03e2 	mov	x2, x26
    97a4:	aa1503e1 	mov	x1, x21
    97a8:	2a1703e0 	mov	w0, w23
    97ac:	94000000 	bl	e0bc <getopt>	97ac: R_AARCH64_CALL26	getopt
    97b0:	2a0003f6 	mov	w22, w0
    97b4:	3100041f 	cmn	w0, #0x1
    97b8:	54fffdc1 	b.ne	9770 <cmd_mount+0x4c>  // b.any
    97bc:	35000774 	cbnz	w20, 98a8 <cmd_mount+0x184>
    97c0:	94000000 	bl	e0dc <getoptindp>	97c0: R_AARCH64_CALL26	getoptindp
    97c4:	b9400000 	ldr	w0, [x0]
    97c8:	6b17001f 	cmp	w0, w23
    97cc:	5400036b 	b.lt	9838 <cmd_mount+0x114>  // b.tstop
    97d0:	f94002a2 	ldr	x2, [x21]
    97d4:	90000001 	adrp	x1, f137 <g_fmtargrequired>	97d4: R_AARCH64_ADR_PREL_PG_HI21	g_fmtargrequired
    97d8:	f9401a63 	ldr	x3, [x19, #48]
    97dc:	91000021 	add	x1, x1, #0x0	97dc: R_AARCH64_ADD_ABS_LO12_NC	g_fmtargrequired
    97e0:	14000030 	b	98a0 <cmd_mount+0x17c>
    97e4:	94000000 	bl	e0cc <getoptargp>	97e4: R_AARCH64_CALL26	getoptargp
    97e8:	f9400019 	ldr	x25, [x0]
    97ec:	17ffffed 	b	97a0 <cmd_mount+0x7c>
    97f0:	f94002a2 	ldr	x2, [x21]
    97f4:	aa1c03e1 	mov	x1, x28
    97f8:	aa1303e0 	mov	x0, x19
    97fc:	52800034 	mov	w20, #0x1                   	// #1
    9800:	d63f0060 	blr	x3
    9804:	17ffffe7 	b	97a0 <cmd_mount+0x7c>
    9808:	9000001a 	adrp	x26, ebb8 <_srodata>	9808: R_AARCH64_ADR_PREL_PG_HI21	.rodata+0x17c3
    980c:	9000001b 	adrp	x27, f103 <g_fmtarginvalid>	980c: R_AARCH64_ADR_PREL_PG_HI21	g_fmtarginvalid
    9810:	9000001c 	adrp	x28, f137 <g_fmtargrequired>	9810: R_AARCH64_ADR_PREL_PG_HI21	g_fmtargrequired
    9814:	aa0003f3 	mov	x19, x0
    9818:	2a0103f7 	mov	w23, w1
    981c:	9100035a 	add	x26, x26, #0x0	981c: R_AARCH64_ADD_ABS_LO12_NC	.rodata+0x17c3
    9820:	9100037b 	add	x27, x27, #0x0	9820: R_AARCH64_ADD_ABS_LO12_NC	g_fmtarginvalid
    9824:	9100039c 	add	x28, x28, #0x0	9824: R_AARCH64_ADD_ABS_LO12_NC	g_fmtargrequired
    9828:	52800014 	mov	w20, #0x0                   	// #0
    982c:	d2800019 	mov	x25, #0x0                   	// #0
    9830:	d2800018 	mov	x24, #0x0                   	// #0
    9834:	17ffffdb 	b	97a0 <cmd_mount+0x7c>
    9838:	94000000 	bl	e0dc <getoptindp>	9838: R_AARCH64_CALL26	getoptindp
    983c:	b9800000 	ldrsw	x0, [x0]
    9840:	f8607ab4 	ldr	x20, [x21, x0, lsl #3]
    9844:	94000000 	bl	e0dc <getoptindp>	9844: R_AARCH64_CALL26	getoptindp
    9848:	b9400001 	ldr	w1, [x0]
    984c:	11000421 	add	w1, w1, #0x1
    9850:	b9000001 	str	w1, [x0]
    9854:	94000000 	bl	e0dc <getoptindp>	9854: R_AARCH64_CALL26	getoptindp
    9858:	b9400000 	ldr	w0, [x0]
    985c:	6b17001f 	cmp	w0, w23
    9860:	5400034a 	b.ge	98c8 <cmd_mount+0x1a4>  // b.tcont
    9864:	94000000 	bl	e0dc <getoptindp>	9864: R_AARCH64_CALL26	getoptindp
    9868:	b9800000 	ldrsw	x0, [x0]
    986c:	f8607aba 	ldr	x26, [x21, x0, lsl #3]
    9870:	94000000 	bl	e0dc <getoptindp>	9870: R_AARCH64_CALL26	getoptindp
    9874:	b9400001 	ldr	w1, [x0]
    9878:	11000421 	add	w1, w1, #0x1
    987c:	b9000001 	str	w1, [x0]
    9880:	94000000 	bl	e0dc <getoptindp>	9880: R_AARCH64_CALL26	getoptindp
    9884:	b9400000 	ldr	w0, [x0]
    9888:	6b17001f 	cmp	w0, w23
    988c:	5400022a 	b.ge	98d0 <cmd_mount+0x1ac>  // b.tcont
    9890:	f94002a2 	ldr	x2, [x21]
    9894:	90000001 	adrp	x1, f094 <g_fmttoomanyargs>	9894: R_AARCH64_ADR_PREL_PG_HI21	g_fmttoomanyargs
    9898:	f9401a63 	ldr	x3, [x19, #48]
    989c:	91000021 	add	x1, x1, #0x0	989c: R_AARCH64_ADD_ABS_LO12_NC	g_fmttoomanyargs
    98a0:	aa1303e0 	mov	x0, x19
    98a4:	d63f0060 	blr	x3
    98a8:	f9402bfc 	ldr	x28, [sp, #80]
    98ac:	2a1603e0 	mov	w0, w22
    98b0:	a94157f4 	ldp	x20, x21, [sp, #16]
    98b4:	a9425ff6 	ldp	x22, x23, [sp, #32]
    98b8:	a94367f8 	ldp	x24, x25, [sp, #48]
    98bc:	a9446ffa 	ldp	x26, x27, [sp, #64]
    98c0:	a8c64ffe 	ldp	x30, x19, [sp], #96
    98c4:	d65f03c0 	ret
    98c8:	aa1403fa 	mov	x26, x20
    98cc:	d2800014 	mov	x20, #0x0                   	// #0
    98d0:	b4fff818 	cbz	x24, 97d0 <cmd_mount+0xac>
    98d4:	b40000d4 	cbz	x20, 98ec <cmd_mount+0x1c8>
    98d8:	aa1403e1 	mov	x1, x20
    98dc:	aa1303e0 	mov	x0, x19
    98e0:	94000000 	bl	68fc <nsh_getfullpath>	98e0: R_AARCH64_CALL26	nsh_getfullpath
    98e4:	aa0003f4 	mov	x20, x0
    98e8:	b4fffe00 	cbz	x0, 98a8 <cmd_mount+0x184>
    98ec:	aa1a03e1 	mov	x1, x26
    98f0:	aa1303e0 	mov	x0, x19
    98f4:	94000000 	bl	68fc <nsh_getfullpath>	98f4: R_AARCH64_CALL26	nsh_getfullpath
    98f8:	aa0003f7 	mov	x23, x0
    98fc:	b40002c0 	cbz	x0, 9954 <cmd_mount+0x230>
    9900:	aa0003e1 	mov	x1, x0
    9904:	aa1903e4 	mov	x4, x25
    9908:	aa1803e2 	mov	x2, x24
    990c:	aa1403e0 	mov	x0, x20
    9910:	d2800003 	mov	x3, #0x0                   	// #0
    9914:	94000000 	bl	e970 <mount>	9914: R_AARCH64_CALL26	mount
    9918:	2a0003f6 	mov	w22, w0
    991c:	36f80180 	tbz	w0, #31, 994c <cmd_mount+0x228>
    9920:	f94002b5 	ldr	x21, [x21]
    9924:	f9401a78 	ldr	x24, [x19, #48]
    9928:	94000000 	bl	2454 <__errno>	9928: R_AARCH64_CALL26	__errno
    992c:	b9400004 	ldr	w4, [x0]
    9930:	90000003 	adrp	x3, ebb8 <_srodata>	9930: R_AARCH64_ADR_PREL_PG_HI21	.rodata+0x17c9
    9934:	90000001 	adrp	x1, f03d <g_fmtcmdfailed>	9934: R_AARCH64_ADR_PREL_PG_HI21	g_fmtcmdfailed
    9938:	91000063 	add	x3, x3, #0x0	9938: R_AARCH64_ADD_ABS_LO12_NC	.rodata+0x17c9
    993c:	aa1503e2 	mov	x2, x21
    9940:	91000021 	add	x1, x1, #0x0	9940: R_AARCH64_ADD_ABS_LO12_NC	g_fmtcmdfailed
    9944:	aa1303e0 	mov	x0, x19
    9948:	d63f0300 	blr	x24
    994c:	b5000074 	cbnz	x20, 9958 <cmd_mount+0x234>
    9950:	14000005 	b	9964 <cmd_mount+0x240>
    9954:	b4fffab4 	cbz	x20, 98a8 <cmd_mount+0x184>
    9958:	aa1403e0 	mov	x0, x20
    995c:	94000000 	bl	698c <nsh_freefullpath>	995c: R_AARCH64_CALL26	nsh_freefullpath
    9960:	b4fffa57 	cbz	x23, 98a8 <cmd_mount+0x184>
    9964:	aa1703e0 	mov	x0, x23
    9968:	94000000 	bl	698c <nsh_freefullpath>	9968: R_AARCH64_CALL26	nsh_freefullpath
    996c:	17ffffcf 	b	98a8 <cmd_mount+0x184>

0000000000009970 <cmd_umount>:
cmd_umount():
    9970:	a9bd4ffe 	stp	x30, x19, [sp, #-48]!
    9974:	a90157f4 	stp	x20, x21, [sp, #16]
    9978:	aa0003f5 	mov	x21, x0
    997c:	a9025ff6 	stp	x22, x23, [sp, #32]
    9980:	aa0203f6 	mov	x22, x2
    9984:	f9400441 	ldr	x1, [x2, #8]
    9988:	94000000 	bl	68fc <nsh_getfullpath>	9988: R_AARCH64_CALL26	nsh_getfullpath
    998c:	b4000300 	cbz	x0, 99ec <cmd_umount+0x7c>
    9990:	aa0003f4 	mov	x20, x0
    9994:	52800001 	mov	w1, #0x0                   	// #0
    9998:	94000000 	bl	eb40 <umount2>	9998: R_AARCH64_CALL26	umount2
    999c:	2a0003f3 	mov	w19, w0
    99a0:	36f80180 	tbz	w0, #31, 99d0 <cmd_umount+0x60>
    99a4:	f94002d6 	ldr	x22, [x22]
    99a8:	f9401ab7 	ldr	x23, [x21, #48]
    99ac:	94000000 	bl	2454 <__errno>	99ac: R_AARCH64_CALL26	__errno
    99b0:	b9400004 	ldr	w4, [x0]
    99b4:	90000003 	adrp	x3, ebb8 <_srodata>	99b4: R_AARCH64_ADR_PREL_PG_HI21	.rodata+0x17cf
    99b8:	90000001 	adrp	x1, f03d <g_fmtcmdfailed>	99b8: R_AARCH64_ADR_PREL_PG_HI21	g_fmtcmdfailed
    99bc:	91000063 	add	x3, x3, #0x0	99bc: R_AARCH64_ADD_ABS_LO12_NC	.rodata+0x17cf
    99c0:	aa1603e2 	mov	x2, x22
    99c4:	91000021 	add	x1, x1, #0x0	99c4: R_AARCH64_ADD_ABS_LO12_NC	g_fmtcmdfailed
    99c8:	aa1503e0 	mov	x0, x21
    99cc:	d63f02e0 	blr	x23
    99d0:	aa1403e0 	mov	x0, x20
    99d4:	94000000 	bl	698c <nsh_freefullpath>	99d4: R_AARCH64_CALL26	nsh_freefullpath
    99d8:	2a1303e0 	mov	w0, w19
    99dc:	a94157f4 	ldp	x20, x21, [sp, #16]
    99e0:	a9425ff6 	ldp	x22, x23, [sp, #32]
    99e4:	a8c34ffe 	ldp	x30, x19, [sp], #48
    99e8:	d65f03c0 	ret
    99ec:	12800013 	mov	w19, #0xffffffff            	// #-1
    99f0:	17fffffa 	b	99d8 <cmd_umount+0x68>

00000000000099f4 <cmd_printf>:
cmd_printf():
    99f4:	a9bc4ffe 	stp	x30, x19, [sp, #-64]!
    99f8:	aa0003f3 	mov	x19, x0
    99fc:	a9025ff6 	stp	x22, x23, [sp, #32]
    9a00:	2a0103f7 	mov	w23, w1
    9a04:	d2800036 	mov	x22, #0x1                   	// #1
    9a08:	a90367f8 	stp	x24, x25, [sp, #48]
    9a0c:	90000019 	adrp	x25, ebb8 <_srodata>	9a0c: R_AARCH64_ADR_PREL_PG_HI21	.rodata+0x17ed
    9a10:	aa0203f8 	mov	x24, x2
    9a14:	91000339 	add	x25, x25, #0x0	9a14: R_AARCH64_ADD_ABS_LO12_NC	.rodata+0x17ed
    9a18:	a90157f4 	stp	x20, x21, [sp, #16]
    9a1c:	6b1602ff 	cmp	w23, w22
    9a20:	540000ec 	b.gt	9a3c <cmd_printf+0x48>
    9a24:	a94157f4 	ldp	x20, x21, [sp, #16]
    9a28:	52800000 	mov	w0, #0x0                   	// #0
    9a2c:	a9425ff6 	ldp	x22, x23, [sp, #32]
    9a30:	a94367f8 	ldp	x24, x25, [sp, #48]
    9a34:	a8c44ffe 	ldp	x30, x19, [sp], #64
    9a38:	d65f03c0 	ret
    9a3c:	f8767b02 	ldr	x2, [x24, x22, lsl #3]
    9a40:	39400040 	ldrb	w0, [x2]
    9a44:	7101701f 	cmp	w0, #0x5c
    9a48:	54000861 	b.ne	9b54 <cmd_printf+0x160>  // b.any
    9a4c:	39400440 	ldrb	w0, [x2, #1]
    9a50:	7101d01f 	cmp	w0, #0x74
    9a54:	54000780 	b.eq	9b44 <cmd_printf+0x150>  // b.none
    9a58:	540000e8 	b.hi	9a74 <cmd_printf+0x80>  // b.pmore
    9a5c:	7101b81f 	cmp	w0, #0x6e
    9a60:	540005e0 	b.eq	9b1c <cmd_printf+0x128>  // b.none
    9a64:	7101c81f 	cmp	w0, #0x72
    9a68:	54000660 	b.eq	9b34 <cmd_printf+0x140>  // b.none
    9a6c:	910006d6 	add	x22, x22, #0x1
    9a70:	17ffffeb 	b	9a1c <cmd_printf+0x28>
    9a74:	7101e01f 	cmp	w0, #0x78
    9a78:	54ffffa1 	b.ne	9a6c <cmd_printf+0x78>  // b.any
    9a7c:	91000855 	add	x21, x2, #0x2
    9a80:	52800202 	mov	w2, #0x10                  	// #16
    9a84:	d2800001 	mov	x1, #0x0                   	// #0
    9a88:	aa1503e0 	mov	x0, x21
    9a8c:	94000000 	bl	d648 <strtoul>	9a8c: R_AARCH64_CALL26	strtoul
    9a90:	aa0003f4 	mov	x20, x0
    9a94:	d2800141 	mov	x1, #0xa                   	// #10
    9a98:	aa1503e0 	mov	x0, x21
    9a9c:	94000000 	bl	1a4 <strnlen>	9a9c: R_AARCH64_CALL26	strnlen
    9aa0:	7100181f 	cmp	w0, #0x6
    9aa4:	5400016d 	b.le	9ad0 <cmd_printf+0xdc>
    9aa8:	f9401e66 	ldr	x6, [x19, #56]
    9aac:	53187e85 	lsr	w5, w20, #24
    9ab0:	53105e84 	ubfx	w4, w20, #16, #8
    9ab4:	53083e83 	ubfx	w3, w20, #8, #8
    9ab8:	12001e82 	and	w2, w20, #0xff
    9abc:	aa1303e0 	mov	x0, x19
    9ac0:	90000001 	adrp	x1, ebb8 <_srodata>	9ac0: R_AARCH64_ADR_PREL_PG_HI21	.rodata+0x17d6
    9ac4:	91000021 	add	x1, x1, #0x0	9ac4: R_AARCH64_ADD_ABS_LO12_NC	.rodata+0x17d6
    9ac8:	d63f00c0 	blr	x6
    9acc:	17ffffe8 	b	9a6c <cmd_printf+0x78>
    9ad0:	7100081f 	cmp	w0, #0x2
    9ad4:	5400012d 	b.le	9af8 <cmd_printf+0x104>
    9ad8:	f9401e64 	ldr	x4, [x19, #56]
    9adc:	53083e83 	ubfx	w3, w20, #8, #8
    9ae0:	12001e82 	and	w2, w20, #0xff
    9ae4:	aa1303e0 	mov	x0, x19
    9ae8:	90000001 	adrp	x1, ebb8 <_srodata>	9ae8: R_AARCH64_ADR_PREL_PG_HI21	.rodata+0x17df
    9aec:	91000021 	add	x1, x1, #0x0	9aec: R_AARCH64_ADD_ABS_LO12_NC	.rodata+0x17df
    9af0:	d63f0080 	blr	x4
    9af4:	17ffffde 	b	9a6c <cmd_printf+0x78>
    9af8:	7100001f 	cmp	w0, #0x0
    9afc:	54fffb8d 	b.le	9a6c <cmd_printf+0x78>
    9b00:	f9401e63 	ldr	x3, [x19, #56]
    9b04:	12001e82 	and	w2, w20, #0xff
    9b08:	aa1303e0 	mov	x0, x19
    9b0c:	90000001 	adrp	x1, ebb8 <_srodata>	9b0c: R_AARCH64_ADR_PREL_PG_HI21	.rodata+0x17e4
    9b10:	91000021 	add	x1, x1, #0x0	9b10: R_AARCH64_ADD_ABS_LO12_NC	.rodata+0x17e4
    9b14:	d63f0060 	blr	x3
    9b18:	17ffffd5 	b	9a6c <cmd_printf+0x78>
    9b1c:	f9401e62 	ldr	x2, [x19, #56]
    9b20:	90000001 	adrp	x1, ebb8 <_srodata>	9b20: R_AARCH64_ADR_PREL_PG_HI21	.rodata+0x17e7
    9b24:	91000021 	add	x1, x1, #0x0	9b24: R_AARCH64_ADD_ABS_LO12_NC	.rodata+0x17e7
    9b28:	aa1303e0 	mov	x0, x19
    9b2c:	d63f0040 	blr	x2
    9b30:	17ffffcf 	b	9a6c <cmd_printf+0x78>
    9b34:	f9401e62 	ldr	x2, [x19, #56]
    9b38:	90000001 	adrp	x1, ebb8 <_srodata>	9b38: R_AARCH64_ADR_PREL_PG_HI21	.rodata+0x17e9
    9b3c:	91000021 	add	x1, x1, #0x0	9b3c: R_AARCH64_ADD_ABS_LO12_NC	.rodata+0x17e9
    9b40:	17fffffa 	b	9b28 <cmd_printf+0x134>
    9b44:	f9401e62 	ldr	x2, [x19, #56]
    9b48:	90000001 	adrp	x1, ebb8 <_srodata>	9b48: R_AARCH64_ADR_PREL_PG_HI21	.rodata+0x17eb
    9b4c:	91000021 	add	x1, x1, #0x0	9b4c: R_AARCH64_ADD_ABS_LO12_NC	.rodata+0x17eb
    9b50:	17fffff6 	b	9b28 <cmd_printf+0x134>
    9b54:	f9401e63 	ldr	x3, [x19, #56]
    9b58:	aa1903e1 	mov	x1, x25
    9b5c:	aa1303e0 	mov	x0, x19
    9b60:	d63f0060 	blr	x3
    9b64:	17ffffc2 	b	9a6c <cmd_printf+0x78>

0000000000009b68 <ps_readprocfs>:
ps_readprocfs():
    9b68:	a9bc4ffe 	stp	x30, x19, [sp, #-64]!
    9b6c:	91000463 	add	x3, x3, #0x1
    9b70:	a90157f4 	stp	x20, x21, [sp, #16]
    9b74:	aa0003f5 	mov	x21, x0
    9b78:	aa0403f4 	mov	x20, x4
    9b7c:	9100e3e0 	add	x0, sp, #0x38
    9b80:	aa0103e4 	mov	x4, x1
    9b84:	90000001 	adrp	x1, ebb8 <_srodata>	9b84: R_AARCH64_ADR_PREL_PG_HI21	.rodata+0x17f0
    9b88:	91000021 	add	x1, x1, #0x0	9b88: R_AARCH64_ADD_ABS_LO12_NC	.rodata+0x17f0
    9b8c:	a9025ff6 	stp	x22, x23, [sp, #32]
    9b90:	90000016 	adrp	x22, ebb8 <_srodata>	9b90: R_AARCH64_ADR_PREL_PG_HI21	.rodata+0x1802
    9b94:	910002d6 	add	x22, x22, #0x0	9b94: R_AARCH64_ADD_ABS_LO12_NC	.rodata+0x1802
    9b98:	f9001fff 	str	xzr, [sp, #56]
    9b9c:	94000000 	bl	cfe4 <asprintf>	9b9c: R_AARCH64_CALL26	asprintf
    9ba0:	2a0003f3 	mov	w19, w0
    9ba4:	37f80060 	tbnz	w0, #31, 9bb0 <ps_readprocfs+0x48>
    9ba8:	f9401fe2 	ldr	x2, [sp, #56]
    9bac:	b5000262 	cbnz	x2, 9bf8 <ps_readprocfs+0x90>
    9bb0:	f9401ab7 	ldr	x23, [x21, #48]
    9bb4:	94000000 	bl	2454 <__errno>	9bb4: R_AARCH64_CALL26	__errno
    9bb8:	b9400004 	ldr	w4, [x0]
    9bbc:	aa1603e2 	mov	x2, x22
    9bc0:	aa1503e0 	mov	x0, x21
    9bc4:	90000003 	adrp	x3, ebb8 <_srodata>	9bc4: R_AARCH64_ADR_PREL_PG_HI21	.rodata+0x17f9
    9bc8:	90000001 	adrp	x1, f03d <g_fmtcmdfailed>	9bc8: R_AARCH64_ADR_PREL_PG_HI21	g_fmtcmdfailed
    9bcc:	91000063 	add	x3, x3, #0x0	9bcc: R_AARCH64_ADD_ABS_LO12_NC	.rodata+0x17f9
    9bd0:	91000021 	add	x1, x1, #0x0	9bd0: R_AARCH64_ADD_ABS_LO12_NC	g_fmtcmdfailed
    9bd4:	d63f02e0 	blr	x23
    9bd8:	f9403681 	ldr	x1, [x20, #104]
    9bdc:	f9403e80 	ldr	x0, [x20, #120]
    9be0:	3820683f 	strb	wzr, [x1, x0]
    9be4:	a94157f4 	ldp	x20, x21, [sp, #16]
    9be8:	93407e60 	sxtw	x0, w19
    9bec:	a9425ff6 	ldp	x22, x23, [sp, #32]
    9bf0:	a8c44ffe 	ldp	x30, x19, [sp], #64
    9bf4:	d65f03c0 	ret
    9bf8:	a9469283 	ldp	x3, x4, [x20, #104]
    9bfc:	aa1603e1 	mov	x1, x22
    9c00:	f9403e80 	ldr	x0, [x20, #120]
    9c04:	cb000084 	sub	x4, x4, x0
    9c08:	8b000063 	add	x3, x3, x0
    9c0c:	aa1503e0 	mov	x0, x21
    9c10:	94000000 	bl	90fc <nsh_readfile>	9c10: R_AARCH64_CALL26	nsh_readfile
    9c14:	2a0003f3 	mov	w19, w0
    9c18:	37f800c0 	tbnz	w0, #31, 9c30 <ps_readprocfs+0xc8>
    9c1c:	f9403681 	ldr	x1, [x20, #104]
    9c20:	f9403e80 	ldr	x0, [x20, #120]
    9c24:	8b000020 	add	x0, x1, x0
    9c28:	94000000 	bl	940 <strlen>	9c28: R_AARCH64_CALL26	strlen
    9c2c:	11000413 	add	w19, w0, #0x1
    9c30:	f9401fe0 	ldr	x0, [sp, #56]
    9c34:	94000000 	bl	b598 <free>	9c34: R_AARCH64_CALL26	free
    9c38:	17ffffeb 	b	9be4 <ps_readprocfs+0x7c>
    9c3c:	d10603ff 	sub	sp, sp, #0x180
    9c40:	a9054ffe 	stp	x30, x19, [sp, #80]
    9c44:	a90657f4 	stp	x20, x21, [sp, #96]
    9c48:	a9075ff6 	stp	x22, x23, [sp, #112]
    9c4c:	aa0003f6 	mov	x22, x0
    9c50:	a90867f8 	stp	x24, x25, [sp, #128]
    9c54:	a9096ffa 	stp	x26, x27, [sp, #144]
    9c58:	f90053fc 	str	x28, [sp, #160]
    9c5c:	f9006fe1 	str	x1, [sp, #216]
    9c60:	39400040 	ldrb	w0, [x2]
    9c64:	7100101f 	cmp	w0, #0x4
    9c68:	540022e1 	b.ne	a0c4 <ps_readprocfs+0x55c>  // b.any
    9c6c:	aa0203f7 	mov	x23, x2
    9c70:	d2800021 	mov	x1, #0x1                   	// #1
    9c74:	38616ae0 	ldrb	w0, [x23, x1]
    9c78:	340000e0 	cbz	w0, 9c94 <ps_readprocfs+0x12c>
    9c7c:	5100c000 	sub	w0, w0, #0x30
    9c80:	7100241f 	cmp	w0, #0x9
    9c84:	54002208 	b.hi	a0c4 <ps_readprocfs+0x55c>  // b.pmore
    9c88:	91000421 	add	x1, x1, #0x1
    9c8c:	f100843f 	cmp	x1, #0x21
    9c90:	54ffff21 	b.ne	9c74 <ps_readprocfs+0x10c>  // b.any
    9c94:	4f00041f 	movi	v31.4s, #0x0
    9c98:	910803e1 	add	x1, sp, #0x200
    9c9c:	910533e0 	add	x0, sp, #0x14c
    9ca0:	910182dc 	add	x28, x22, #0x60
    9ca4:	90000013 	adrp	x19, ebb8 <_srodata>	9ca4: R_AARCH64_ADR_PREL_PG_HI21	.rodata+0x1805
    9ca8:	91000273 	add	x19, x19, #0x0	9ca8: R_AARCH64_ADD_ABS_LO12_NC	.rodata+0x1805
    9cac:	3c94c03f 	stur	q31, [x1, #-180]
    9cb0:	ad00fc1f 	stp	q31, q31, [x0, #16]
    9cb4:	d2804000 	mov	x0, #0x200                 	// #512
    9cb8:	a91683fc 	stp	x28, x0, [sp, #360]
    9cbc:	910006e0 	add	x0, x23, #0x1
    9cc0:	b9017fff 	str	wzr, [sp, #380]
    9cc4:	94000000 	bl	d2d0 <atoi>	9cc4: R_AARCH64_CALL26	atoi
    9cc8:	f9406fe2 	ldr	x2, [sp, #216]
    9ccc:	b900e7e0 	str	w0, [sp, #228]
    9cd0:	2a0003e0 	mov	w0, w0
    9cd4:	910403e4 	add	x4, sp, #0x100
    9cd8:	aa1703e3 	mov	x3, x23
    9cdc:	90000001 	adrp	x1, ebb8 <_srodata>	9cdc: R_AARCH64_ADR_PREL_PG_HI21	.rodata+0x185a
    9ce0:	91000021 	add	x1, x1, #0x0	9ce0: R_AARCH64_ADD_ABS_LO12_NC	.rodata+0x185a
    9ce4:	a9104ff3 	stp	x19, x19, [sp, #256]
    9ce8:	a9114ff3 	stp	x19, x19, [sp, #272]
    9cec:	a9124ff3 	stp	x19, x19, [sp, #288]
    9cf0:	a9134ff3 	stp	x19, x19, [sp, #304]
    9cf4:	f900a3f3 	str	x19, [sp, #320]
    9cf8:	b9014be0 	str	w0, [sp, #328]
    9cfc:	aa1603e0 	mov	x0, x22
    9d00:	94000000 	bl	9b68 <ps_readprocfs>	9d00: R_AARCH64_CALL26	ps_readprocfs
    9d04:	aa0003f5 	mov	x21, x0
    9d08:	b6f80100 	tbz	x0, #63, 9d28 <ps_readprocfs+0x1c0>
    9d0c:	aa1303fa 	mov	x26, x19
    9d10:	aa1303fb 	mov	x27, x19
    9d14:	d2800015 	mov	x21, #0x0                   	// #0
    9d18:	a90b4ff3 	stp	x19, x19, [sp, #176]
    9d1c:	a90c4ff3 	stp	x19, x19, [sp, #192]
    9d20:	f9006bf3 	str	x19, [sp, #208]
    9d24:	14000020 	b	9da4 <ps_readprocfs+0x23c>
    9d28:	90000000 	adrp	x0, ebb8 <_srodata>	9d28: R_AARCH64_ADR_PREL_PG_HI21	.rodata+0x1a85
    9d2c:	91000000 	add	x0, x0, #0x0	9d2c: R_AARCH64_ADD_ABS_LO12_NC	.rodata+0x1a85
    9d30:	aa1c03f8 	mov	x24, x28
    9d34:	aa1303fa 	mov	x26, x19
    9d38:	aa1303fb 	mov	x27, x19
    9d3c:	f90077e0 	str	x0, [sp, #232]
    9d40:	90000000 	adrp	x0, ebb8 <_srodata>	9d40: R_AARCH64_ADR_PREL_PG_HI21	.rodata+0x1a7e
    9d44:	91000019 	add	x25, x0, #0x0	9d44: R_AARCH64_ADD_ABS_LO12_NC	.rodata+0x1a7e
    9d48:	90000000 	adrp	x0, ebb8 <_srodata>	9d48: R_AARCH64_ADR_PREL_PG_HI21	.rodata+0x1a77
    9d4c:	91000000 	add	x0, x0, #0x0	9d4c: R_AARCH64_ADD_ABS_LO12_NC	.rodata+0x1a77
    9d50:	a90b4ff3 	stp	x19, x19, [sp, #176]
    9d54:	a90c4ff3 	stp	x19, x19, [sp, #192]
    9d58:	f9006bf3 	str	x19, [sp, #208]
    9d5c:	f9007be0 	str	x0, [sp, #240]
    9d60:	91000714 	add	x20, x24, #0x1
    9d64:	39400280 	ldrb	w0, [x20]
    9d68:	7100001f 	cmp	w0, #0x0
    9d6c:	7a4a1804 	ccmp	w0, #0xa, #0x4, ne	// ne = any
    9d70:	54000e61 	b.ne	9f3c <ps_readprocfs+0x3d4>  // b.any
    9d74:	7100281f 	cmp	w0, #0xa
    9d78:	54000e61 	b.ne	9f44 <ps_readprocfs+0x3dc>  // b.any
    9d7c:	3800169f 	strb	wzr, [x20], #1
    9d80:	f94077e1 	ldr	x1, [sp, #232]
    9d84:	aa1803e0 	mov	x0, x24
    9d88:	d28000a2 	mov	x2, #0x5                   	// #5
    9d8c:	94000000 	bl	a9c <strncmp>	9d8c: R_AARCH64_CALL26	strncmp
    9d90:	35000de0 	cbnz	w0, 9f4c <ps_readprocfs+0x3e4>
    9d94:	91003300 	add	x0, x24, #0xc
    9d98:	94000000 	bl	9468 <nsh_trimspaces>	9d98: R_AARCH64_CALL26	nsh_trimspaces
    9d9c:	f9005fe0 	str	x0, [sp, #184]
    9da0:	b5000cb4 	cbnz	x20, 9f34 <ps_readprocfs+0x3cc>
    9da4:	f9405fe0 	ldr	x0, [sp, #184]
    9da8:	f90083e0 	str	x0, [sp, #256]
    9dac:	f94063e0 	ldr	x0, [sp, #192]
    9db0:	a910efe0 	stp	x0, x27, [sp, #264]
    9db4:	90000001 	adrp	x1, ebb8 <_srodata>	9db4: R_AARCH64_ADR_PREL_PG_HI21	.rodata+0x1806
    9db8:	f9406fe2 	ldr	x2, [sp, #216]
    9dbc:	910403e4 	add	x4, sp, #0x100
    9dc0:	f94067e0 	ldr	x0, [sp, #200]
    9dc4:	f9008fe0 	str	x0, [sp, #280]
    9dc8:	f9406be0 	ldr	x0, [sp, #208]
    9dcc:	f90093e0 	str	x0, [sp, #288]
    9dd0:	f9405be0 	ldr	x0, [sp, #176]
    9dd4:	aa1703e3 	mov	x3, x23
    9dd8:	91000021 	add	x1, x1, #0x0	9dd8: R_AARCH64_ADD_ABS_LO12_NC	.rodata+0x1806
    9ddc:	f90097fa 	str	x26, [sp, #296]
    9de0:	f9009be0 	str	x0, [sp, #304]
    9de4:	aa1603e0 	mov	x0, x22
    9de8:	f9009ff3 	str	x19, [sp, #312]
    9dec:	f900bff5 	str	x21, [sp, #376]
    9df0:	94000000 	bl	9b68 <ps_readprocfs>	9df0: R_AARCH64_CALL26	ps_readprocfs
    9df4:	b7f81600 	tbnz	x0, #63, a0b4 <ps_readprocfs+0x54c>
    9df8:	90000000 	adrp	x0, ebb8 <_srodata>	9df8: R_AARCH64_ADR_PREL_PG_HI21	.rodata+0x1a47
    9dfc:	8b150383 	add	x3, x28, x21
    9e00:	91000000 	add	x0, x0, #0x0	9e00: R_AARCH64_ADD_ABS_LO12_NC	.rodata+0x1a47
    9e04:	d2800019 	mov	x25, #0x0                   	// #0
    9e08:	d2800018 	mov	x24, #0x0                   	// #0
    9e0c:	f90077e0 	str	x0, [sp, #232]
    9e10:	90000000 	adrp	x0, ebb8 <_srodata>	9e10: R_AARCH64_ADR_PREL_PG_HI21	.rodata+0x1a3c
    9e14:	91000000 	add	x0, x0, #0x0	9e14: R_AARCH64_ADD_ABS_LO12_NC	.rodata+0x1a3c
    9e18:	f9007be0 	str	x0, [sp, #240]
    9e1c:	91000474 	add	x20, x3, #0x1
    9e20:	39400280 	ldrb	w0, [x20]
    9e24:	7100001f 	cmp	w0, #0x0
    9e28:	7a4a1804 	ccmp	w0, #0xa, #0x4, ne	// ne = any
    9e2c:	54001221 	b.ne	a070 <ps_readprocfs+0x508>  // b.any
    9e30:	7100281f 	cmp	w0, #0xa
    9e34:	54001221 	b.ne	a078 <ps_readprocfs+0x510>  // b.any
    9e38:	3800169f 	strb	wzr, [x20], #1
    9e3c:	f94077e1 	ldr	x1, [sp, #232]
    9e40:	aa0303e0 	mov	x0, x3
    9e44:	d2800142 	mov	x2, #0xa                   	// #10
    9e48:	f9007fe3 	str	x3, [sp, #248]
    9e4c:	94000000 	bl	a9c <strncmp>	9e4c: R_AARCH64_CALL26	strncmp
    9e50:	f9407fe3 	ldr	x3, [sp, #248]
    9e54:	35001160 	cbnz	w0, a080 <ps_readprocfs+0x518>
    9e58:	91003060 	add	x0, x3, #0xc
    9e5c:	52800002 	mov	w2, #0x0                   	// #0
    9e60:	d2800001 	mov	x1, #0x0                   	// #0
    9e64:	94000000 	bl	d648 <strtoul>	9e64: R_AARCH64_CALL26	strtoul
    9e68:	aa0003f8 	mov	x24, x0
    9e6c:	b5000ff4 	cbnz	x20, a068 <ps_readprocfs+0x500>
    9e70:	b4001278 	cbz	x24, a0bc <ps_readprocfs+0x554>
    9e74:	b4001259 	cbz	x25, a0bc <ps_readprocfs+0x554>
    9e78:	d2807d14 	mov	x20, #0x3e8                 	// #1000
    9e7c:	9b147f34 	mul	x20, x25, x20
    9e80:	9ad80a94 	udiv	x20, x20, x24
    9e84:	f9406fe2 	ldr	x2, [sp, #216]
    9e88:	aa1703e3 	mov	x3, x23
    9e8c:	910403e4 	add	x4, sp, #0x100
    9e90:	aa1603e0 	mov	x0, x22
    9e94:	90000001 	adrp	x1, ebb8 <_srodata>	9e94: R_AARCH64_ADR_PREL_PG_HI21	.rodata+0x180c
    9e98:	91000021 	add	x1, x1, #0x0	9e98: R_AARCH64_ADD_ABS_LO12_NC	.rodata+0x180c
    9e9c:	a91567f8 	stp	x24, x25, [sp, #336]
    9ea0:	f900b3f4 	str	x20, [sp, #352]
    9ea4:	94000000 	bl	9b68 <ps_readprocfs>	9ea4: R_AARCH64_CALL26	ps_readprocfs
    9ea8:	aa0003f7 	mov	x23, x0
    9eac:	b7f80320 	tbnz	x0, #63, 9f10 <ps_readprocfs+0x3a8>
    9eb0:	8b150380 	add	x0, x28, x21
    9eb4:	94000000 	bl	9468 <nsh_trimspaces>	9eb4: R_AARCH64_CALL26	nsh_trimspaces
    9eb8:	d2800141 	mov	x1, #0xa                   	// #10
    9ebc:	f10c7e9f 	cmp	x20, #0x31f
    9ec0:	f9401ec8 	ldr	x8, [x22, #56]
    9ec4:	1a9f97e2 	cset	w2, hi	// hi = pmore
    9ec8:	9ac10a83 	udiv	x3, x20, x1
    9ecc:	f90023e0 	str	x0, [sp, #64]
    9ed0:	a94b1be5 	ldp	x5, x6, [sp, #176]
    9ed4:	11008042 	add	w2, w2, #0x20
    9ed8:	f9406be7 	ldr	x7, [sp, #208]
    9edc:	9b01d061 	msub	x1, x3, x1, x20
    9ee0:	a9020ff9 	stp	x25, x3, [sp, #32]
    9ee4:	aa1a03e4 	mov	x4, x26
    9ee8:	a94c03e3 	ldp	x3, x0, [sp, #192]
    9eec:	b9003be2 	str	w2, [sp, #56]
    9ef0:	b940e7e2 	ldr	w2, [sp, #228]
    9ef4:	a90003fb 	stp	x27, x0, [sp]
    9ef8:	aa1603e0 	mov	x0, x22
    9efc:	a90163f3 	stp	x19, x24, [sp, #16]
    9f00:	f9001be1 	str	x1, [sp, #48]
    9f04:	90000001 	adrp	x1, ebb8 <_srodata>	9f04: R_AARCH64_ADR_PREL_PG_HI21	.rodata+0x1814
    9f08:	91000021 	add	x1, x1, #0x0	9f08: R_AARCH64_ADD_ABS_LO12_NC	.rodata+0x1814
    9f0c:	d63f0100 	blr	x8
    9f10:	2a1703e0 	mov	w0, w23
    9f14:	f94053fc 	ldr	x28, [sp, #160]
    9f18:	a9454ffe 	ldp	x30, x19, [sp, #80]
    9f1c:	a94657f4 	ldp	x20, x21, [sp, #96]
    9f20:	a9475ff6 	ldp	x22, x23, [sp, #112]
    9f24:	a94867f8 	ldp	x24, x25, [sp, #128]
    9f28:	a9496ffa 	ldp	x26, x27, [sp, #144]
    9f2c:	910603ff 	add	sp, sp, #0x180
    9f30:	d65f03c0 	ret
    9f34:	aa1403f8 	mov	x24, x20
    9f38:	17ffff8a 	b	9d60 <ps_readprocfs+0x1f8>
    9f3c:	91000694 	add	x20, x20, #0x1
    9f40:	17ffff89 	b	9d64 <ps_readprocfs+0x1fc>
    9f44:	d2800014 	mov	x20, #0x0                   	// #0
    9f48:	17ffff8e 	b	9d80 <ps_readprocfs+0x218>
    9f4c:	aa1903e1 	mov	x1, x25
    9f50:	aa1803e0 	mov	x0, x24
    9f54:	d28000c2 	mov	x2, #0x6                   	// #6
    9f58:	94000000 	bl	a9c <strncmp>	9f58: R_AARCH64_CALL26	strncmp
    9f5c:	350000a0 	cbnz	w0, 9f70 <ps_readprocfs+0x408>
    9f60:	91003300 	add	x0, x24, #0xc
    9f64:	94000000 	bl	9468 <nsh_trimspaces>	9f64: R_AARCH64_CALL26	nsh_trimspaces
    9f68:	f90063e0 	str	x0, [sp, #192]
    9f6c:	17ffff8d 	b	9da0 <ps_readprocfs+0x238>
    9f70:	f9407be1 	ldr	x1, [sp, #240]
    9f74:	aa1803e0 	mov	x0, x24
    9f78:	d28000c2 	mov	x2, #0x6                   	// #6
    9f7c:	94000000 	bl	a9c <strncmp>	9f7c: R_AARCH64_CALL26	strncmp
    9f80:	35000160 	cbnz	w0, 9fac <ps_readprocfs+0x444>
    9f84:	91003300 	add	x0, x24, #0xc
    9f88:	94000000 	bl	9468 <nsh_trimspaces>	9f88: R_AARCH64_CALL26	nsh_trimspaces
    9f8c:	52800581 	mov	w1, #0x2c                  	// #44
    9f90:	aa0003fb 	mov	x27, x0
    9f94:	94000000 	bl	59c <strchr>	9f94: R_AARCH64_CALL26	strchr
    9f98:	b4fff040 	cbz	x0, 9da0 <ps_readprocfs+0x238>
    9f9c:	3800141f 	strb	wzr, [x0], #1
    9fa0:	94000000 	bl	9468 <nsh_trimspaces>	9fa0: R_AARCH64_CALL26	nsh_trimspaces
    9fa4:	f90067e0 	str	x0, [sp, #200]
    9fa8:	17ffff7e 	b	9da0 <ps_readprocfs+0x238>
    9fac:	90000001 	adrp	x1, ebb8 <_srodata>	9fac: R_AARCH64_ADR_PREL_PG_HI21	.rodata+0x1a70
    9fb0:	aa1803e0 	mov	x0, x24
    9fb4:	91000021 	add	x1, x1, #0x0	9fb4: R_AARCH64_ADD_ABS_LO12_NC	.rodata+0x1a70
    9fb8:	d28000c2 	mov	x2, #0x6                   	// #6
    9fbc:	94000000 	bl	a9c <strncmp>	9fbc: R_AARCH64_CALL26	strncmp
    9fc0:	350000a0 	cbnz	w0, 9fd4 <ps_readprocfs+0x46c>
    9fc4:	91003300 	add	x0, x24, #0xc
    9fc8:	94000000 	bl	9468 <nsh_trimspaces>	9fc8: R_AARCH64_CALL26	nsh_trimspaces
    9fcc:	f9006be0 	str	x0, [sp, #208]
    9fd0:	17ffff74 	b	9da0 <ps_readprocfs+0x238>
    9fd4:	90000001 	adrp	x1, ebb8 <_srodata>	9fd4: R_AARCH64_ADR_PREL_PG_HI21	.rodata+0x1a66
    9fd8:	aa1803e0 	mov	x0, x24
    9fdc:	91000021 	add	x1, x1, #0x0	9fdc: R_AARCH64_ADD_ABS_LO12_NC	.rodata+0x1a66
    9fe0:	d2800122 	mov	x2, #0x9                   	// #9
    9fe4:	94000000 	bl	a9c <strncmp>	9fe4: R_AARCH64_CALL26	strncmp
    9fe8:	35000180 	cbnz	w0, a018 <ps_readprocfs+0x4b0>
    9fec:	91003300 	add	x0, x24, #0xc
    9ff0:	94000000 	bl	9468 <nsh_trimspaces>	9ff0: R_AARCH64_CALL26	nsh_trimspaces
    9ff4:	aa0003fa 	mov	x26, x0
    9ff8:	39400001 	ldrb	w1, [x0]
    9ffc:	5100c021 	sub	w1, w1, #0x30
    a000:	7100243f 	cmp	w1, #0x9
    a004:	54000069 	b.ls	a010 <ps_readprocfs+0x4a8>  // b.plast
    a008:	3900001f 	strb	wzr, [x0]
    a00c:	17ffff65 	b	9da0 <ps_readprocfs+0x238>
    a010:	91000400 	add	x0, x0, #0x1
    a014:	17fffff9 	b	9ff8 <ps_readprocfs+0x490>
    a018:	90000001 	adrp	x1, ebb8 <_srodata>	a018: R_AARCH64_ADR_PREL_PG_HI21	.rodata+0x1a5b
    a01c:	aa1803e0 	mov	x0, x24
    a020:	91000021 	add	x1, x1, #0x0	a020: R_AARCH64_ADD_ABS_LO12_NC	.rodata+0x1a5b
    a024:	d2800142 	mov	x2, #0xa                   	// #10
    a028:	94000000 	bl	a9c <strncmp>	a028: R_AARCH64_CALL26	strncmp
    a02c:	350000a0 	cbnz	w0, a040 <ps_readprocfs+0x4d8>
    a030:	91004b00 	add	x0, x24, #0x12
    a034:	94000000 	bl	9468 <nsh_trimspaces>	a034: R_AARCH64_CALL26	nsh_trimspaces
    a038:	f9005be0 	str	x0, [sp, #176]
    a03c:	17ffff59 	b	9da0 <ps_readprocfs+0x238>
    a040:	90000001 	adrp	x1, ebb8 <_srodata>	a040: R_AARCH64_ADR_PREL_PG_HI21	.rodata+0x1a52
    a044:	aa1803e0 	mov	x0, x24
    a048:	91000021 	add	x1, x1, #0x0	a048: R_AARCH64_ADD_ABS_LO12_NC	.rodata+0x1a52
    a04c:	d2800102 	mov	x2, #0x8                   	// #8
    a050:	94000000 	bl	a9c <strncmp>	a050: R_AARCH64_CALL26	strncmp
    a054:	35ffea60 	cbnz	w0, 9da0 <ps_readprocfs+0x238>
    a058:	91003300 	add	x0, x24, #0xc
    a05c:	94000000 	bl	9468 <nsh_trimspaces>	a05c: R_AARCH64_CALL26	nsh_trimspaces
    a060:	aa0003f3 	mov	x19, x0
    a064:	17ffff4f 	b	9da0 <ps_readprocfs+0x238>
    a068:	aa1403e3 	mov	x3, x20
    a06c:	17ffff6c 	b	9e1c <ps_readprocfs+0x2b4>
    a070:	91000694 	add	x20, x20, #0x1
    a074:	17ffff6b 	b	9e20 <ps_readprocfs+0x2b8>
    a078:	d2800014 	mov	x20, #0x0                   	// #0
    a07c:	17ffff70 	b	9e3c <ps_readprocfs+0x2d4>
    a080:	f9407be1 	ldr	x1, [sp, #240]
    a084:	aa0303e0 	mov	x0, x3
    a088:	d2800142 	mov	x2, #0xa                   	// #10
    a08c:	f9007fe3 	str	x3, [sp, #248]
    a090:	94000000 	bl	a9c <strncmp>	a090: R_AARCH64_CALL26	strncmp
    a094:	f9407fe3 	ldr	x3, [sp, #248]
    a098:	35ffeea0 	cbnz	w0, 9e6c <ps_readprocfs+0x304>
    a09c:	91003060 	add	x0, x3, #0xc
    a0a0:	52800002 	mov	w2, #0x0                   	// #0
    a0a4:	d2800001 	mov	x1, #0x0                   	// #0
    a0a8:	94000000 	bl	d648 <strtoul>	a0a8: R_AARCH64_CALL26	strtoul
    a0ac:	aa0003f9 	mov	x25, x0
    a0b0:	17ffff6f 	b	9e6c <ps_readprocfs+0x304>
    a0b4:	d2800019 	mov	x25, #0x0                   	// #0
    a0b8:	d2800018 	mov	x24, #0x0                   	// #0
    a0bc:	d2800014 	mov	x20, #0x0                   	// #0
    a0c0:	17ffff71 	b	9e84 <ps_readprocfs+0x31c>
    a0c4:	52800000 	mov	w0, #0x0                   	// #0
    a0c8:	17ffff93 	b	9f14 <ps_readprocfs+0x3ac>

000000000000a0cc <cmd_exec>:
cmd_exec():
    a0cc:	a9bd4ffe 	stp	x30, x19, [sp, #-48]!
    a0d0:	aa0003f3 	mov	x19, x0
    a0d4:	a90157f4 	stp	x20, x21, [sp, #16]
    a0d8:	aa0203f5 	mov	x21, x2
    a0dc:	9100a3e1 	add	x1, sp, #0x28
    a0e0:	52800002 	mov	w2, #0x0                   	// #0
    a0e4:	f94006a0 	ldr	x0, [x21, #8]
    a0e8:	94000000 	bl	d574 <strtol>	a0e8: R_AARCH64_CALL26	strtol
    a0ec:	b4000100 	cbz	x0, a10c <cmd_exec+0x40>
    a0f0:	f94006a1 	ldr	x1, [x21, #8]
    a0f4:	aa0003f4 	mov	x20, x0
    a0f8:	f94017e0 	ldr	x0, [sp, #40]
    a0fc:	eb00003f 	cmp	x1, x0
    a100:	54000060 	b.eq	a10c <cmd_exec+0x40>  // b.none
    a104:	39400000 	ldrb	w0, [x0]
    a108:	34000160 	cbz	w0, a134 <cmd_exec+0x68>
    a10c:	f94002a2 	ldr	x2, [x21]
    a110:	aa1303e0 	mov	x0, x19
    a114:	f9401a63 	ldr	x3, [x19, #48]
    a118:	90000001 	adrp	x1, f103 <g_fmtarginvalid>	a118: R_AARCH64_ADR_PREL_PG_HI21	g_fmtarginvalid
    a11c:	91000021 	add	x1, x1, #0x0	a11c: R_AARCH64_ADD_ABS_LO12_NC	g_fmtarginvalid
    a120:	d63f0060 	blr	x3
    a124:	12800000 	mov	w0, #0xffffffff            	// #-1
    a128:	a94157f4 	ldp	x20, x21, [sp, #16]
    a12c:	a8c34ffe 	ldp	x30, x19, [sp], #48
    a130:	d65f03c0 	ret
    a134:	f9401e63 	ldr	x3, [x19, #56]
    a138:	aa1403e2 	mov	x2, x20
    a13c:	90000001 	adrp	x1, ebb8 <_srodata>	a13c: R_AARCH64_ADR_PREL_PG_HI21	.rodata+0x1861
    a140:	91000021 	add	x1, x1, #0x0	a140: R_AARCH64_ADD_ABS_LO12_NC	.rodata+0x1861
    a144:	aa1303e0 	mov	x0, x19
    a148:	d63f0060 	blr	x3
    a14c:	d63f0280 	blr	x20
    a150:	17fffff6 	b	a128 <cmd_exec+0x5c>

000000000000a154 <cmd_ps>:
cmd_ps():
    a154:	d102c3ff 	sub	sp, sp, #0xb0
    a158:	90000007 	adrp	x7, ebb8 <_srodata>	a158: R_AARCH64_ADR_PREL_PG_HI21	.rodata+0x186d
    a15c:	90000006 	adrp	x6, ebb8 <_srodata>	a15c: R_AARCH64_ADR_PREL_PG_HI21	.rodata+0x1871
    a160:	910000e7 	add	x7, x7, #0x0	a160: R_AARCH64_ADD_ABS_LO12_NC	.rodata+0x186d
    a164:	910000c6 	add	x6, x6, #0x0	a164: R_AARCH64_ADD_ABS_LO12_NC	.rodata+0x1871
    a168:	90000005 	adrp	x5, ebb8 <_srodata>	a168: R_AARCH64_ADR_PREL_PG_HI21	.rodata+0x1876
    a16c:	a90557f4 	stp	x20, x21, [sp, #80]
    a170:	2a0103f5 	mov	w21, w1
    a174:	90000001 	adrp	x1, ebb8 <_srodata>	a174: R_AARCH64_ADR_PREL_PG_HI21	.rodata+0x18c5
    a178:	91000021 	add	x1, x1, #0x0	a178: R_AARCH64_ADD_ABS_LO12_NC	.rodata+0x18c5
    a17c:	f9001be1 	str	x1, [sp, #48]
    a180:	90000001 	adrp	x1, ebb8 <_srodata>	a180: R_AARCH64_ADR_PREL_PG_HI21	.rodata+0x18d4
    a184:	91000021 	add	x1, x1, #0x0	a184: R_AARCH64_ADD_ABS_LO12_NC	.rodata+0x18d4
    a188:	a9065ff6 	stp	x22, x23, [sp, #96]
    a18c:	aa0203f6 	mov	x22, x2
    a190:	90000002 	adrp	x2, ebb8 <_srodata>	a190: R_AARCH64_ADR_PREL_PG_HI21	.rodata+0x18cd
    a194:	91000042 	add	x2, x2, #0x0	a194: R_AARCH64_ADD_ABS_LO12_NC	.rodata+0x18cd
    a198:	a9020be1 	stp	x1, x2, [sp, #32]
    a19c:	90000002 	adrp	x2, ebb8 <_srodata>	a19c: R_AARCH64_ADR_PREL_PG_HI21	.rodata+0x18d9
    a1a0:	90000001 	adrp	x1, ebb8 <_srodata>	a1a0: R_AARCH64_ADR_PREL_PG_HI21	.rodata+0x18df
    a1a4:	91000042 	add	x2, x2, #0x0	a1a4: R_AARCH64_ADD_ABS_LO12_NC	.rodata+0x18d9
    a1a8:	91000021 	add	x1, x1, #0x0	a1a8: R_AARCH64_ADD_ABS_LO12_NC	.rodata+0x18df
    a1ac:	a9010be1 	stp	x1, x2, [sp, #16]
    a1b0:	90000002 	adrp	x2, ebb8 <_srodata>	a1b0: R_AARCH64_ADR_PREL_PG_HI21	.rodata+0x18e7
    a1b4:	90000001 	adrp	x1, ebb8 <_srodata>	a1b4: R_AARCH64_ADR_PREL_PG_HI21	.rodata+0x18ed
    a1b8:	91000042 	add	x2, x2, #0x0	a1b8: R_AARCH64_ADD_ABS_LO12_NC	.rodata+0x18e7
    a1bc:	91000021 	add	x1, x1, #0x0	a1bc: R_AARCH64_ADD_ABS_LO12_NC	.rodata+0x18ed
    a1c0:	a9000be1 	stp	x1, x2, [sp]
    a1c4:	910000a5 	add	x5, x5, #0x0	a1c4: R_AARCH64_ADD_ABS_LO12_NC	.rodata+0x1876
    a1c8:	a9044ffe 	stp	x30, x19, [sp, #64]
    a1cc:	90000004 	adrp	x4, ebb8 <_srodata>	a1cc: R_AARCH64_ADR_PREL_PG_HI21	.rodata+0x187d
    a1d0:	aa0003f3 	mov	x19, x0
    a1d4:	f9003bf8 	str	x24, [sp, #112]
    a1d8:	91000084 	add	x4, x4, #0x0	a1d8: R_AARCH64_ADD_ABS_LO12_NC	.rodata+0x187d
    a1dc:	90000003 	adrp	x3, ebb8 <_srodata>	a1dc: R_AARCH64_ADR_PREL_PG_HI21	.rodata+0x1881
    a1e0:	90000002 	adrp	x2, ebb8 <_srodata>	a1e0: R_AARCH64_ADR_PREL_PG_HI21	.rodata+0x1887
    a1e4:	f9401c08 	ldr	x8, [x0, #56]
    a1e8:	91000063 	add	x3, x3, #0x0	a1e8: R_AARCH64_ADD_ABS_LO12_NC	.rodata+0x1881
    a1ec:	91000042 	add	x2, x2, #0x0	a1ec: R_AARCH64_ADD_ABS_LO12_NC	.rodata+0x1887
    a1f0:	90000001 	adrp	x1, ebb8 <_srodata>	a1f0: R_AARCH64_ADR_PREL_PG_HI21	.rodata+0x188b
    a1f4:	91000021 	add	x1, x1, #0x0	a1f4: R_AARCH64_ADD_ABS_LO12_NC	.rodata+0x188b
    a1f8:	39021fff 	strb	wzr, [sp, #135]
    a1fc:	d63f0100 	blr	x8
    a200:	39421fe0 	ldrb	w0, [sp, #135]
    a204:	4b0002a0 	sub	w0, w21, w0
    a208:	7100041f 	cmp	w0, #0x1
    a20c:	5400038d 	b.le	a27c <cmd_ps+0x128>
    a210:	90000017 	adrp	x23, ebb8 <_srodata>	a210: R_AARCH64_ADR_PREL_PG_HI21	.rodata+0x18f3
    a214:	910002f7 	add	x23, x23, #0x0	a214: R_AARCH64_ADD_ABS_LO12_NC	.rodata+0x18f3
    a218:	d2800034 	mov	x20, #0x1                   	// #1
    a21c:	52800098 	mov	w24, #0x4                   	// #4
    a220:	f8747ac1 	ldr	x1, [x22, x20, lsl #3]
    a224:	39400020 	ldrb	w0, [x1]
    a228:	5100c000 	sub	w0, w0, #0x30
    a22c:	7100241f 	cmp	w0, #0x9
    a230:	54000128 	b.hi	a254 <cmd_ps+0x100>  // b.pmore
    a234:	910227e0 	add	x0, sp, #0x89
    a238:	390223f8 	strb	w24, [sp, #136]
    a23c:	94000000 	bl	780 <strcpy>	a23c: R_AARCH64_CALL26	strcpy
    a240:	91021fe3 	add	x3, sp, #0x87
    a244:	910223e2 	add	x2, sp, #0x88
    a248:	aa1703e1 	mov	x1, x23
    a24c:	aa1303e0 	mov	x0, x19
    a250:	94000000 	bl	0 <memcpy>	a250: R_AARCH64_CALL26	.text+0x9c3c
    a254:	91000694 	add	x20, x20, #0x1
    a258:	6b1402bf 	cmp	w21, w20
    a25c:	54fffe2c 	b.gt	a220 <cmd_ps+0xcc>
    a260:	52800000 	mov	w0, #0x0                   	// #0
    a264:	f9403bf8 	ldr	x24, [sp, #112]
    a268:	a9444ffe 	ldp	x30, x19, [sp, #64]
    a26c:	a94557f4 	ldp	x20, x21, [sp, #80]
    a270:	a9465ff6 	ldp	x22, x23, [sp, #96]
    a274:	9102c3ff 	add	sp, sp, #0xb0
    a278:	d65f03c0 	ret
    a27c:	91021fe4 	add	x4, sp, #0x87
    a280:	aa1303e0 	mov	x0, x19
    a284:	90000003 	adrp	x3, 0 <memcpy>	a284: R_AARCH64_ADR_PREL_PG_HI21	.text+0x9c3c
    a288:	90000002 	adrp	x2, ebb8 <_srodata>	a288: R_AARCH64_ADR_PREL_PG_HI21	.rodata+0x18f3
    a28c:	91000063 	add	x3, x3, #0x0	a28c: R_AARCH64_ADD_ABS_LO12_NC	.text+0x9c3c
    a290:	91000042 	add	x2, x2, #0x0	a290: R_AARCH64_ADD_ABS_LO12_NC	.rodata+0x18f3
    a294:	90000001 	adrp	x1, ebb8 <_srodata>	a294: R_AARCH64_ADR_PREL_PG_HI21	.rodata+0x1802
    a298:	91000021 	add	x1, x1, #0x0	a298: R_AARCH64_ADD_ABS_LO12_NC	.rodata+0x1802
    a29c:	94000000 	bl	9344 <nsh_foreach_direntry>	a29c: R_AARCH64_CALL26	nsh_foreach_direntry
    a2a0:	17fffff1 	b	a264 <cmd_ps+0x110>

000000000000a2a4 <cmd_pidof>:
cmd_pidof():
    a2a4:	a9ba4ffe 	stp	x30, x19, [sp, #-96]!
    a2a8:	8b21cc41 	add	x1, x2, w1, sxtw #3
    a2ac:	aa0003f3 	mov	x19, x0
    a2b0:	a90157f4 	stp	x20, x21, [sp, #16]
    a2b4:	d2800103 	mov	x3, #0x8                   	// #8
    a2b8:	a9025ff6 	stp	x22, x23, [sp, #32]
    a2bc:	910103f7 	add	x23, sp, #0x40
    a2c0:	aa0203f6 	mov	x22, x2
    a2c4:	f9001bf8 	str	x24, [sp, #48]
    a2c8:	aa1703e2 	mov	x2, x23
    a2cc:	f85f8038 	ldur	x24, [x1, #-8]
    a2d0:	aa1803e1 	mov	x1, x24
    a2d4:	94000000 	bl	9544 <nsh_getpid>	a2d4: R_AARCH64_CALL26	nsh_getpid
    a2d8:	f100001f 	cmp	x0, #0x0
    a2dc:	5400028d 	b.le	a32c <cmd_pidof+0x88>
    a2e0:	90000016 	adrp	x22, ebb8 <_srodata>	a2e0: R_AARCH64_ADR_PREL_PG_HI21	.rodata+0x18fe
    a2e4:	aa0003f5 	mov	x21, x0
    a2e8:	910002d6 	add	x22, x22, #0x0	a2e8: R_AARCH64_ADD_ABS_LO12_NC	.rodata+0x18fe
    a2ec:	d2800014 	mov	x20, #0x0                   	// #0
    a2f0:	f9401e63 	ldr	x3, [x19, #56]
    a2f4:	aa1603e1 	mov	x1, x22
    a2f8:	b8747ae2 	ldr	w2, [x23, x20, lsl #2]
    a2fc:	aa1303e0 	mov	x0, x19
    a300:	91000694 	add	x20, x20, #0x1
    a304:	d63f0060 	blr	x3
    a308:	eb1402bf 	cmp	x21, x20
    a30c:	54ffff21 	b.ne	a2f0 <cmd_pidof+0x4c>  // b.any
    a310:	f9401e62 	ldr	x2, [x19, #56]
    a314:	aa1303e0 	mov	x0, x19
    a318:	90000001 	adrp	x1, ebb8 <_srodata>	a318: R_AARCH64_ADR_PREL_PG_HI21	.rodata+0x1902
    a31c:	91000021 	add	x1, x1, #0x0	a31c: R_AARCH64_ADD_ABS_LO12_NC	.rodata+0x1902
    a320:	d63f0040 	blr	x2
    a324:	52800000 	mov	w0, #0x0                   	// #0
    a328:	1400000b 	b	a354 <cmd_pidof+0xb0>
    a32c:	f94002c2 	ldr	x2, [x22]
    a330:	aa1803e4 	mov	x4, x24
    a334:	f9401a65 	ldr	x5, [x19, #48]
    a338:	aa1303e0 	mov	x0, x19
    a33c:	90000003 	adrp	x3, ebb8 <_srodata>	a33c: R_AARCH64_ADR_PREL_PG_HI21	.rodata+0x18f9
    a340:	90000001 	adrp	x1, f0b1 <g_fmtnosuch>	a340: R_AARCH64_ADR_PREL_PG_HI21	g_fmtnosuch
    a344:	91000063 	add	x3, x3, #0x0	a344: R_AARCH64_ADD_ABS_LO12_NC	.rodata+0x18f9
    a348:	91000021 	add	x1, x1, #0x0	a348: R_AARCH64_ADD_ABS_LO12_NC	g_fmtnosuch
    a34c:	d63f00a0 	blr	x5
    a350:	12800000 	mov	w0, #0xffffffff            	// #-1
    a354:	f9401bf8 	ldr	x24, [sp, #48]
    a358:	a94157f4 	ldp	x20, x21, [sp, #16]
    a35c:	a9425ff6 	ldp	x22, x23, [sp, #32]
    a360:	a8c64ffe 	ldp	x30, x19, [sp], #96
    a364:	d65f03c0 	ret

000000000000a368 <cmd_kill>:
cmd_kill():
    a368:	a9bc4ffe 	stp	x30, x19, [sp, #-64]!
    a36c:	aa0203f3 	mov	x19, x2
    a370:	a90157f4 	stp	x20, x21, [sp, #16]
    a374:	aa0003f4 	mov	x20, x0
    a378:	f90013f6 	str	x22, [sp, #32]
    a37c:	71000c3f 	cmp	w1, #0x3
    a380:	54000381 	b.ne	a3f0 <cmd_kill+0x88>  // b.any
    a384:	f9400440 	ldr	x0, [x2, #8]
    a388:	39400001 	ldrb	w1, [x0]
    a38c:	7100b43f 	cmp	w1, #0x2d
    a390:	54000221 	b.ne	a3d4 <cmd_kill+0x6c>  // b.any
    a394:	39400401 	ldrb	w1, [x0, #1]
    a398:	5100c021 	sub	w1, w1, #0x30
    a39c:	12001c21 	and	w1, w1, #0xff
    a3a0:	7100243f 	cmp	w1, #0x9
    a3a4:	54000188 	b.hi	a3d4 <cmd_kill+0x6c>  // b.pmore
    a3a8:	52800002 	mov	w2, #0x0                   	// #0
    a3ac:	9100e3e1 	add	x1, sp, #0x38
    a3b0:	91000400 	add	x0, x0, #0x1
    a3b4:	94000000 	bl	d574 <strtol>	a3b4: R_AARCH64_CALL26	strtol
    a3b8:	aa0003f5 	mov	x21, x0
    a3bc:	f9400a60 	ldr	x0, [x19, #16]
    a3c0:	39400002 	ldrb	w2, [x0]
    a3c4:	5100c042 	sub	w2, w2, #0x30
    a3c8:	12001c42 	and	w2, w2, #0xff
    a3cc:	7100245f 	cmp	w2, #0x9
    a3d0:	54000229 	b.ls	a414 <cmd_kill+0xac>  // b.plast
    a3d4:	f9400262 	ldr	x2, [x19]
    a3d8:	aa1403e0 	mov	x0, x20
    a3dc:	f9401a83 	ldr	x3, [x20, #48]
    a3e0:	90000001 	adrp	x1, f103 <g_fmtarginvalid>	a3e0: R_AARCH64_ADR_PREL_PG_HI21	g_fmtarginvalid
    a3e4:	91000021 	add	x1, x1, #0x0	a3e4: R_AARCH64_ADD_ABS_LO12_NC	g_fmtarginvalid
    a3e8:	d63f0060 	blr	x3
    a3ec:	1400002a 	b	a494 <cmd_kill+0x12c>
    a3f0:	7100083f 	cmp	w1, #0x2
    a3f4:	54ffff01 	b.ne	a3d4 <cmd_kill+0x6c>  // b.any
    a3f8:	f9400440 	ldr	x0, [x2, #8]
    a3fc:	39400001 	ldrb	w1, [x0]
    a400:	5100c021 	sub	w1, w1, #0x30
    a404:	12001c21 	and	w1, w1, #0xff
    a408:	7100243f 	cmp	w1, #0x9
    a40c:	54fffe48 	b.hi	a3d4 <cmd_kill+0x6c>  // b.pmore
    a410:	d28001f5 	mov	x21, #0xf                   	// #15
    a414:	52800002 	mov	w2, #0x0                   	// #0
    a418:	9100e3e1 	add	x1, sp, #0x38
    a41c:	94000000 	bl	d574 <strtol>	a41c: R_AARCH64_CALL26	strtol
    a420:	2a1503e1 	mov	w1, w21
    a424:	94000000 	bl	e8ec <kill>	a424: R_AARCH64_CALL26	kill
    a428:	34000380 	cbz	w0, a498 <cmd_kill+0x130>
    a42c:	94000000 	bl	2454 <__errno>	a42c: R_AARCH64_CALL26	__errno
    a430:	b9400000 	ldr	w0, [x0]
    a434:	f9400276 	ldr	x22, [x19]
    a438:	f9401a95 	ldr	x21, [x20, #48]
    a43c:	71000c1f 	cmp	w0, #0x3
    a440:	540001a0 	b.eq	a474 <cmd_kill+0x10c>  // b.none
    a444:	7100581f 	cmp	w0, #0x16
    a448:	54fffc60 	b.eq	a3d4 <cmd_kill+0x6c>  // b.none
    a44c:	94000000 	bl	2454 <__errno>	a44c: R_AARCH64_CALL26	__errno
    a450:	b9400004 	ldr	w4, [x0]
    a454:	aa1603e2 	mov	x2, x22
    a458:	aa1403e0 	mov	x0, x20
    a45c:	90000003 	adrp	x3, ebb8 <_srodata>	a45c: R_AARCH64_ADR_PREL_PG_HI21	.rodata+0x1904
    a460:	90000001 	adrp	x1, f03d <g_fmtcmdfailed>	a460: R_AARCH64_ADR_PREL_PG_HI21	g_fmtcmdfailed
    a464:	91000063 	add	x3, x3, #0x0	a464: R_AARCH64_ADD_ABS_LO12_NC	.rodata+0x1904
    a468:	91000021 	add	x1, x1, #0x0	a468: R_AARCH64_ADD_ABS_LO12_NC	g_fmtcmdfailed
    a46c:	d63f02a0 	blr	x21
    a470:	14000009 	b	a494 <cmd_kill+0x12c>
    a474:	f9400a64 	ldr	x4, [x19, #16]
    a478:	90000003 	adrp	x3, ebb8 <_srodata>	a478: R_AARCH64_ADR_PREL_PG_HI21	.rodata+0x18f9
    a47c:	90000001 	adrp	x1, f0b1 <g_fmtnosuch>	a47c: R_AARCH64_ADR_PREL_PG_HI21	g_fmtnosuch
    a480:	91000063 	add	x3, x3, #0x0	a480: R_AARCH64_ADD_ABS_LO12_NC	.rodata+0x18f9
    a484:	aa1603e2 	mov	x2, x22
    a488:	91000021 	add	x1, x1, #0x0	a488: R_AARCH64_ADD_ABS_LO12_NC	g_fmtnosuch
    a48c:	aa1403e0 	mov	x0, x20
    a490:	d63f02a0 	blr	x21
    a494:	12800000 	mov	w0, #0xffffffff            	// #-1
    a498:	f94013f6 	ldr	x22, [sp, #32]
    a49c:	a94157f4 	ldp	x20, x21, [sp, #16]
    a4a0:	a8c44ffe 	ldp	x30, x19, [sp], #64
    a4a4:	d65f03c0 	ret

000000000000a4a8 <cmd_pkill>:
cmd_pkill():
    a4a8:	a9ba4ffe 	stp	x30, x19, [sp, #-96]!
    a4ac:	aa0003f3 	mov	x19, x0
    a4b0:	a90157f4 	stp	x20, x21, [sp, #16]
    a4b4:	aa0203f4 	mov	x20, x2
    a4b8:	a9025ff6 	stp	x22, x23, [sp, #32]
    a4bc:	a90367f8 	stp	x24, x25, [sp, #48]
    a4c0:	71000c3f 	cmp	w1, #0x3
    a4c4:	540004e1 	b.ne	a560 <cmd_pkill+0xb8>  // b.any
    a4c8:	f9400440 	ldr	x0, [x2, #8]
    a4cc:	39400001 	ldrb	w1, [x0]
    a4d0:	7100b43f 	cmp	w1, #0x2d
    a4d4:	54000941 	b.ne	a5fc <cmd_pkill+0x154>  // b.any
    a4d8:	39400401 	ldrb	w1, [x0, #1]
    a4dc:	5100c021 	sub	w1, w1, #0x30
    a4e0:	12001c21 	and	w1, w1, #0xff
    a4e4:	7100243f 	cmp	w1, #0x9
    a4e8:	540008a8 	b.hi	a5fc <cmd_pkill+0x154>  // b.pmore
    a4ec:	91000400 	add	x0, x0, #0x1
    a4f0:	94000000 	bl	d2d0 <atoi>	a4f0: R_AARCH64_CALL26	atoi
    a4f4:	f9400a98 	ldr	x24, [x20, #16]
    a4f8:	2a0003f7 	mov	w23, w0
    a4fc:	910103f9 	add	x25, sp, #0x40
    a500:	aa1803e1 	mov	x1, x24
    a504:	aa1903e2 	mov	x2, x25
    a508:	aa1303e0 	mov	x0, x19
    a50c:	d2800103 	mov	x3, #0x8                   	// #8
    a510:	d2800016 	mov	x22, #0x0                   	// #0
    a514:	94000000 	bl	9544 <nsh_getpid>	a514: R_AARCH64_CALL26	nsh_getpid
    a518:	aa0003f5 	mov	x21, x0
    a51c:	f100001f 	cmp	x0, #0x0
    a520:	5400042c 	b.gt	a5a4 <cmd_pkill+0xfc>
    a524:	f9400282 	ldr	x2, [x20]
    a528:	90000003 	adrp	x3, ebb8 <_srodata>	a528: R_AARCH64_ADR_PREL_PG_HI21	.rodata+0x18f9
    a52c:	f9401a65 	ldr	x5, [x19, #48]
    a530:	90000001 	adrp	x1, f0b1 <g_fmtnosuch>	a530: R_AARCH64_ADR_PREL_PG_HI21	g_fmtnosuch
    a534:	aa1803e4 	mov	x4, x24
    a538:	91000063 	add	x3, x3, #0x0	a538: R_AARCH64_ADD_ABS_LO12_NC	.rodata+0x18f9
    a53c:	91000021 	add	x1, x1, #0x0	a53c: R_AARCH64_ADD_ABS_LO12_NC	g_fmtnosuch
    a540:	aa1303e0 	mov	x0, x19
    a544:	d63f00a0 	blr	x5
    a548:	12800000 	mov	w0, #0xffffffff            	// #-1
    a54c:	a94157f4 	ldp	x20, x21, [sp, #16]
    a550:	a9425ff6 	ldp	x22, x23, [sp, #32]
    a554:	a94367f8 	ldp	x24, x25, [sp, #48]
    a558:	a8c64ffe 	ldp	x30, x19, [sp], #96
    a55c:	d65f03c0 	ret
    a560:	7100083f 	cmp	w1, #0x2
    a564:	540004c1 	b.ne	a5fc <cmd_pkill+0x154>  // b.any
    a568:	f9400458 	ldr	x24, [x2, #8]
    a56c:	528001f7 	mov	w23, #0xf                   	// #15
    a570:	17ffffe3 	b	a4fc <cmd_pkill+0x54>
    a574:	f9400a84 	ldr	x4, [x20, #16]
    a578:	aa1603e2 	mov	x2, x22
    a57c:	aa1303e0 	mov	x0, x19
    a580:	90000003 	adrp	x3, ebb8 <_srodata>	a580: R_AARCH64_ADR_PREL_PG_HI21	.rodata+0x18f9
    a584:	90000001 	adrp	x1, f0b1 <g_fmtnosuch>	a584: R_AARCH64_ADR_PREL_PG_HI21	g_fmtnosuch
    a588:	91000063 	add	x3, x3, #0x0	a588: R_AARCH64_ADD_ABS_LO12_NC	.rodata+0x18f9
    a58c:	91000021 	add	x1, x1, #0x0	a58c: R_AARCH64_ADD_ABS_LO12_NC	g_fmtnosuch
    a590:	d63f02a0 	blr	x21
    a594:	17ffffed 	b	a548 <cmd_pkill+0xa0>
    a598:	910006d6 	add	x22, x22, #0x1
    a59c:	eb1502df 	cmp	x22, x21
    a5a0:	54fffd60 	b.eq	a54c <cmd_pkill+0xa4>  // b.none
    a5a4:	b8767b20 	ldr	w0, [x25, x22, lsl #2]
    a5a8:	2a1703e1 	mov	w1, w23
    a5ac:	94000000 	bl	e8ec <kill>	a5ac: R_AARCH64_CALL26	kill
    a5b0:	34ffff40 	cbz	w0, a598 <cmd_pkill+0xf0>
    a5b4:	94000000 	bl	2454 <__errno>	a5b4: R_AARCH64_CALL26	__errno
    a5b8:	b9400000 	ldr	w0, [x0]
    a5bc:	f9400296 	ldr	x22, [x20]
    a5c0:	f9401a75 	ldr	x21, [x19, #48]
    a5c4:	71000c1f 	cmp	w0, #0x3
    a5c8:	54fffd60 	b.eq	a574 <cmd_pkill+0xcc>  // b.none
    a5cc:	7100581f 	cmp	w0, #0x16
    a5d0:	54000160 	b.eq	a5fc <cmd_pkill+0x154>  // b.none
    a5d4:	94000000 	bl	2454 <__errno>	a5d4: R_AARCH64_CALL26	__errno
    a5d8:	b9400004 	ldr	w4, [x0]
    a5dc:	aa1603e2 	mov	x2, x22
    a5e0:	aa1303e0 	mov	x0, x19
    a5e4:	90000003 	adrp	x3, ebb8 <_srodata>	a5e4: R_AARCH64_ADR_PREL_PG_HI21	.rodata+0x1904
    a5e8:	90000001 	adrp	x1, f03d <g_fmtcmdfailed>	a5e8: R_AARCH64_ADR_PREL_PG_HI21	g_fmtcmdfailed
    a5ec:	91000063 	add	x3, x3, #0x0	a5ec: R_AARCH64_ADD_ABS_LO12_NC	.rodata+0x1904
    a5f0:	91000021 	add	x1, x1, #0x0	a5f0: R_AARCH64_ADD_ABS_LO12_NC	g_fmtcmdfailed
    a5f4:	d63f02a0 	blr	x21
    a5f8:	17ffffd4 	b	a548 <cmd_pkill+0xa0>
    a5fc:	f9400282 	ldr	x2, [x20]
    a600:	aa1303e0 	mov	x0, x19
    a604:	f9401a63 	ldr	x3, [x19, #48]
    a608:	90000001 	adrp	x1, f103 <g_fmtarginvalid>	a608: R_AARCH64_ADR_PREL_PG_HI21	g_fmtarginvalid
    a60c:	91000021 	add	x1, x1, #0x0	a60c: R_AARCH64_ADD_ABS_LO12_NC	g_fmtarginvalid
    a610:	d63f0060 	blr	x3
    a614:	17ffffcd 	b	a548 <cmd_pkill+0xa0>

000000000000a618 <cmd_sleep>:
cmd_sleep():
    a618:	a9bd4ffe 	stp	x30, x19, [sp, #-48]!
    a61c:	aa0203f3 	mov	x19, x2
    a620:	52800002 	mov	w2, #0x0                   	// #0
    a624:	f9000bf4 	str	x20, [sp, #16]
    a628:	aa0003f4 	mov	x20, x0
    a62c:	9100a3e1 	add	x1, sp, #0x28
    a630:	f9400660 	ldr	x0, [x19, #8]
    a634:	94000000 	bl	d574 <strtol>	a634: R_AARCH64_CALL26	strtol
    a638:	b40000e0 	cbz	x0, a654 <cmd_sleep+0x3c>
    a63c:	f9400662 	ldr	x2, [x19, #8]
    a640:	f94017e1 	ldr	x1, [sp, #40]
    a644:	eb01005f 	cmp	x2, x1
    a648:	54000060 	b.eq	a654 <cmd_sleep+0x3c>  // b.none
    a64c:	39400021 	ldrb	w1, [x1]
    a650:	34000161 	cbz	w1, a67c <cmd_sleep+0x64>
    a654:	f9400262 	ldr	x2, [x19]
    a658:	aa1403e0 	mov	x0, x20
    a65c:	f9401a83 	ldr	x3, [x20, #48]
    a660:	90000001 	adrp	x1, f103 <g_fmtarginvalid>	a660: R_AARCH64_ADR_PREL_PG_HI21	g_fmtarginvalid
    a664:	91000021 	add	x1, x1, #0x0	a664: R_AARCH64_ADD_ABS_LO12_NC	g_fmtarginvalid
    a668:	d63f0060 	blr	x3
    a66c:	12800000 	mov	w0, #0xffffffff            	// #-1
    a670:	f9400bf4 	ldr	x20, [sp, #16]
    a674:	a8c34ffe 	ldp	x30, x19, [sp], #48
    a678:	d65f03c0 	ret
    a67c:	94000000 	bl	e104 <sleep>	a67c: R_AARCH64_CALL26	sleep
    a680:	52800000 	mov	w0, #0x0                   	// #0
    a684:	17fffffb 	b	a670 <cmd_sleep+0x58>

000000000000a688 <cmd_usleep>:
cmd_usleep():
    a688:	a9bd4ffe 	stp	x30, x19, [sp, #-48]!
    a68c:	aa0203f3 	mov	x19, x2
    a690:	52800002 	mov	w2, #0x0                   	// #0
    a694:	f9000bf4 	str	x20, [sp, #16]
    a698:	aa0003f4 	mov	x20, x0
    a69c:	9100a3e1 	add	x1, sp, #0x28
    a6a0:	f9400660 	ldr	x0, [x19, #8]
    a6a4:	94000000 	bl	d574 <strtol>	a6a4: R_AARCH64_CALL26	strtol
    a6a8:	b40000e0 	cbz	x0, a6c4 <cmd_usleep+0x3c>
    a6ac:	f9400662 	ldr	x2, [x19, #8]
    a6b0:	f94017e1 	ldr	x1, [sp, #40]
    a6b4:	eb01005f 	cmp	x2, x1
    a6b8:	54000060 	b.eq	a6c4 <cmd_usleep+0x3c>  // b.none
    a6bc:	39400021 	ldrb	w1, [x1]
    a6c0:	34000161 	cbz	w1, a6ec <cmd_usleep+0x64>
    a6c4:	f9400262 	ldr	x2, [x19]
    a6c8:	aa1403e0 	mov	x0, x20
    a6cc:	f9401a83 	ldr	x3, [x20, #48]
    a6d0:	90000001 	adrp	x1, f103 <g_fmtarginvalid>	a6d0: R_AARCH64_ADR_PREL_PG_HI21	g_fmtarginvalid
    a6d4:	91000021 	add	x1, x1, #0x0	a6d4: R_AARCH64_ADD_ABS_LO12_NC	g_fmtarginvalid
    a6d8:	d63f0060 	blr	x3
    a6dc:	12800000 	mov	w0, #0xffffffff            	// #-1
    a6e0:	f9400bf4 	ldr	x20, [sp, #16]
    a6e4:	a8c34ffe 	ldp	x30, x19, [sp], #48
    a6e8:	d65f03c0 	ret
    a6ec:	94000000 	bl	e170 <usleep>	a6ec: R_AARCH64_CALL26	usleep
    a6f0:	52800000 	mov	w0, #0x0                   	// #0
    a6f4:	17fffffb 	b	a6e0 <cmd_usleep+0x58>

000000000000a6f8 <cmd_uptime>:
cmd_uptime():
    a6f8:	a9b44ffe 	stp	x30, x19, [sp, #-192]!
    a6fc:	aa0003f3 	mov	x19, x0
    a700:	a90157f4 	stp	x20, x21, [sp, #16]
    a704:	a9025ff6 	stp	x22, x23, [sp, #32]
    a708:	f9001bf8 	str	x24, [sp, #48]
    a70c:	7100043f 	cmp	w1, #0x1
    a710:	54000c8c 	b.gt	a8a0 <cmd_uptime+0x1a8>
    a714:	d2800000 	mov	x0, #0x0                   	// #0
    a718:	94000000 	bl	de10 <time>	a718: R_AARCH64_CALL26	time
    a71c:	f90027e0 	str	x0, [sp, #72]
    a720:	910123e0 	add	x0, sp, #0x48
    a724:	94000000 	bl	de50 <localtime>	a724: R_AARCH64_CALL26	localtime
    a728:	b9400802 	ldr	w2, [x0, #8]
    a72c:	f9401e65 	ldr	x5, [x19, #56]
    a730:	90000001 	adrp	x1, ebb8 <_srodata>	a730: R_AARCH64_ADR_PREL_PG_HI21	.rodata+0x190b
    a734:	29400c04 	ldp	w4, w3, [x0]
    a738:	91000021 	add	x1, x1, #0x0	a738: R_AARCH64_ADD_ABS_LO12_NC	.rodata+0x190b
    a73c:	aa1303e0 	mov	x0, x19
    a740:	52800037 	mov	w23, #0x1                   	// #1
    a744:	52800018 	mov	w24, #0x0                   	// #0
    a748:	d63f00a0 	blr	x5
    a74c:	910143e0 	add	x0, sp, #0x50
    a750:	94000000 	bl	eb28 <sysinfo>	a750: R_AARCH64_CALL26	sysinfo
    a754:	f9402bf4 	ldr	x20, [sp, #80]
    a758:	d28a3000 	mov	x0, #0x5180                	// #20864
    a75c:	f2a00020 	movk	x0, #0x1, lsl #16
    a760:	90000001 	adrp	x1, ebb8 <_srodata>	a760: R_AARCH64_ADR_PREL_PG_HI21	.rodata+0x19dc
    a764:	f9401e62 	ldr	x2, [x19, #56]
    a768:	91000021 	add	x1, x1, #0x0	a768: R_AARCH64_ADD_ABS_LO12_NC	.rodata+0x19dc
    a76c:	9ac00a96 	udiv	x22, x20, x0
    a770:	1b167c00 	mul	w0, w0, w22
    a774:	cb204294 	sub	x20, x20, w0, uxtw
    a778:	d281c200 	mov	x0, #0xe10                 	// #3600
    a77c:	9ac00a95 	udiv	x21, x20, x0
    a780:	1b157c00 	mul	w0, w0, w21
    a784:	cb204294 	sub	x20, x20, w0, uxtw
    a788:	d2800780 	mov	x0, #0x3c                  	// #60
    a78c:	9ac00a94 	udiv	x20, x20, x0
    a790:	aa1303e0 	mov	x0, x19
    a794:	d63f0040 	blr	x2
    a798:	340001b6 	cbz	w22, a7cc <cmd_uptime+0xd4>
    a79c:	f9401e64 	ldr	x4, [x19, #56]
    a7a0:	710006df 	cmp	w22, #0x1
    a7a4:	90000000 	adrp	x0, ebb8 <_srodata>	a7a4: R_AARCH64_ADR_PREL_PG_HI21	.rodata+0x1909
    a7a8:	90000003 	adrp	x3, ebb8 <_srodata>	a7a8: R_AARCH64_ADR_PREL_PG_HI21	.rodata+0x1805
    a7ac:	91000000 	add	x0, x0, #0x0	a7ac: R_AARCH64_ADD_ABS_LO12_NC	.rodata+0x1909
    a7b0:	91000063 	add	x3, x3, #0x0	a7b0: R_AARCH64_ADD_ABS_LO12_NC	.rodata+0x1805
    a7b4:	9a800063 	csel	x3, x3, x0, eq	// eq = none
    a7b8:	90000001 	adrp	x1, ebb8 <_srodata>	a7b8: R_AARCH64_ADR_PREL_PG_HI21	.rodata+0x19e0
    a7bc:	2a1603e2 	mov	w2, w22
    a7c0:	91000021 	add	x1, x1, #0x0	a7c0: R_AARCH64_ADD_ABS_LO12_NC	.rodata+0x19e0
    a7c4:	aa1303e0 	mov	x0, x19
    a7c8:	d63f0080 	blr	x4
    a7cc:	f9401e64 	ldr	x4, [x19, #56]
    a7d0:	340010d8 	cbz	w24, a9e8 <cmd_uptime+0x2f0>
    a7d4:	34000195 	cbz	w21, a804 <cmd_uptime+0x10c>
    a7d8:	710006bf 	cmp	w21, #0x1
    a7dc:	90000000 	adrp	x0, ebb8 <_srodata>	a7dc: R_AARCH64_ADR_PREL_PG_HI21	.rodata+0x1909
    a7e0:	90000003 	adrp	x3, ebb8 <_srodata>	a7e0: R_AARCH64_ADR_PREL_PG_HI21	.rodata+0x1805
    a7e4:	91000000 	add	x0, x0, #0x0	a7e4: R_AARCH64_ADD_ABS_LO12_NC	.rodata+0x1909
    a7e8:	91000063 	add	x3, x3, #0x0	a7e8: R_AARCH64_ADD_ABS_LO12_NC	.rodata+0x1805
    a7ec:	90000001 	adrp	x1, ebb8 <_srodata>	a7ec: R_AARCH64_ADR_PREL_PG_HI21	.rodata+0x19eb
    a7f0:	9a800063 	csel	x3, x3, x0, eq	// eq = none
    a7f4:	2a1503e2 	mov	w2, w21
    a7f8:	91000021 	add	x1, x1, #0x0	a7f8: R_AARCH64_ADD_ABS_LO12_NC	.rodata+0x19eb
    a7fc:	aa1303e0 	mov	x0, x19
    a800:	d63f0080 	blr	x4
    a804:	f9401e64 	ldr	x4, [x19, #56]
    a808:	71000a9f 	cmp	w20, #0x2
    a80c:	90000000 	adrp	x0, ebb8 <_srodata>	a80c: R_AARCH64_ADR_PREL_PG_HI21	.rodata+0x1909
    a810:	90000003 	adrp	x3, ebb8 <_srodata>	a810: R_AARCH64_ADR_PREL_PG_HI21	.rodata+0x1805
    a814:	91000000 	add	x0, x0, #0x0	a814: R_AARCH64_ADD_ABS_LO12_NC	.rodata+0x1909
    a818:	91000063 	add	x3, x3, #0x0	a818: R_AARCH64_ADD_ABS_LO12_NC	.rodata+0x1805
    a81c:	9a803063 	csel	x3, x3, x0, cc	// cc = lo, ul, last
    a820:	90000001 	adrp	x1, ebb8 <_srodata>	a820: R_AARCH64_ADR_PREL_PG_HI21	.rodata+0x19f7
    a824:	2a1403e2 	mov	w2, w20
    a828:	91000021 	add	x1, x1, #0x0	a828: R_AARCH64_ADD_ABS_LO12_NC	.rodata+0x19f7
    a82c:	aa1303e0 	mov	x0, x19
    a830:	d63f0080 	blr	x4
    a834:	340002b7 	cbz	w23, a888 <cmd_uptime+0x190>
    a838:	a94593e2 	ldp	x2, x4, [sp, #88]
    a83c:	52800c80 	mov	w0, #0x64                  	// #100
    a840:	f94037e6 	ldr	x6, [sp, #104]
    a844:	90000001 	adrp	x1, ebb8 <_srodata>	a844: R_AARCH64_ADR_PREL_PG_HI21	.rodata+0x1a0c
    a848:	f9401e68 	ldr	x8, [x19, #56]
    a84c:	92403cc7 	and	x7, x6, #0xffff
    a850:	92403c85 	and	x5, x4, #0xffff
    a854:	92403c43 	and	x3, x2, #0xffff
    a858:	91000021 	add	x1, x1, #0x0	a858: R_AARCH64_ADD_ABS_LO12_NC	.rodata+0x1a0c
    a85c:	d350fcc6 	lsr	x6, x6, #16
    a860:	9ba07ce7 	umull	x7, w7, w0
    a864:	d350fc84 	lsr	x4, x4, #16
    a868:	9ba07ca5 	umull	x5, w5, w0
    a86c:	d350fc42 	lsr	x2, x2, #16
    a870:	9ba07c63 	umull	x3, w3, w0
    a874:	aa1303e0 	mov	x0, x19
    a878:	d350fce7 	lsr	x7, x7, #16
    a87c:	d350fca5 	lsr	x5, x5, #16
    a880:	d350fc63 	lsr	x3, x3, #16
    a884:	d63f0100 	blr	x8
    a888:	f9401e62 	ldr	x2, [x19, #56]
    a88c:	aa1303e0 	mov	x0, x19
    a890:	90000001 	adrp	x1, ebb8 <_srodata>	a890: R_AARCH64_ADR_PREL_PG_HI21	.rodata+0x1902
    a894:	91000021 	add	x1, x1, #0x0	a894: R_AARCH64_ADD_ABS_LO12_NC	.rodata+0x1902
    a898:	d63f0040 	blr	x2
    a89c:	1400001f 	b	a918 <cmd_uptime+0x220>
    a8a0:	f9400454 	ldr	x20, [x2, #8]
    a8a4:	90000001 	adrp	x1, ebb8 <_srodata>	a8a4: R_AARCH64_ADR_PREL_PG_HI21	.rodata+0x191b
    a8a8:	91000021 	add	x1, x1, #0x0	a8a8: R_AARCH64_ADD_ABS_LO12_NC	.rodata+0x191b
    a8ac:	aa1403e0 	mov	x0, x20
    a8b0:	94000000 	bl	680 <strcmp>	a8b0: R_AARCH64_CALL26	strcmp
    a8b4:	34000940 	cbz	w0, a9dc <cmd_uptime+0x2e4>
    a8b8:	90000001 	adrp	x1, ebb8 <_srodata>	a8b8: R_AARCH64_ADR_PREL_PG_HI21	.rodata+0x191e
    a8bc:	aa1403e0 	mov	x0, x20
    a8c0:	91000021 	add	x1, x1, #0x0	a8c0: R_AARCH64_ADD_ABS_LO12_NC	.rodata+0x191e
    a8c4:	94000000 	bl	680 <strcmp>	a8c4: R_AARCH64_CALL26	strcmp
    a8c8:	350002c0 	cbnz	w0, a920 <cmd_uptime+0x228>
    a8cc:	910143e0 	add	x0, sp, #0x50
    a8d0:	94000000 	bl	eb28 <sysinfo>	a8d0: R_AARCH64_CALL26	sysinfo
    a8d4:	910123e0 	add	x0, sp, #0x48
    a8d8:	94000000 	bl	de10 <time>	a8d8: R_AARCH64_CALL26	time
    a8dc:	a94487e0 	ldp	x0, x1, [sp, #72]
    a8e0:	cb010000 	sub	x0, x0, x1
    a8e4:	f90027e0 	str	x0, [sp, #72]
    a8e8:	910123e0 	add	x0, sp, #0x48
    a8ec:	94000000 	bl	de50 <localtime>	a8ec: R_AARCH64_CALL26	localtime
    a8f0:	f9401e68 	ldr	x8, [x19, #56]
    a8f4:	90000001 	adrp	x1, ebb8 <_srodata>	a8f4: R_AARCH64_ADR_PREL_PG_HI21	.rodata+0x1921
    a8f8:	29401807 	ldp	w7, w6, [x0]
    a8fc:	91000021 	add	x1, x1, #0x0	a8fc: R_AARCH64_ADD_ABS_LO12_NC	.rodata+0x1921
    a900:	29411005 	ldp	w5, w4, [x0, #8]
    a904:	29420803 	ldp	w3, w2, [x0, #16]
    a908:	aa1303e0 	mov	x0, x19
    a90c:	11000463 	add	w3, w3, #0x1
    a910:	111db042 	add	w2, w2, #0x76c
    a914:	d63f0100 	blr	x8
    a918:	52800000 	mov	w0, #0x0                   	// #0
    a91c:	1400002b 	b	a9c8 <cmd_uptime+0x2d0>
    a920:	90000001 	adrp	x1, ebb8 <_srodata>	a920: R_AARCH64_ADR_PREL_PG_HI21	.rodata+0x1940
    a924:	aa1403e0 	mov	x0, x20
    a928:	91000021 	add	x1, x1, #0x0	a928: R_AARCH64_ADD_ABS_LO12_NC	.rodata+0x1940
    a92c:	94000000 	bl	680 <strcmp>	a92c: R_AARCH64_CALL26	strcmp
    a930:	340000e0 	cbz	w0, a94c <cmd_uptime+0x254>
    a934:	f9401e63 	ldr	x3, [x19, #56]
    a938:	90000001 	adrp	x1, ebb8 <_srodata>	a938: R_AARCH64_ADR_PREL_PG_HI21	.rodata+0x1943
    a93c:	aa1403e2 	mov	x2, x20
    a940:	91000021 	add	x1, x1, #0x0	a940: R_AARCH64_ADD_ABS_LO12_NC	.rodata+0x1943
    a944:	aa1303e0 	mov	x0, x19
    a948:	d63f0060 	blr	x3
    a94c:	f9401e62 	ldr	x2, [x19, #56]
    a950:	aa1303e0 	mov	x0, x19
    a954:	90000001 	adrp	x1, ebb8 <_srodata>	a954: R_AARCH64_ADR_PREL_PG_HI21	.rodata+0x1961
    a958:	91000021 	add	x1, x1, #0x0	a958: R_AARCH64_ADD_ABS_LO12_NC	.rodata+0x1961
    a95c:	d63f0040 	blr	x2
    a960:	f9401e62 	ldr	x2, [x19, #56]
    a964:	aa1303e0 	mov	x0, x19
    a968:	90000001 	adrp	x1, ebb8 <_srodata>	a968: R_AARCH64_ADR_PREL_PG_HI21	.rodata+0x1969
    a96c:	91000021 	add	x1, x1, #0x0	a96c: R_AARCH64_ADD_ABS_LO12_NC	.rodata+0x1969
    a970:	d63f0040 	blr	x2
    a974:	f9401e62 	ldr	x2, [x19, #56]
    a978:	aa1303e0 	mov	x0, x19
    a97c:	90000001 	adrp	x1, ebb8 <_srodata>	a97c: R_AARCH64_ADR_PREL_PG_HI21	.rodata+0x197b
    a980:	91000021 	add	x1, x1, #0x0	a980: R_AARCH64_ADD_ABS_LO12_NC	.rodata+0x197b
    a984:	d63f0040 	blr	x2
    a988:	f9401e62 	ldr	x2, [x19, #56]
    a98c:	aa1303e0 	mov	x0, x19
    a990:	90000001 	adrp	x1, ebb8 <_srodata>	a990: R_AARCH64_ADR_PREL_PG_HI21	.rodata+0x1985
    a994:	91000021 	add	x1, x1, #0x0	a994: R_AARCH64_ADD_ABS_LO12_NC	.rodata+0x1985
    a998:	d63f0040 	blr	x2
    a99c:	f9401e62 	ldr	x2, [x19, #56]
    a9a0:	aa1303e0 	mov	x0, x19
    a9a4:	90000001 	adrp	x1, ebb8 <_srodata>	a9a4: R_AARCH64_ADR_PREL_PG_HI21	.rodata+0x19a7
    a9a8:	91000021 	add	x1, x1, #0x0	a9a8: R_AARCH64_ADD_ABS_LO12_NC	.rodata+0x19a7
    a9ac:	d63f0040 	blr	x2
    a9b0:	f9401e62 	ldr	x2, [x19, #56]
    a9b4:	aa1303e0 	mov	x0, x19
    a9b8:	90000001 	adrp	x1, ebb8 <_srodata>	a9b8: R_AARCH64_ADR_PREL_PG_HI21	.rodata+0x19c7
    a9bc:	91000021 	add	x1, x1, #0x0	a9bc: R_AARCH64_ADD_ABS_LO12_NC	.rodata+0x19c7
    a9c0:	d63f0040 	blr	x2
    a9c4:	12800000 	mov	w0, #0xffffffff            	// #-1
    a9c8:	f9401bf8 	ldr	x24, [sp, #48]
    a9cc:	a94157f4 	ldp	x20, x21, [sp, #16]
    a9d0:	a9425ff6 	ldp	x22, x23, [sp, #32]
    a9d4:	a8cc4ffe 	ldp	x30, x19, [sp], #192
    a9d8:	d65f03c0 	ret
    a9dc:	52800017 	mov	w23, #0x0                   	// #0
    a9e0:	52800038 	mov	w24, #0x1                   	// #1
    a9e4:	17ffff5a 	b	a74c <cmd_uptime+0x54>
    a9e8:	2a1403e3 	mov	w3, w20
    a9ec:	2a1503e2 	mov	w2, w21
    a9f0:	aa1303e0 	mov	x0, x19
    a9f4:	90000001 	adrp	x1, ebb8 <_srodata>	a9f4: R_AARCH64_ADR_PREL_PG_HI21	.rodata+0x1a03
    a9f8:	91000021 	add	x1, x1, #0x0	a9f8: R_AARCH64_ADD_ABS_LO12_NC	.rodata+0x1a03
    a9fc:	d63f0080 	blr	x4
    aa00:	17ffff8d 	b	a834 <cmd_uptime+0x13c>

000000000000aa04 <cmd_uname>:
cmd_uname():
    aa04:	a9a54ffe 	stp	x30, x19, [sp, #-432]!
    aa08:	52800013 	mov	w19, #0x0                   	// #0
    aa0c:	a90157f4 	stp	x20, x21, [sp, #16]
    aa10:	90000015 	adrp	x21, ebb8 <_srodata>	aa10: R_AARCH64_ADR_PREL_PG_HI21	.rodata+0x1a95
    aa14:	2a0103f4 	mov	w20, w1
    aa18:	910002b5 	add	x21, x21, #0x0	aa18: R_AARCH64_ADD_ABS_LO12_NC	.rodata+0x1a95
    aa1c:	a9025ff6 	stp	x22, x23, [sp, #32]
    aa20:	aa0003f7 	mov	x23, x0
    aa24:	a90367f8 	stp	x24, x25, [sp, #48]
    aa28:	aa0203f8 	mov	x24, x2
    aa2c:	52800019 	mov	w25, #0x0                   	// #0
    aa30:	a9046ffa 	stp	x26, x27, [sp, #64]
    aa34:	9000001a 	adrp	x26, f103 <g_fmtarginvalid>	aa34: R_AARCH64_ADR_PREL_PG_HI21	g_fmtarginvalid
    aa38:	9000001b 	adrp	x27, ebb8 <_srodata>	aa38: R_AARCH64_ADR_PREL_PG_HI21	.rodata+0x1aa8
    aa3c:	9100035a 	add	x26, x26, #0x0	aa3c: R_AARCH64_ADD_ABS_LO12_NC	g_fmtarginvalid
    aa40:	9100037b 	add	x27, x27, #0x0	aa40: R_AARCH64_ADD_ABS_LO12_NC	.rodata+0x1aa8
    aa44:	aa1503e2 	mov	x2, x21
    aa48:	aa1803e1 	mov	x1, x24
    aa4c:	2a1403e0 	mov	w0, w20
    aa50:	94000000 	bl	e0bc <getopt>	aa50: R_AARCH64_CALL26	getopt
    aa54:	2a0003f6 	mov	w22, w0
    aa58:	3100041f 	cmn	w0, #0x1
    aa5c:	54000321 	b.ne	aac0 <cmd_uname+0xbc>  // b.any
    aa60:	35000239 	cbnz	w25, aaa4 <cmd_uname+0xa0>
    aa64:	7100027f 	cmp	w19, #0x0
    aa68:	910203e0 	add	x0, sp, #0x80
    aa6c:	1a9f1673 	csinc	w19, w19, wzr, ne	// ne = any
    aa70:	94000000 	bl	cc80 <uname>	aa70: R_AARCH64_CALL26	uname
    aa74:	36f80620 	tbz	w0, #31, ab38 <cmd_uname+0x134>
    aa78:	f9400314 	ldr	x20, [x24]
    aa7c:	f9401af3 	ldr	x19, [x23, #48]
    aa80:	94000000 	bl	2454 <__errno>	aa80: R_AARCH64_CALL26	__errno
    aa84:	b9400004 	ldr	w4, [x0]
    aa88:	90000003 	adrp	x3, ebb8 <_srodata>	aa88: R_AARCH64_ADR_PREL_PG_HI21	.rodata+0x1a9f
    aa8c:	90000001 	adrp	x1, f03d <g_fmtcmdfailed>	aa8c: R_AARCH64_ADR_PREL_PG_HI21	g_fmtcmdfailed
    aa90:	91000063 	add	x3, x3, #0x0	aa90: R_AARCH64_ADD_ABS_LO12_NC	.rodata+0x1a9f
    aa94:	aa1403e2 	mov	x2, x20
    aa98:	91000021 	add	x1, x1, #0x0	aa98: R_AARCH64_ADD_ABS_LO12_NC	g_fmtcmdfailed
    aa9c:	aa1703e0 	mov	x0, x23
    aaa0:	d63f0260 	blr	x19
    aaa4:	a94157f4 	ldp	x20, x21, [sp, #16]
    aaa8:	2a1603e0 	mov	w0, w22
    aaac:	a9425ff6 	ldp	x22, x23, [sp, #32]
    aab0:	a94367f8 	ldp	x24, x25, [sp, #48]
    aab4:	a9446ffa 	ldp	x26, x27, [sp, #64]
    aab8:	a8db4ffe 	ldp	x30, x19, [sp], #432
    aabc:	d65f03c0 	ret
    aac0:	510186d6 	sub	w22, w22, #0x61
    aac4:	710056df 	cmp	w22, #0x15
    aac8:	54000268 	b.hi	ab14 <cmd_uname+0x110>  // b.pmore
    aacc:	38764b76 	ldrb	w22, [x27, w22, uxtw]
    aad0:	10000060 	adr	x0, aadc <cmd_uname+0xd8>
    aad4:	8b368816 	add	x22, x0, w22, sxtb #2
    aad8:	d61f02c0 	br	x22
    aadc:	32000273 	orr	w19, w19, #0x1
    aae0:	17ffffd9 	b	aa44 <cmd_uname+0x40>
    aae4:	321e0273 	orr	w19, w19, #0x4
    aae8:	17ffffd7 	b	aa44 <cmd_uname+0x40>
    aaec:	321d0273 	orr	w19, w19, #0x8
    aaf0:	17ffffd5 	b	aa44 <cmd_uname+0x40>
    aaf4:	321c0273 	orr	w19, w19, #0x10
    aaf8:	17ffffd3 	b	aa44 <cmd_uname+0x40>
    aafc:	7100f67f 	cmp	w19, #0x3d
    ab00:	54fffa20 	b.eq	aa44 <cmd_uname+0x40>  // b.none
    ab04:	321a0273 	orr	w19, w19, #0x40
    ab08:	17ffffcf 	b	aa44 <cmd_uname+0x40>
    ab0c:	321b0273 	orr	w19, w19, #0x20
    ab10:	17ffffcd 	b	aa44 <cmd_uname+0x40>
    ab14:	f9400302 	ldr	x2, [x24]
    ab18:	aa1a03e1 	mov	x1, x26
    ab1c:	f9401ae3 	ldr	x3, [x23, #48]
    ab20:	aa1703e0 	mov	x0, x23
    ab24:	52800039 	mov	w25, #0x1                   	// #1
    ab28:	d63f0060 	blr	x3
    ab2c:	17ffffc6 	b	aa44 <cmd_uname+0x40>
    ab30:	528007b3 	mov	w19, #0x3d                  	// #61
    ab34:	17ffffc4 	b	aa44 <cmd_uname+0x40>
    ab38:	910143e0 	add	x0, sp, #0x50
    ab3c:	910463e1 	add	x1, sp, #0x118
    ab40:	d2801242 	mov	x2, #0x92                  	// #146
    ab44:	94000000 	bl	d930 <lib_memoutstream>	ab44: R_AARCH64_CALL26	lib_memoutstream
    ab48:	52800020 	mov	w0, #0x1                   	// #1
    ab4c:	2a0003fa 	mov	w26, w0
    ab50:	52800014 	mov	w20, #0x0                   	// #0
    ab54:	1ad42341 	lsl	w1, w26, w20
    ab58:	6a13003f 	tst	w1, w19
    ab5c:	54000061 	b.ne	ab68 <cmd_uname+0x164>  // b.any
    ab60:	11000694 	add	w20, w20, #0x1
    ab64:	17fffffc 	b	ab54 <cmd_uname+0x150>
    ab68:	0a210273 	bic	w19, w19, w1
    ab6c:	7100129f 	cmp	w20, #0x4
    ab70:	540002a0 	b.eq	abc4 <cmd_uname+0x1c0>  // b.none
    ab74:	540001ac 	b.gt	aba8 <cmd_uname+0x1a4>
    ab78:	71000a9f 	cmp	w20, #0x2
    ab7c:	54000460 	b.eq	ac08 <cmd_uname+0x204>  // b.none
    ab80:	71000e9f 	cmp	w20, #0x3
    ab84:	54000460 	b.eq	ac10 <cmd_uname+0x20c>  // b.none
    ab88:	34000494 	cbz	w20, ac18 <cmd_uname+0x214>
    ab8c:	f9400302 	ldr	x2, [x24]
    ab90:	aa1703e0 	mov	x0, x23
    ab94:	f9401ae3 	ldr	x3, [x23, #48]
    ab98:	90000001 	adrp	x1, f103 <g_fmtarginvalid>	ab98: R_AARCH64_ADR_PREL_PG_HI21	g_fmtarginvalid
    ab9c:	91000021 	add	x1, x1, #0x0	ab9c: R_AARCH64_ADD_ABS_LO12_NC	g_fmtarginvalid
    aba0:	d63f0060 	blr	x3
    aba4:	17ffffc0 	b	aaa4 <cmd_uname+0xa0>
    aba8:	7100169f 	cmp	w20, #0x5
    abac:	540003a0 	b.eq	ac20 <cmd_uname+0x21c>  // b.none
    abb0:	71001a9f 	cmp	w20, #0x6
    abb4:	54fffec1 	b.ne	ab8c <cmd_uname+0x188>  // b.any
    abb8:	90000015 	adrp	x21, ebb8 <_srodata>	abb8: R_AARCH64_ADR_PREL_PG_HI21	.rodata+0x1abe
    abbc:	910002b5 	add	x21, x21, #0x0	abbc: R_AARCH64_ADD_ABS_LO12_NC	.rodata+0x1abe
    abc0:	14000002 	b	abc8 <cmd_uname+0x1c4>
    abc4:	9103f7f5 	add	x21, sp, #0xfd
    abc8:	370000a0 	tbnz	w0, #0, abdc <cmd_uname+0x1d8>
    abcc:	f9402fe2 	ldr	x2, [sp, #88]
    abd0:	910143e0 	add	x0, sp, #0x50
    abd4:	52800401 	mov	w1, #0x20                  	// #32
    abd8:	d63f0040 	blr	x2
    abdc:	aa1503e0 	mov	x0, x21
    abe0:	94000000 	bl	940 <strlen>	abe0: R_AARCH64_CALL26	strlen
    abe4:	f94033e3 	ldr	x3, [sp, #96]
    abe8:	aa0003e2 	mov	x2, x0
    abec:	aa1503e1 	mov	x1, x21
    abf0:	910143e0 	add	x0, sp, #0x50
    abf4:	11000694 	add	w20, w20, #0x1
    abf8:	d63f0060 	blr	x3
    abfc:	34000193 	cbz	w19, ac2c <cmd_uname+0x228>
    ac00:	2a1903e0 	mov	w0, w25
    ac04:	17ffffd4 	b	ab54 <cmd_uname+0x150>
    ac08:	9102d7f5 	add	x21, sp, #0xb5
    ac0c:	17ffffef 	b	abc8 <cmd_uname+0x1c4>
    ac10:	91032bf5 	add	x21, sp, #0xca
    ac14:	17ffffed 	b	abc8 <cmd_uname+0x1c4>
    ac18:	910203f5 	add	x21, sp, #0x80
    ac1c:	17ffffeb 	b	abc8 <cmd_uname+0x1c4>
    ac20:	90000015 	adrp	x21, ebb8 <_srodata>	ac20: R_AARCH64_ADR_PREL_PG_HI21	.rodata+0x1a8b
    ac24:	910002b5 	add	x21, x21, #0x0	ac24: R_AARCH64_ADD_ABS_LO12_NC	.rodata+0x1a8b
    ac28:	17ffffe8 	b	abc8 <cmd_uname+0x1c4>
    ac2c:	f9402fe2 	ldr	x2, [sp, #88]
    ac30:	910143e0 	add	x0, sp, #0x50
    ac34:	52800141 	mov	w1, #0xa                   	// #10
    ac38:	52800016 	mov	w22, #0x0                   	// #0
    ac3c:	d63f0040 	blr	x2
    ac40:	f9400ee3 	ldr	x3, [x23, #24]
    ac44:	aa1703e0 	mov	x0, x23
    ac48:	f9403be1 	ldr	x1, [sp, #112]
    ac4c:	b98053e2 	ldrsw	x2, [sp, #80]
    ac50:	d63f0060 	blr	x3
    ac54:	17ffff94 	b	aaa4 <cmd_uname+0xa0>
    ac58:	a9b44ffe 	stp	x30, x19, [sp, #-192]!
    ac5c:	aa0203f3 	mov	x19, x2
    ac60:	a90157f4 	stp	x20, x21, [sp, #16]
    ac64:	2a0103f4 	mov	w20, w1
    ac68:	a9025ff6 	stp	x22, x23, [sp, #32]
    ac6c:	aa0003f7 	mov	x23, x0
    ac70:	a90367f8 	stp	x24, x25, [sp, #48]
    ac74:	90000018 	adrp	x24, ebb8 <_srodata>	ac74: R_AARCH64_ADR_PREL_PG_HI21	.rodata+0x1ac6
    ac78:	90000019 	adrp	x25, ebb8 <_srodata>	ac78: R_AARCH64_ADR_PREL_PG_HI21	.rodata+0x1ae6
    ac7c:	91000318 	add	x24, x24, #0x0	ac7c: R_AARCH64_ADD_ABS_LO12_NC	.rodata+0x1ac6
    ac80:	91000339 	add	x25, x25, #0x0	ac80: R_AARCH64_ADD_ABS_LO12_NC	.rodata+0x1ae6
    ac84:	a9046ffa 	stp	x26, x27, [sp, #64]
    ac88:	9000001a 	adrp	x26, ebb8 <_srodata>	ac88: R_AARCH64_ADR_PREL_PG_HI21	.rodata+0x1ae8
    ac8c:	9100035a 	add	x26, x26, #0x0	ac8c: R_AARCH64_ADD_ABS_LO12_NC	.rodata+0x1ae8
    ac90:	f9002bfc 	str	x28, [sp, #80]
    ac94:	f9400275 	ldr	x21, [x19]
    ac98:	aa1803e1 	mov	x1, x24
    ac9c:	aa1503e0 	mov	x0, x21
    aca0:	94000000 	bl	680 <strcmp>	aca0: R_AARCH64_CALL26	strcmp
    aca4:	35000220 	cbnz	w0, ace8 <cmd_uname+0x2e4>
    aca8:	7100069f 	cmp	w20, #0x1
    acac:	54001f4d 	b.le	b094 <cmd_uname+0x690>
    acb0:	91002262 	add	x2, x19, #0x8
    acb4:	51000681 	sub	w1, w20, #0x1
    acb8:	aa1703e0 	mov	x0, x23
    acbc:	97ffffe7 	bl	ac58 <cmd_uname+0x254>
    acc0:	7100001f 	cmp	w0, #0x0
    acc4:	5a9f13f6 	csetm	w22, eq	// eq = none
    acc8:	f9402bfc 	ldr	x28, [sp, #80]
    accc:	2a1603e0 	mov	w0, w22
    acd0:	a94157f4 	ldp	x20, x21, [sp, #16]
    acd4:	a9425ff6 	ldp	x22, x23, [sp, #32]
    acd8:	a94367f8 	ldp	x24, x25, [sp, #48]
    acdc:	a9446ffa 	ldp	x26, x27, [sp, #64]
    ace0:	a8cc4ffe 	ldp	x30, x19, [sp], #192
    ace4:	d65f03c0 	ret
    ace8:	394002a0 	ldrb	w0, [x21]
    acec:	7100b41f 	cmp	w0, #0x2d
    acf0:	54000fe1 	b.ne	aeec <cmd_uname+0x4e8>  // b.any
    acf4:	7100069f 	cmp	w20, #0x1
    acf8:	54001ced 	b.le	b094 <cmd_uname+0x690>
    acfc:	aa1503e0 	mov	x0, x21
    ad00:	90000001 	adrp	x1, ebb8 <_srodata>	ad00: R_AARCH64_ADR_PREL_PG_HI21	.rodata+0x1ac8
    ad04:	91000021 	add	x1, x1, #0x0	ad04: R_AARCH64_ADD_ABS_LO12_NC	.rodata+0x1ac8
    ad08:	94000000 	bl	680 <strcmp>	ad08: R_AARCH64_CALL26	strcmp
    ad0c:	f9400676 	ldr	x22, [x19, #8]
    ad10:	35000280 	cbnz	w0, ad60 <cmd_uname+0x35c>
    ad14:	394002c0 	ldrb	w0, [x22]
    ad18:	34000320 	cbz	w0, ad7c <cmd_uname+0x378>
    ad1c:	52800055 	mov	w21, #0x2                   	// #2
    ad20:	52800016 	mov	w22, #0x0                   	// #0
    ad24:	6b15029f 	cmp	w20, w21
    ad28:	54fffd0d 	b.le	acc8 <cmd_uname+0x2c4>
    ad2c:	d37d06bb 	ubfiz	x27, x21, #3, #2
    ad30:	90000001 	adrp	x1, ebb8 <_srodata>	ad30: R_AARCH64_ADR_PREL_PG_HI21	.rodata+0x1b06
    ad34:	91000021 	add	x1, x1, #0x0	ad34: R_AARCH64_ADD_ABS_LO12_NC	.rodata+0x1b06
    ad38:	f87b6a7c 	ldr	x28, [x19, x27]
    ad3c:	aa1c03e0 	mov	x0, x28
    ad40:	94000000 	bl	680 <strcmp>	ad40: R_AARCH64_CALL26	strcmp
    ad44:	350019a0 	cbnz	w0, b078 <cmd_uname+0x674>
    ad48:	35001b56 	cbnz	w22, b0b0 <cmd_uname+0x6ac>
    ad4c:	110006b5 	add	w21, w21, #0x1
    ad50:	9100237b 	add	x27, x27, #0x8
    ad54:	4b150294 	sub	w20, w20, w21
    ad58:	8b1b0273 	add	x19, x19, x27
    ad5c:	17ffffce 	b	ac94 <cmd_uname+0x290>
    ad60:	90000001 	adrp	x1, ebb8 <_srodata>	ad60: R_AARCH64_ADR_PREL_PG_HI21	.rodata+0x1acb
    ad64:	aa1503e0 	mov	x0, x21
    ad68:	91000021 	add	x1, x1, #0x0	ad68: R_AARCH64_ADD_ABS_LO12_NC	.rodata+0x1acb
    ad6c:	94000000 	bl	680 <strcmp>	ad6c: R_AARCH64_CALL26	strcmp
    ad70:	350000c0 	cbnz	w0, ad88 <cmd_uname+0x384>
    ad74:	394002c0 	ldrb	w0, [x22]
    ad78:	34fffd20 	cbz	w0, ad1c <cmd_uname+0x318>
    ad7c:	52800055 	mov	w21, #0x2                   	// #2
    ad80:	12800016 	mov	w22, #0xffffffff            	// #-1
    ad84:	17ffffe8 	b	ad24 <cmd_uname+0x320>
    ad88:	aa1603e1 	mov	x1, x22
    ad8c:	aa1703e0 	mov	x0, x23
    ad90:	94000000 	bl	68fc <nsh_getfullpath>	ad90: R_AARCH64_CALL26	nsh_getfullpath
    ad94:	aa0003f5 	mov	x21, x0
    ad98:	b40002c0 	cbz	x0, adf0 <cmd_uname+0x3ec>
    ad9c:	9101a3e1 	add	x1, sp, #0x68
    ada0:	94000000 	bl	eb08 <stat>	ada0: R_AARCH64_CALL26	stat
    ada4:	2a0003f6 	mov	w22, w0
    ada8:	aa1503e0 	mov	x0, x21
    adac:	94000000 	bl	698c <nsh_freefullpath>	adac: R_AARCH64_CALL26	nsh_freefullpath
    adb0:	340000b6 	cbz	w22, adc4 <cmd_uname+0x3c0>
    adb4:	9101a3e0 	add	x0, sp, #0x68
    adb8:	d2800b02 	mov	x2, #0x58                  	// #88
    adbc:	52800001 	mov	w1, #0x0                   	// #0
    adc0:	94000000 	bl	3c0 <memset>	adc0: R_AARCH64_CALL26	memset
    adc4:	f9400275 	ldr	x21, [x19]
    adc8:	90000001 	adrp	x1, ebb8 <_srodata>	adc8: R_AARCH64_ADR_PREL_PG_HI21	.rodata+0x1ace
    adcc:	91000021 	add	x1, x1, #0x0	adcc: R_AARCH64_ADD_ABS_LO12_NC	.rodata+0x1ace
    add0:	aa1503e0 	mov	x0, x21
    add4:	94000000 	bl	680 <strcmp>	add4: R_AARCH64_CALL26	strcmp
    add8:	35000100 	cbnz	w0, adf8 <cmd_uname+0x3f4>
    addc:	b94073e0 	ldr	w0, [sp, #112]
    ade0:	12140c00 	and	w0, w0, #0xf000
    ade4:	7140181f 	cmp	w0, #0x6, lsl #12
    ade8:	54fffca1 	b.ne	ad7c <cmd_uname+0x378>  // b.any
    adec:	17ffffcc 	b	ad1c <cmd_uname+0x318>
    adf0:	52800036 	mov	w22, #0x1                   	// #1
    adf4:	17fffff0 	b	adb4 <cmd_uname+0x3b0>
    adf8:	90000001 	adrp	x1, ebb8 <_srodata>	adf8: R_AARCH64_ADR_PREL_PG_HI21	.rodata+0x1ad1
    adfc:	aa1503e0 	mov	x0, x21
    ae00:	91000021 	add	x1, x1, #0x0	ae00: R_AARCH64_ADD_ABS_LO12_NC	.rodata+0x1ad1
    ae04:	94000000 	bl	680 <strcmp>	ae04: R_AARCH64_CALL26	strcmp
    ae08:	350000a0 	cbnz	w0, ae1c <cmd_uname+0x418>
    ae0c:	b94073e0 	ldr	w0, [sp, #112]
    ae10:	12140c00 	and	w0, w0, #0xf000
    ae14:	7140081f 	cmp	w0, #0x2, lsl #12
    ae18:	17fffff4 	b	ade8 <cmd_uname+0x3e4>
    ae1c:	90000001 	adrp	x1, ebb8 <_srodata>	ae1c: R_AARCH64_ADR_PREL_PG_HI21	.rodata+0x1ad4
    ae20:	aa1503e0 	mov	x0, x21
    ae24:	91000021 	add	x1, x1, #0x0	ae24: R_AARCH64_ADD_ABS_LO12_NC	.rodata+0x1ad4
    ae28:	94000000 	bl	680 <strcmp>	ae28: R_AARCH64_CALL26	strcmp
    ae2c:	350000a0 	cbnz	w0, ae40 <cmd_uname+0x43c>
    ae30:	b94073e0 	ldr	w0, [sp, #112]
    ae34:	12140c00 	and	w0, w0, #0xf000
    ae38:	7140101f 	cmp	w0, #0x4, lsl #12
    ae3c:	17ffffeb 	b	ade8 <cmd_uname+0x3e4>
    ae40:	90000001 	adrp	x1, ebb8 <_srodata>	ae40: R_AARCH64_ADR_PREL_PG_HI21	.rodata+0x1ad7
    ae44:	aa1503e0 	mov	x0, x21
    ae48:	91000021 	add	x1, x1, #0x0	ae48: R_AARCH64_ADD_ABS_LO12_NC	.rodata+0x1ad7
    ae4c:	94000000 	bl	680 <strcmp>	ae4c: R_AARCH64_CALL26	strcmp
    ae50:	35000060 	cbnz	w0, ae5c <cmd_uname+0x458>
    ae54:	34fff656 	cbz	w22, ad1c <cmd_uname+0x318>
    ae58:	17ffffc9 	b	ad7c <cmd_uname+0x378>
    ae5c:	90000001 	adrp	x1, ebb8 <_srodata>	ae5c: R_AARCH64_ADR_PREL_PG_HI21	.rodata+0x1ada
    ae60:	aa1503e0 	mov	x0, x21
    ae64:	91000021 	add	x1, x1, #0x0	ae64: R_AARCH64_ADD_ABS_LO12_NC	.rodata+0x1ada
    ae68:	94000000 	bl	680 <strcmp>	ae68: R_AARCH64_CALL26	strcmp
    ae6c:	350000a0 	cbnz	w0, ae80 <cmd_uname+0x47c>
    ae70:	b94073e0 	ldr	w0, [sp, #112]
    ae74:	12140c00 	and	w0, w0, #0xf000
    ae78:	7140201f 	cmp	w0, #0x8, lsl #12
    ae7c:	17ffffdb 	b	ade8 <cmd_uname+0x3e4>
    ae80:	90000001 	adrp	x1, ebb8 <_srodata>	ae80: R_AARCH64_ADR_PREL_PG_HI21	.rodata+0x1add
    ae84:	aa1503e0 	mov	x0, x21
    ae88:	91000021 	add	x1, x1, #0x0	ae88: R_AARCH64_ADD_ABS_LO12_NC	.rodata+0x1add
    ae8c:	94000000 	bl	680 <strcmp>	ae8c: R_AARCH64_CALL26	strcmp
    ae90:	350000c0 	cbnz	w0, aea8 <cmd_uname+0x4a4>
    ae94:	b94073e1 	ldr	w1, [sp, #112]
    ae98:	52802480 	mov	w0, #0x124                 	// #292
    ae9c:	6a00003f 	tst	w1, w0
    aea0:	54fff3e1 	b.ne	ad1c <cmd_uname+0x318>  // b.any
    aea4:	17ffffb6 	b	ad7c <cmd_uname+0x378>
    aea8:	90000001 	adrp	x1, ebb8 <_srodata>	aea8: R_AARCH64_ADR_PREL_PG_HI21	.rodata+0x1ae0
    aeac:	aa1503e0 	mov	x0, x21
    aeb0:	91000021 	add	x1, x1, #0x0	aeb0: R_AARCH64_ADD_ABS_LO12_NC	.rodata+0x1ae0
    aeb4:	94000000 	bl	680 <strcmp>	aeb4: R_AARCH64_CALL26	strcmp
    aeb8:	350000a0 	cbnz	w0, aecc <cmd_uname+0x4c8>
    aebc:	b94087e0 	ldr	w0, [sp, #132]
    aec0:	7100001f 	cmp	w0, #0x0
    aec4:	54fff2cc 	b.gt	ad1c <cmd_uname+0x318>
    aec8:	17ffffad 	b	ad7c <cmd_uname+0x378>
    aecc:	90000001 	adrp	x1, ebb8 <_srodata>	aecc: R_AARCH64_ADR_PREL_PG_HI21	.rodata+0x1ae3
    aed0:	aa1503e0 	mov	x0, x21
    aed4:	91000021 	add	x1, x1, #0x0	aed4: R_AARCH64_ADD_ABS_LO12_NC	.rodata+0x1ae3
    aed8:	94000000 	bl	680 <strcmp>	aed8: R_AARCH64_CALL26	strcmp
    aedc:	35000080 	cbnz	w0, aeec <cmd_uname+0x4e8>
    aee0:	b94073e1 	ldr	w1, [sp, #112]
    aee4:	52801240 	mov	w0, #0x92                  	// #146
    aee8:	17ffffed 	b	ae9c <cmd_uname+0x498>
    aeec:	71000a9f 	cmp	w20, #0x2
    aef0:	54000d2d 	b.le	b094 <cmd_uname+0x690>
    aef4:	a9405a75 	ldp	x21, x22, [x19]
    aef8:	aa1903e1 	mov	x1, x25
    aefc:	aa1603e0 	mov	x0, x22
    af00:	94000000 	bl	680 <strcmp>	af00: R_AARCH64_CALL26	strcmp
    af04:	340000a0 	cbz	w0, af18 <cmd_uname+0x514>
    af08:	aa1a03e1 	mov	x1, x26
    af0c:	aa1603e0 	mov	x0, x22
    af10:	94000000 	bl	680 <strcmp>	af10: R_AARCH64_CALL26	strcmp
    af14:	350000e0 	cbnz	w0, af30 <cmd_uname+0x52c>
    af18:	f9400a61 	ldr	x1, [x19, #16]
    af1c:	aa1503e0 	mov	x0, x21
    af20:	94000000 	bl	680 <strcmp>	af20: R_AARCH64_CALL26	strcmp
    af24:	35000180 	cbnz	w0, af54 <cmd_uname+0x550>
    af28:	52800075 	mov	w21, #0x3                   	// #3
    af2c:	17ffff7d 	b	ad20 <cmd_uname+0x31c>
    af30:	90000001 	adrp	x1, ebb8 <_srodata>	af30: R_AARCH64_ADR_PREL_PG_HI21	.rodata+0x1aeb
    af34:	aa1603e0 	mov	x0, x22
    af38:	91000021 	add	x1, x1, #0x0	af38: R_AARCH64_ADD_ABS_LO12_NC	.rodata+0x1aeb
    af3c:	94000000 	bl	680 <strcmp>	af3c: R_AARCH64_CALL26	strcmp
    af40:	350000e0 	cbnz	w0, af5c <cmd_uname+0x558>
    af44:	f9400a61 	ldr	x1, [x19, #16]
    af48:	aa1503e0 	mov	x0, x21
    af4c:	94000000 	bl	680 <strcmp>	af4c: R_AARCH64_CALL26	strcmp
    af50:	35fffec0 	cbnz	w0, af28 <cmd_uname+0x524>
    af54:	52800075 	mov	w21, #0x3                   	// #3
    af58:	17ffff8a 	b	ad80 <cmd_uname+0x37c>
    af5c:	9101a3e1 	add	x1, sp, #0x68
    af60:	aa1503e0 	mov	x0, x21
    af64:	52800002 	mov	w2, #0x0                   	// #0
    af68:	94000000 	bl	d574 <strtol>	af68: R_AARCH64_CALL26	strtol
    af6c:	aa0003f6 	mov	x22, x0
    af70:	f9400260 	ldr	x0, [x19]
    af74:	39400000 	ldrb	w0, [x0]
    af78:	340008e0 	cbz	w0, b094 <cmd_uname+0x690>
    af7c:	f94037e0 	ldr	x0, [sp, #104]
    af80:	39400000 	ldrb	w0, [x0]
    af84:	35000880 	cbnz	w0, b094 <cmd_uname+0x690>
    af88:	f9400a60 	ldr	x0, [x19, #16]
    af8c:	9101a3e1 	add	x1, sp, #0x68
    af90:	52800002 	mov	w2, #0x0                   	// #0
    af94:	94000000 	bl	d574 <strtol>	af94: R_AARCH64_CALL26	strtol
    af98:	aa0003f5 	mov	x21, x0
    af9c:	f9400a60 	ldr	x0, [x19, #16]
    afa0:	39400000 	ldrb	w0, [x0]
    afa4:	34000780 	cbz	w0, b094 <cmd_uname+0x690>
    afa8:	f94037e0 	ldr	x0, [sp, #104]
    afac:	39400000 	ldrb	w0, [x0]
    afb0:	35000720 	cbnz	w0, b094 <cmd_uname+0x690>
    afb4:	f940067b 	ldr	x27, [x19, #8]
    afb8:	90000001 	adrp	x1, ebb8 <_srodata>	afb8: R_AARCH64_ADR_PREL_PG_HI21	.rodata+0x1aee
    afbc:	91000021 	add	x1, x1, #0x0	afbc: R_AARCH64_ADD_ABS_LO12_NC	.rodata+0x1aee
    afc0:	aa1b03e0 	mov	x0, x27
    afc4:	94000000 	bl	680 <strcmp>	afc4: R_AARCH64_CALL26	strcmp
    afc8:	35000080 	cbnz	w0, afd8 <cmd_uname+0x5d4>
    afcc:	eb1502df 	cmp	x22, x21
    afd0:	54fffc21 	b.ne	af54 <cmd_uname+0x550>  // b.any
    afd4:	17ffffd5 	b	af28 <cmd_uname+0x524>
    afd8:	90000001 	adrp	x1, ebb8 <_srodata>	afd8: R_AARCH64_ADR_PREL_PG_HI21	.rodata+0x1af2
    afdc:	aa1b03e0 	mov	x0, x27
    afe0:	91000021 	add	x1, x1, #0x0	afe0: R_AARCH64_ADD_ABS_LO12_NC	.rodata+0x1af2
    afe4:	94000000 	bl	680 <strcmp>	afe4: R_AARCH64_CALL26	strcmp
    afe8:	35000080 	cbnz	w0, aff8 <cmd_uname+0x5f4>
    afec:	eb1502df 	cmp	x22, x21
    aff0:	54fff9ca 	b.ge	af28 <cmd_uname+0x524>  // b.tcont
    aff4:	17ffffd8 	b	af54 <cmd_uname+0x550>
    aff8:	90000001 	adrp	x1, ebb8 <_srodata>	aff8: R_AARCH64_ADR_PREL_PG_HI21	.rodata+0x1af6
    affc:	aa1b03e0 	mov	x0, x27
    b000:	91000021 	add	x1, x1, #0x0	b000: R_AARCH64_ADD_ABS_LO12_NC	.rodata+0x1af6
    b004:	94000000 	bl	680 <strcmp>	b004: R_AARCH64_CALL26	strcmp
    b008:	35000080 	cbnz	w0, b018 <cmd_uname+0x614>
    b00c:	eb1502df 	cmp	x22, x21
    b010:	54fff8cc 	b.gt	af28 <cmd_uname+0x524>
    b014:	17ffffd0 	b	af54 <cmd_uname+0x550>
    b018:	90000001 	adrp	x1, ebb8 <_srodata>	b018: R_AARCH64_ADR_PREL_PG_HI21	.rodata+0x1afa
    b01c:	aa1b03e0 	mov	x0, x27
    b020:	91000021 	add	x1, x1, #0x0	b020: R_AARCH64_ADD_ABS_LO12_NC	.rodata+0x1afa
    b024:	94000000 	bl	680 <strcmp>	b024: R_AARCH64_CALL26	strcmp
    b028:	35000080 	cbnz	w0, b038 <cmd_uname+0x634>
    b02c:	eb1502df 	cmp	x22, x21
    b030:	54fff7cd 	b.le	af28 <cmd_uname+0x524>
    b034:	17ffffc8 	b	af54 <cmd_uname+0x550>
    b038:	90000001 	adrp	x1, ebb8 <_srodata>	b038: R_AARCH64_ADR_PREL_PG_HI21	.rodata+0x1afe
    b03c:	aa1b03e0 	mov	x0, x27
    b040:	91000021 	add	x1, x1, #0x0	b040: R_AARCH64_ADD_ABS_LO12_NC	.rodata+0x1afe
    b044:	94000000 	bl	680 <strcmp>	b044: R_AARCH64_CALL26	strcmp
    b048:	35000080 	cbnz	w0, b058 <cmd_uname+0x654>
    b04c:	eb1502df 	cmp	x22, x21
    b050:	54fff6cb 	b.lt	af28 <cmd_uname+0x524>  // b.tstop
    b054:	17ffffc0 	b	af54 <cmd_uname+0x550>
    b058:	90000001 	adrp	x1, ebb8 <_srodata>	b058: R_AARCH64_ADR_PREL_PG_HI21	.rodata+0x1b02
    b05c:	aa1b03e0 	mov	x0, x27
    b060:	91000021 	add	x1, x1, #0x0	b060: R_AARCH64_ADD_ABS_LO12_NC	.rodata+0x1b02
    b064:	94000000 	bl	680 <strcmp>	b064: R_AARCH64_CALL26	strcmp
    b068:	35000160 	cbnz	w0, b094 <cmd_uname+0x690>
    b06c:	eb1502df 	cmp	x22, x21
    b070:	54fff5c1 	b.ne	af28 <cmd_uname+0x524>  // b.any
    b074:	17ffffb8 	b	af54 <cmd_uname+0x550>
    b078:	90000001 	adrp	x1, ebb8 <_srodata>	b078: R_AARCH64_ADR_PREL_PG_HI21	.rodata+0x1b09
    b07c:	aa1c03e0 	mov	x0, x28
    b080:	91000021 	add	x1, x1, #0x0	b080: R_AARCH64_ADD_ABS_LO12_NC	.rodata+0x1b09
    b084:	94000000 	bl	680 <strcmp>	b084: R_AARCH64_CALL26	strcmp
    b088:	35000060 	cbnz	w0, b094 <cmd_uname+0x690>
    b08c:	35ffe616 	cbnz	w22, ad4c <cmd_uname+0x348>
    b090:	17ffff0e 	b	acc8 <cmd_uname+0x2c4>
    b094:	f9401ae3 	ldr	x3, [x23, #48]
    b098:	90000002 	adrp	x2, ebb8 <_srodata>	b098: R_AARCH64_ADR_PREL_PG_HI21	.rodata+0x1b0c
    b09c:	90000001 	adrp	x1, f15e <g_fmtsyntax>	b09c: R_AARCH64_ADR_PREL_PG_HI21	g_fmtsyntax
    b0a0:	91000042 	add	x2, x2, #0x0	b0a0: R_AARCH64_ADD_ABS_LO12_NC	.rodata+0x1b0c
    b0a4:	91000021 	add	x1, x1, #0x0	b0a4: R_AARCH64_ADD_ABS_LO12_NC	g_fmtsyntax
    b0a8:	aa1703e0 	mov	x0, x23
    b0ac:	d63f0060 	blr	x3
    b0b0:	12800016 	mov	w22, #0xffffffff            	// #-1
    b0b4:	17ffff05 	b	acc8 <cmd_uname+0x2c4>

000000000000b0b8 <cmd_test>:
cmd_test():
    b0b8:	91002042 	add	x2, x2, #0x8
    b0bc:	51000421 	sub	w1, w1, #0x1
    b0c0:	14000000 	b	0 <memcpy>	b0c0: R_AARCH64_JUMP26	.text+0xac58

000000000000b0c4 <cmd_lbracket>:
cmd_lbracket():
    b0c4:	a9be4ffe 	stp	x30, x19, [sp, #-32]!
    b0c8:	aa0003f3 	mov	x19, x0
    b0cc:	8b21cc40 	add	x0, x2, w1, sxtw #3
    b0d0:	a90157f4 	stp	x20, x21, [sp, #16]
    b0d4:	2a0103f5 	mov	w21, w1
    b0d8:	aa0203f4 	mov	x20, x2
    b0dc:	f85f8000 	ldur	x0, [x0, #-8]
    b0e0:	90000001 	adrp	x1, ebb8 <_srodata>	b0e0: R_AARCH64_ADR_PREL_PG_HI21	.rodata+0x1b11
    b0e4:	91000021 	add	x1, x1, #0x0	b0e4: R_AARCH64_ADD_ABS_LO12_NC	.rodata+0x1b11
    b0e8:	94000000 	bl	680 <strcmp>	b0e8: R_AARCH64_CALL26	strcmp
    b0ec:	350000e0 	cbnz	w0, b108 <cmd_lbracket+0x44>
    b0f0:	91002282 	add	x2, x20, #0x8
    b0f4:	51000aa1 	sub	w1, w21, #0x2
    b0f8:	aa1303e0 	mov	x0, x19
    b0fc:	a94157f4 	ldp	x20, x21, [sp, #16]
    b100:	a8c24ffe 	ldp	x30, x19, [sp], #32
    b104:	14000000 	b	0 <memcpy>	b104: R_AARCH64_JUMP26	.text+0xac58
    b108:	f9400282 	ldr	x2, [x20]
    b10c:	aa1303e0 	mov	x0, x19
    b110:	f9401a63 	ldr	x3, [x19, #48]
    b114:	90000001 	adrp	x1, f15e <g_fmtsyntax>	b114: R_AARCH64_ADR_PREL_PG_HI21	g_fmtsyntax
    b118:	91000021 	add	x1, x1, #0x0	b118: R_AARCH64_ADD_ABS_LO12_NC	g_fmtsyntax
    b11c:	d63f0060 	blr	x3
    b120:	12800000 	mov	w0, #0xffffffff            	// #-1
    b124:	a94157f4 	ldp	x20, x21, [sp, #16]
    b128:	a8c24ffe 	ldp	x30, x19, [sp], #32
    b12c:	d65f03c0 	ret

000000000000b130 <cmd_time>:
cmd_time():
    b130:	a9bb4ffe 	stp	x30, x19, [sp, #-80]!
    b134:	aa0003f3 	mov	x19, x0
    b138:	52800020 	mov	w0, #0x1                   	// #1
    b13c:	9100c3e1 	add	x1, sp, #0x30
    b140:	a90157f4 	stp	x20, x21, [sp, #16]
    b144:	a9025ff6 	stp	x22, x23, [sp, #32]
    b148:	aa0203f7 	mov	x23, x2
    b14c:	94000000 	bl	2ed4 <clock_gettime>	b14c: R_AARCH64_CALL26	clock_gettime
    b150:	36f80240 	tbz	w0, #31, b198 <cmd_time+0x68>
    b154:	f94002f5 	ldr	x21, [x23]
    b158:	f9401a74 	ldr	x20, [x19, #48]
    b15c:	94000000 	bl	2454 <__errno>	b15c: R_AARCH64_CALL26	__errno
    b160:	b9400004 	ldr	w4, [x0]
    b164:	aa1503e2 	mov	x2, x21
    b168:	aa1303e0 	mov	x0, x19
    b16c:	90000003 	adrp	x3, ebb8 <_srodata>	b16c: R_AARCH64_ADR_PREL_PG_HI21	.rodata+0x1b13
    b170:	90000001 	adrp	x1, f03d <g_fmtcmdfailed>	b170: R_AARCH64_ADR_PREL_PG_HI21	g_fmtcmdfailed
    b174:	91000063 	add	x3, x3, #0x0	b174: R_AARCH64_ADD_ABS_LO12_NC	.rodata+0x1b13
    b178:	91000021 	add	x1, x1, #0x0	b178: R_AARCH64_ADD_ABS_LO12_NC	g_fmtcmdfailed
    b17c:	d63f0280 	blr	x20
    b180:	12800014 	mov	w20, #0xffffffff            	// #-1
    b184:	a9425ff6 	ldp	x22, x23, [sp, #32]
    b188:	2a1403e0 	mov	w0, w20
    b18c:	a94157f4 	ldp	x20, x21, [sp, #16]
    b190:	a8c54ffe 	ldp	x30, x19, [sp], #80
    b194:	d65f03c0 	ret
    b198:	f94006e1 	ldr	x1, [x23, #8]
    b19c:	aa1303e0 	mov	x0, x19
    b1a0:	394a8276 	ldrb	w22, [x19, #672]
    b1a4:	394a8a75 	ldrb	w21, [x19, #674]
    b1a8:	94000000 	bl	4c98 <nsh_parse>	b1a8: R_AARCH64_CALL26	nsh_parse
    b1ac:	2a0003f4 	mov	w20, w0
    b1b0:	37f80240 	tbnz	w0, #31, b1f8 <cmd_time+0xc8>
    b1b4:	910103e1 	add	x1, sp, #0x40
    b1b8:	52800020 	mov	w0, #0x1                   	// #1
    b1bc:	94000000 	bl	2ed4 <clock_gettime>	b1bc: R_AARCH64_CALL26	clock_gettime
    b1c0:	2a0003f4 	mov	w20, w0
    b1c4:	36f80200 	tbz	w0, #31, b204 <cmd_time+0xd4>
    b1c8:	f94002f7 	ldr	x23, [x23]
    b1cc:	f9401a74 	ldr	x20, [x19, #48]
    b1d0:	94000000 	bl	2454 <__errno>	b1d0: R_AARCH64_CALL26	__errno
    b1d4:	b9400004 	ldr	w4, [x0]
    b1d8:	aa1703e2 	mov	x2, x23
    b1dc:	aa1303e0 	mov	x0, x19
    b1e0:	90000003 	adrp	x3, ebb8 <_srodata>	b1e0: R_AARCH64_ADR_PREL_PG_HI21	.rodata+0x1b13
    b1e4:	90000001 	adrp	x1, f03d <g_fmtcmdfailed>	b1e4: R_AARCH64_ADR_PREL_PG_HI21	g_fmtcmdfailed
    b1e8:	91000063 	add	x3, x3, #0x0	b1e8: R_AARCH64_ADD_ABS_LO12_NC	.rodata+0x1b13
    b1ec:	91000021 	add	x1, x1, #0x0	b1ec: R_AARCH64_ADD_ABS_LO12_NC	g_fmtcmdfailed
    b1f0:	d63f0280 	blr	x20
    b1f4:	12800014 	mov	w20, #0xffffffff            	// #-1
    b1f8:	390a8276 	strb	w22, [x19, #672]
    b1fc:	390a8675 	strb	w21, [x19, #673]
    b200:	17ffffe1 	b	b184 <cmd_time+0x54>
    b204:	a9440fe2 	ldp	x2, x3, [sp, #64]
    b208:	f9401be0 	ldr	x0, [sp, #48]
    b20c:	cb000042 	sub	x2, x2, x0
    b210:	f9401fe0 	ldr	x0, [sp, #56]
    b214:	eb03001f 	cmp	x0, x3
    b218:	540000cd 	b.le	b230 <cmd_time+0x100>
    b21c:	d2994001 	mov	x1, #0xca00                	// #51712
    b220:	d1000442 	sub	x2, x2, #0x1
    b224:	f2a77341 	movk	x1, #0x3b9a, lsl #16
    b228:	8b010063 	add	x3, x3, x1
    b22c:	f90027e3 	str	x3, [sp, #72]
    b230:	cb000063 	sub	x3, x3, x0
    b234:	d290d400 	mov	x0, #0x86a0                	// #34464
    b238:	f2a00020 	movk	x0, #0x1, lsl #16
    b23c:	90000001 	adrp	x1, ebb8 <_srodata>	b23c: R_AARCH64_ADR_PREL_PG_HI21	.rodata+0x1b21
    b240:	f9401e64 	ldr	x4, [x19, #56]
    b244:	91000021 	add	x1, x1, #0x0	b244: R_AARCH64_ADD_ABS_LO12_NC	.rodata+0x1b21
    b248:	9ac00863 	udiv	x3, x3, x0
    b24c:	aa1303e0 	mov	x0, x19
    b250:	d63f0080 	blr	x4
    b254:	17ffffe9 	b	b1f8 <cmd_time+0xc8>

000000000000b258 <cmd_watch>:
cmd_watch():
    b258:	a9bb4ffe 	stp	x30, x19, [sp, #-80]!
    b25c:	aa0003f3 	mov	x19, x0
    b260:	a90157f4 	stp	x20, x21, [sp, #16]
    b264:	aa0203f5 	mov	x21, x2
    b268:	12800014 	mov	w20, #0xffffffff            	// #-1
    b26c:	a9025ff6 	stp	x22, x23, [sp, #32]
    b270:	2a0103f6 	mov	w22, w1
    b274:	52800057 	mov	w23, #0x2                   	// #2
    b278:	a90367f8 	stp	x24, x25, [sp, #48]
    b27c:	90000018 	adrp	x24, ebb8 <_srodata>	b27c: R_AARCH64_ADR_PREL_PG_HI21	.rodata+0x1b31
    b280:	91000318 	add	x24, x24, #0x0	b280: R_AARCH64_ADD_ABS_LO12_NC	.rodata+0x1b31
    b284:	f90023fa 	str	x26, [sp, #64]
    b288:	aa1803e2 	mov	x2, x24
    b28c:	aa1503e1 	mov	x1, x21
    b290:	2a1603e0 	mov	w0, w22
    b294:	94000000 	bl	e0bc <getopt>	b294: R_AARCH64_CALL26	getopt
    b298:	3100041f 	cmn	w0, #0x1
    b29c:	54000201 	b.ne	b2dc <cmd_watch+0x84>  // b.any
    b2a0:	94000000 	bl	e0dc <getoptindp>	b2a0: R_AARCH64_CALL26	getoptindp
    b2a4:	b9400000 	ldr	w0, [x0]
    b2a8:	6b16001f 	cmp	w0, w22
    b2ac:	5400034a 	b.ge	b314 <cmd_watch+0xbc>  // b.tcont
    b2b0:	94000000 	bl	e0dc <getoptindp>	b2b0: R_AARCH64_CALL26	getoptindp
    b2b4:	b9800000 	ldrsw	x0, [x0]
    b2b8:	7100029f 	cmp	w20, #0x0
    b2bc:	52800018 	mov	w24, #0x0                   	// #0
    b2c0:	f8607aba 	ldr	x26, [x21, x0, lsl #3]
    b2c4:	12b00000 	mov	w0, #0x7fffffff            	// #2147483647
    b2c8:	1a80a294 	csel	w20, w20, w0, ge	// ge = tcont
    b2cc:	6b18029f 	cmp	w20, w24
    b2d0:	540003c1 	b.ne	b348 <cmd_watch+0xf0>  // b.any
    b2d4:	52800000 	mov	w0, #0x0                   	// #0
    b2d8:	14000016 	b	b330 <cmd_watch+0xd8>
    b2dc:	71018c1f 	cmp	w0, #0x63
    b2e0:	54000100 	b.eq	b300 <cmd_watch+0xa8>  // b.none
    b2e4:	7101b81f 	cmp	w0, #0x6e
    b2e8:	54000161 	b.ne	b314 <cmd_watch+0xbc>  // b.any
    b2ec:	94000000 	bl	e0cc <getoptargp>	b2ec: R_AARCH64_CALL26	getoptargp
    b2f0:	f9400000 	ldr	x0, [x0]
    b2f4:	94000000 	bl	d2d0 <atoi>	b2f4: R_AARCH64_CALL26	atoi
    b2f8:	2a0003f7 	mov	w23, w0
    b2fc:	17ffffe3 	b	b288 <cmd_watch+0x30>
    b300:	94000000 	bl	e0cc <getoptargp>	b300: R_AARCH64_CALL26	getoptargp
    b304:	f9400000 	ldr	x0, [x0]
    b308:	94000000 	bl	d2d0 <atoi>	b308: R_AARCH64_CALL26	atoi
    b30c:	2a0003f4 	mov	w20, w0
    b310:	17ffffde 	b	b288 <cmd_watch+0x30>
    b314:	f94002a2 	ldr	x2, [x21]
    b318:	90000001 	adrp	x1, f103 <g_fmtarginvalid>	b318: R_AARCH64_ADR_PREL_PG_HI21	g_fmtarginvalid
    b31c:	f9401a63 	ldr	x3, [x19, #48]
    b320:	91000021 	add	x1, x1, #0x0	b320: R_AARCH64_ADD_ABS_LO12_NC	g_fmtarginvalid
    b324:	aa1303e0 	mov	x0, x19
    b328:	d63f0060 	blr	x3
    b32c:	12800000 	mov	w0, #0xffffffff            	// #-1
    b330:	f94023fa 	ldr	x26, [sp, #64]
    b334:	a94157f4 	ldp	x20, x21, [sp, #16]
    b338:	a9425ff6 	ldp	x22, x23, [sp, #32]
    b33c:	a94367f8 	ldp	x24, x25, [sp, #48]
    b340:	a8c54ffe 	ldp	x30, x19, [sp], #80
    b344:	d65f03c0 	ret
    b348:	d2800a00 	mov	x0, #0x50                  	// #80
    b34c:	94000000 	bl	ccfc <lib_get_tempbuffer>	b34c: R_AARCH64_CALL26	lib_get_tempbuffer
    b350:	aa0003f6 	mov	x22, x0
    b354:	b4fffec0 	cbz	x0, b32c <cmd_watch+0xd4>
    b358:	aa1a03e1 	mov	x1, x26
    b35c:	d2800a02 	mov	x2, #0x50                  	// #80
    b360:	94000000 	bl	dc70 <strlcpy>	b360: R_AARCH64_CALL26	strlcpy
    b364:	aa1603e1 	mov	x1, x22
    b368:	aa1303e0 	mov	x0, x19
    b36c:	94000000 	bl	4c98 <nsh_parse>	b36c: R_AARCH64_CALL26	nsh_parse
    b370:	2a0003f9 	mov	w25, w0
    b374:	aa1603e0 	mov	x0, x22
    b378:	94000000 	bl	cd8c <lib_put_tempbuffer>	b378: R_AARCH64_CALL26	lib_put_tempbuffer
    b37c:	36f80199 	tbz	w25, #31, b3ac <cmd_watch+0x154>
    b380:	f94002b5 	ldr	x21, [x21]
    b384:	f9401a74 	ldr	x20, [x19, #48]
    b388:	94000000 	bl	2454 <__errno>	b388: R_AARCH64_CALL26	__errno
    b38c:	b9400004 	ldr	w4, [x0]
    b390:	aa1a03e3 	mov	x3, x26
    b394:	aa1503e2 	mov	x2, x21
    b398:	aa1303e0 	mov	x0, x19
    b39c:	90000001 	adrp	x1, f03d <g_fmtcmdfailed>	b39c: R_AARCH64_ADR_PREL_PG_HI21	g_fmtcmdfailed
    b3a0:	91000021 	add	x1, x1, #0x0	b3a0: R_AARCH64_ADD_ABS_LO12_NC	g_fmtcmdfailed
    b3a4:	d63f0280 	blr	x20
    b3a8:	17ffffe1 	b	b32c <cmd_watch+0xd4>
    b3ac:	2a1703e0 	mov	w0, w23
    b3b0:	11000718 	add	w24, w24, #0x1
    b3b4:	94000000 	bl	e104 <sleep>	b3b4: R_AARCH64_CALL26	sleep
    b3b8:	17ffffc5 	b	b2cc <cmd_watch+0x74>

000000000000b3bc <cmd_wait>:
cmd_wait():
    b3bc:	a9ae4ffe 	stp	x30, x19, [sp, #-288]!
    b3c0:	a90157f4 	stp	x20, x21, [sp, #16]
    b3c4:	a9025ff6 	stp	x22, x23, [sp, #32]
    b3c8:	a90367f8 	stp	x24, x25, [sp, #48]
    b3cc:	a9046ffa 	stp	x26, x27, [sp, #64]
    b3d0:	f9002bfc 	str	x28, [sp, #80]
    b3d4:	b9007fff 	str	wzr, [sp, #124]
    b3d8:	7100043f 	cmp	w1, #0x1
    b3dc:	54000da0 	b.eq	b590 <cmd_wait+0x1d4>  // b.none
    b3e0:	aa0003f5 	mov	x21, x0
    b3e4:	2a0103f9 	mov	w25, w1
    b3e8:	aa0203f6 	mov	x22, x2
    b3ec:	9000001c 	adrp	x28, ebb8 <_srodata>	b3ec: R_AARCH64_ADR_PREL_PG_HI21	.rodata+0x1b4b
    b3f0:	94000000 	bl	e898 <getpid>	b3f0: R_AARCH64_CALL26	getpid
    b3f4:	9100039c 	add	x28, x28, #0x0	b3f4: R_AARCH64_ADD_ABS_LO12_NC	.rodata+0x1b4b
    b3f8:	2a0003fa 	mov	w26, w0
    b3fc:	9000001b 	adrp	x27, ebb8 <_srodata>	b3fc: R_AARCH64_ADR_PREL_PG_HI21	.rodata+0x1b36
    b400:	d2800038 	mov	x24, #0x1                   	// #1
    b404:	91000360 	add	x0, x27, #0x0	b404: R_AARCH64_ADD_ABS_LO12_NC	.rodata+0x1b36
    b408:	52800013 	mov	w19, #0x0                   	// #0
    b40c:	f90037e0 	str	x0, [sp, #104]
    b410:	6b18033f 	cmp	w25, w24
    b414:	5400016c 	b.gt	b440 <cmd_wait+0x84>
    b418:	37f80053 	tbnz	w19, #31, b420 <cmd_wait+0x64>
    b41c:	b9407ff3 	ldr	w19, [sp, #124]
    b420:	f9402bfc 	ldr	x28, [sp, #80]
    b424:	2a1303e0 	mov	w0, w19
    b428:	a94157f4 	ldp	x20, x21, [sp, #16]
    b42c:	a9425ff6 	ldp	x22, x23, [sp, #32]
    b430:	a94367f8 	ldp	x24, x25, [sp, #48]
    b434:	a9446ffa 	ldp	x26, x27, [sp, #64]
    b438:	a8d24ffe 	ldp	x30, x19, [sp], #288
    b43c:	d65f03c0 	ret
    b440:	f8787ac0 	ldr	x0, [x22, x24, lsl #3]
    b444:	94000000 	bl	d2d0 <atoi>	b444: R_AARCH64_CALL26	atoi
    b448:	2a0003f7 	mov	w23, w0
    b44c:	34000520 	cbz	w0, b4f0 <cmd_wait+0x134>
    b450:	f94037e2 	ldr	x2, [sp, #104]
    b454:	2a0003e3 	mov	w3, w0
    b458:	d2800401 	mov	x1, #0x20                  	// #32
    b45c:	910203e0 	add	x0, sp, #0x80
    b460:	94000000 	bl	d04c <snprintf>	b460: R_AARCH64_CALL26	snprintf
    b464:	910203e0 	add	x0, sp, #0x80
    b468:	52800021 	mov	w1, #0x1                   	// #1
    b46c:	94000000 	bl	e9c0 <open>	b46c: R_AARCH64_CALL26	open
    b470:	2a0003f4 	mov	w20, w0
    b474:	36f801a0 	tbz	w0, #31, b4a8 <cmd_wait+0xec>
    b478:	f94002d7 	ldr	x23, [x22]
    b47c:	f9401ab4 	ldr	x20, [x21, #48]
    b480:	94000000 	bl	2454 <__errno>	b480: R_AARCH64_CALL26	__errno
    b484:	b9400004 	ldr	w4, [x0]
    b488:	aa1703e2 	mov	x2, x23
    b48c:	aa1503e0 	mov	x0, x21
    b490:	90000003 	adrp	x3, ebb8 <_srodata>	b490: R_AARCH64_ADR_PREL_PG_HI21	.rodata+0x1b46
    b494:	90000001 	adrp	x1, f03d <g_fmtcmdfailed>	b494: R_AARCH64_ADR_PREL_PG_HI21	g_fmtcmdfailed
    b498:	91000063 	add	x3, x3, #0x0	b498: R_AARCH64_ADD_ABS_LO12_NC	.rodata+0x1b46
    b49c:	91000021 	add	x1, x1, #0x0	b49c: R_AARCH64_ADD_ABS_LO12_NC	g_fmtcmdfailed
    b4a0:	d63f0280 	blr	x20
    b4a4:	14000013 	b	b4f0 <cmd_wait+0x134>
    b4a8:	910283e1 	add	x1, sp, #0xa0
    b4ac:	d2800fe2 	mov	x2, #0x7f                  	// #127
    b4b0:	94000000 	bl	ea70 <read>	b4b0: R_AARCH64_CALL26	read
    b4b4:	2a0003f3 	mov	w19, w0
    b4b8:	36f80200 	tbz	w0, #31, b4f8 <cmd_wait+0x13c>
    b4bc:	f94002db 	ldr	x27, [x22]
    b4c0:	f9401ab7 	ldr	x23, [x21, #48]
    b4c4:	94000000 	bl	2454 <__errno>	b4c4: R_AARCH64_CALL26	__errno
    b4c8:	b9400004 	ldr	w4, [x0]
    b4cc:	aa1b03e2 	mov	x2, x27
    b4d0:	90000003 	adrp	x3, ebb8 <_srodata>	b4d0: R_AARCH64_ADR_PREL_PG_HI21	.rodata+0x1b46
    b4d4:	90000001 	adrp	x1, f03d <g_fmtcmdfailed>	b4d4: R_AARCH64_ADR_PREL_PG_HI21	g_fmtcmdfailed
    b4d8:	91000063 	add	x3, x3, #0x0	b4d8: R_AARCH64_ADD_ABS_LO12_NC	.rodata+0x1b46
    b4dc:	91000021 	add	x1, x1, #0x0	b4dc: R_AARCH64_ADD_ABS_LO12_NC	g_fmtcmdfailed
    b4e0:	aa1503e0 	mov	x0, x21
    b4e4:	d63f02e0 	blr	x23
    b4e8:	2a1403e0 	mov	w0, w20
    b4ec:	94000000 	bl	e814 <close>	b4ec: R_AARCH64_CALL26	close
    b4f0:	91000718 	add	x24, x24, #0x1
    b4f4:	17ffffc7 	b	b410 <cmd_wait+0x54>
    b4f8:	910283fb 	add	x27, sp, #0xa0
    b4fc:	2a1403e0 	mov	w0, w20
    b500:	94000000 	bl	e814 <close>	b500: R_AARCH64_CALL26	close
    b504:	91000774 	add	x20, x27, #0x1
    b508:	39400280 	ldrb	w0, [x20]
    b50c:	7100001f 	cmp	w0, #0x0
    b510:	7a4a1804 	ccmp	w0, #0xa, #0x4, ne	// ne = any
    b514:	54000261 	b.ne	b560 <cmd_wait+0x1a4>  // b.any
    b518:	7100281f 	cmp	w0, #0xa
    b51c:	54000261 	b.ne	b568 <cmd_wait+0x1ac>  // b.any
    b520:	3800169f 	strb	wzr, [x20], #1
    b524:	aa1c03e1 	mov	x1, x28
    b528:	aa1b03e0 	mov	x0, x27
    b52c:	d28000c2 	mov	x2, #0x6                   	// #6
    b530:	94000000 	bl	a9c <strncmp>	b530: R_AARCH64_CALL26	strncmp
    b534:	35000280 	cbnz	w0, b584 <cmd_wait+0x1c8>
    b538:	91001f60 	add	x0, x27, #0x7
    b53c:	94000000 	bl	d2d0 <atoi>	b53c: R_AARCH64_CALL26	atoi
    b540:	6b1a001f 	cmp	w0, w26
    b544:	54000161 	b.ne	b570 <cmd_wait+0x1b4>  // b.any
    b548:	9101f3e1 	add	x1, sp, #0x7c
    b54c:	2a1703e0 	mov	w0, w23
    b550:	94000000 	bl	ea50 <pthread_join>	b550: R_AARCH64_CALL26	pthread_join
    b554:	2a0003f3 	mov	w19, w0
    b558:	36fffcc0 	tbz	w0, #31, b4f0 <cmd_wait+0x134>
    b55c:	17ffffc7 	b	b478 <cmd_wait+0xbc>
    b560:	91000694 	add	x20, x20, #0x1
    b564:	17ffffe9 	b	b508 <cmd_wait+0x14c>
    b568:	d2800014 	mov	x20, #0x0                   	// #0
    b56c:	17ffffee 	b	b524 <cmd_wait+0x168>
    b570:	9101f3e1 	add	x1, sp, #0x7c
    b574:	2a1703e0 	mov	w0, w23
    b578:	52800002 	mov	w2, #0x0                   	// #0
    b57c:	94000000 	bl	eb90 <waitpid>	b57c: R_AARCH64_CALL26	waitpid
    b580:	17fffff5 	b	b554 <cmd_wait+0x198>
    b584:	b4fffb74 	cbz	x20, b4f0 <cmd_wait+0x134>
    b588:	aa1403fb 	mov	x27, x20
    b58c:	17ffffde 	b	b504 <cmd_wait+0x148>
    b590:	52800013 	mov	w19, #0x0                   	// #0
    b594:	17ffffa3 	b	b420 <cmd_wait+0x64>

000000000000b598 <free>:
free():
    b598:	aa0003e1 	mov	x1, x0
    b59c:	d2b80000 	mov	x0, #0xc0000000            	// #3221225472
    b5a0:	f9400400 	ldr	x0, [x0, #8]
    b5a4:	14000000 	b	badc <mm_free>	b5a4: R_AARCH64_JUMP26	mm_free

000000000000b5a8 <malloc>:
malloc():
    b5a8:	aa0003e1 	mov	x1, x0
    b5ac:	d2800100 	mov	x0, #0x8                   	// #8
    b5b0:	14000000 	b	b5b4 <memalign>	b5b0: R_AARCH64_JUMP26	memalign

000000000000b5b4 <memalign>:
memalign():
    b5b4:	a9bd4ffe 	stp	x30, x19, [sp, #-48]!
    b5b8:	aa0103f3 	mov	x19, x1
    b5bc:	f90013f6 	str	x22, [sp, #32]
    b5c0:	d2b80016 	mov	x22, #0xc0000000            	// #3221225472
    b5c4:	a90157f4 	stp	x20, x21, [sp, #16]
    b5c8:	aa0003f5 	mov	x21, x0
    b5cc:	94000000 	bl	c2dc <umm_try_initialize>	b5cc: R_AARCH64_CALL26	umm_try_initialize
    b5d0:	f94006c0 	ldr	x0, [x22, #8]
    b5d4:	aa1303e2 	mov	x2, x19
    b5d8:	aa1503e1 	mov	x1, x21
    b5dc:	94000000 	bl	bb2c <mm_memalign>	b5dc: R_AARCH64_CALL26	mm_memalign
    b5e0:	aa0003f4 	mov	x20, x0
    b5e4:	b50000c0 	cbnz	x0, b5fc <memalign+0x48>
    b5e8:	f100027f 	cmp	x19, #0x0
    b5ec:	9a9f1660 	csinc	x0, x19, xzr, ne	// ne = any
    b5f0:	94000000 	bl	b6a0 <sbrk>	b5f0: R_AARCH64_CALL26	sbrk
    b5f4:	b100041f 	cmn	x0, #0x1
    b5f8:	54fffec1 	b.ne	b5d0 <memalign+0x1c>  // b.any
    b5fc:	f94013f6 	ldr	x22, [sp, #32]
    b600:	aa1403e0 	mov	x0, x20
    b604:	a94157f4 	ldp	x20, x21, [sp, #16]
    b608:	a8c34ffe 	ldp	x30, x19, [sp], #48
    b60c:	d65f03c0 	ret

000000000000b610 <realloc>:
realloc():
    b610:	a9bd4ffe 	stp	x30, x19, [sp, #-48]!
    b614:	aa0103f3 	mov	x19, x1
    b618:	f90013f6 	str	x22, [sp, #32]
    b61c:	d2b80016 	mov	x22, #0xc0000000            	// #3221225472
    b620:	a90157f4 	stp	x20, x21, [sp, #16]
    b624:	aa0003f5 	mov	x21, x0
    b628:	94000000 	bl	c2dc <umm_try_initialize>	b628: R_AARCH64_CALL26	umm_try_initialize
    b62c:	f94006c0 	ldr	x0, [x22, #8]
    b630:	aa1303e2 	mov	x2, x19
    b634:	aa1503e1 	mov	x1, x21
    b638:	94000000 	bl	be08 <mm_realloc>	b638: R_AARCH64_CALL26	mm_realloc
    b63c:	aa0003f4 	mov	x20, x0
    b640:	b50000c0 	cbnz	x0, b658 <realloc+0x48>
    b644:	f100027f 	cmp	x19, #0x0
    b648:	9a9f1660 	csinc	x0, x19, xzr, ne	// ne = any
    b64c:	94000000 	bl	b6a0 <sbrk>	b64c: R_AARCH64_CALL26	sbrk
    b650:	b100041f 	cmn	x0, #0x1
    b654:	54fffec1 	b.ne	b62c <realloc+0x1c>  // b.any
    b658:	f94013f6 	ldr	x22, [sp, #32]
    b65c:	aa1403e0 	mov	x0, x20
    b660:	a94157f4 	ldp	x20, x21, [sp, #16]
    b664:	a8c34ffe 	ldp	x30, x19, [sp], #48
    b668:	d65f03c0 	ret

000000000000b66c <zalloc>:
zalloc():
    b66c:	a9be4ffe 	stp	x30, x19, [sp, #-32]!
    b670:	f9000bf4 	str	x20, [sp, #16]
    b674:	aa0003f4 	mov	x20, x0
    b678:	94000000 	bl	b5a8 <malloc>	b678: R_AARCH64_CALL26	malloc
    b67c:	aa0003f3 	mov	x19, x0
    b680:	b4000080 	cbz	x0, b690 <zalloc+0x24>
    b684:	aa1403e2 	mov	x2, x20
    b688:	52800001 	mov	w1, #0x0                   	// #0
    b68c:	94000000 	bl	3c0 <memset>	b68c: R_AARCH64_CALL26	memset
    b690:	f9400bf4 	ldr	x20, [sp, #16]
    b694:	aa1303e0 	mov	x0, x19
    b698:	a8c24ffe 	ldp	x30, x19, [sp], #32
    b69c:	d65f03c0 	ret

000000000000b6a0 <sbrk>:
sbrk():
    b6a0:	a9be4ffe 	stp	x30, x19, [sp, #-32]!
    b6a4:	a90157f4 	stp	x20, x21, [sp, #16]
    b6a8:	b6f800e0 	tbz	x0, #63, b6c4 <sbrk+0x24>
    b6ac:	90000002 	adrp	x2, ebb8 <_srodata>	b6ac: R_AARCH64_ADR_PREL_PG_HI21	.rodata+0x1b52
    b6b0:	90000000 	adrp	x0, ebb8 <_srodata>	b6b0: R_AARCH64_ADR_PREL_PG_HI21	.rodata+0x1b5c
    b6b4:	91000042 	add	x2, x2, #0x0	b6b4: R_AARCH64_ADD_ABS_LO12_NC	.rodata+0x1b52
    b6b8:	91000000 	add	x0, x0, #0x0	b6b8: R_AARCH64_ADD_ABS_LO12_NC	.rodata+0x1b5c
    b6bc:	52800a81 	mov	w1, #0x54                  	// #84
    b6c0:	94000000 	bl	2444 <__assert>	b6c0: R_AARCH64_CALL26	__assert
    b6c4:	d2b80015 	mov	x21, #0xc0000000            	// #3221225472
    b6c8:	aa0003f3 	mov	x19, x0
    b6cc:	94000000 	bl	c2dc <umm_try_initialize>	b6cc: R_AARCH64_CALL26	umm_try_initialize
    b6d0:	f94006a0 	ldr	x0, [x21, #8]
    b6d4:	52800001 	mov	w1, #0x0                   	// #0
    b6d8:	94000000 	bl	b730 <mm_brkaddr>	b6d8: R_AARCH64_CALL26	mm_brkaddr
    b6dc:	aa0003f4 	mov	x20, x0
    b6e0:	b4000173 	cbz	x19, b70c <sbrk+0x6c>
    b6e4:	913ffe73 	add	x19, x19, #0xfff
    b6e8:	d34cfe73 	lsr	x19, x19, #12
    b6ec:	2a1303e1 	mov	w1, w19
    b6f0:	94000000 	bl	ea00 <pgalloc>	b6f0: R_AARCH64_CALL26	pgalloc
    b6f4:	aa0003e1 	mov	x1, x0
    b6f8:	b5000120 	cbnz	x0, b71c <sbrk+0x7c>
    b6fc:	94000000 	bl	2454 <__errno>	b6fc: R_AARCH64_CALL26	__errno
    b700:	92800014 	mov	x20, #0xffffffffffffffff    	// #-1
    b704:	52800161 	mov	w1, #0xb                   	// #11
    b708:	b9000001 	str	w1, [x0]
    b70c:	aa1403e0 	mov	x0, x20
    b710:	a94157f4 	ldp	x20, x21, [sp, #16]
    b714:	a8c24ffe 	ldp	x30, x19, [sp], #32
    b718:	d65f03c0 	ret
    b71c:	f94006a0 	ldr	x0, [x21, #8]
    b720:	53144e62 	lsl	w2, w19, #12
    b724:	52800003 	mov	w3, #0x0                   	// #0
    b728:	94000000 	bl	b76c <mm_extend>	b728: R_AARCH64_CALL26	mm_extend
    b72c:	17fffff8 	b	b70c <sbrk+0x6c>

000000000000b730 <mm_brkaddr>:
mm_brkaddr():
    b730:	f100001f 	cmp	x0, #0x0
    b734:	7a401820 	ccmp	w1, #0x0, #0x0, ne	// ne = any
    b738:	54000100 	b.eq	b758 <mm_brkaddr+0x28>  // b.none
    b73c:	f81f0ffe 	str	x30, [sp, #-16]!
    b740:	90000002 	adrp	x2, ebb8 <_srodata>	b740: R_AARCH64_ADR_PREL_PG_HI21	.rodata+0x1b70
    b744:	90000000 	adrp	x0, ebb8 <_srodata>	b744: R_AARCH64_ADR_PREL_PG_HI21	.rodata+0x1b84
    b748:	91000042 	add	x2, x2, #0x0	b748: R_AARCH64_ADD_ABS_LO12_NC	.rodata+0x1b70
    b74c:	91000000 	add	x0, x0, #0x0	b74c: R_AARCH64_ADD_ABS_LO12_NC	.rodata+0x1b84
    b750:	528006e1 	mov	w1, #0x37                  	// #55
    b754:	94000000 	bl	2444 <__assert>	b754: R_AARCH64_CALL26	__assert
    b758:	f9402001 	ldr	x1, [x0, #64]
    b75c:	91004020 	add	x0, x1, #0x10
    b760:	f100003f 	cmp	x1, #0x0
    b764:	9a9f1000 	csel	x0, x0, xzr, ne	// ne = any
    b768:	d65f03c0 	ret

000000000000b76c <mm_extend>:
mm_extend():
    b76c:	a9bd4ffe 	stp	x30, x19, [sp, #-48]!
    b770:	f100001f 	cmp	x0, #0x0
    b774:	fa401824 	ccmp	x1, #0x0, #0x4, ne	// ne = any
    b778:	a90157f4 	stp	x20, x21, [sp, #16]
    b77c:	a9025ff6 	stp	x22, x23, [sp, #32]
    b780:	540000e1 	b.ne	b79c <mm_extend+0x30>  // b.any
    b784:	90000002 	adrp	x2, ebb8 <_srodata>	b784: R_AARCH64_ADR_PREL_PG_HI21	.rodata+0x1b99
    b788:	91000042 	add	x2, x2, #0x0	b788: R_AARCH64_ADD_ABS_LO12_NC	.rodata+0x1b99
    b78c:	52800801 	mov	w1, #0x40                  	// #64
    b790:	90000000 	adrp	x0, ebb8 <_srodata>	b790: R_AARCH64_ADR_PREL_PG_HI21	.rodata+0x1ba5
    b794:	91000000 	add	x0, x0, #0x0	b794: R_AARCH64_ADD_ABS_LO12_NC	.rodata+0x1ba5
    b798:	94000000 	bl	2444 <__assert>	b798: R_AARCH64_CALL26	__assert
    b79c:	7100007f 	cmp	w3, #0x0
    b7a0:	aa0203f4 	mov	x20, x2
    b7a4:	fa5f0840 	ccmp	x2, #0x1f, #0x0, eq	// eq = none
    b7a8:	540000a8 	b.hi	b7bc <mm_extend+0x50>  // b.pmore
    b7ac:	90000002 	adrp	x2, ebb8 <_srodata>	b7ac: R_AARCH64_ADR_PREL_PG_HI21	.rodata+0x1bb9
    b7b0:	528008a1 	mov	w1, #0x45                  	// #69
    b7b4:	91000042 	add	x2, x2, #0x0	b7b4: R_AARCH64_ADD_ABS_LO12_NC	.rodata+0x1bb9
    b7b8:	17fffff6 	b	b790 <mm_extend+0x24>
    b7bc:	91001c36 	add	x22, x1, #0x7
    b7c0:	8b010055 	add	x21, x2, x1
    b7c4:	927df2d6 	and	x22, x22, #0xfffffffffffffff8
    b7c8:	eb0102df 	cmp	x22, x1
    b7cc:	540000a0 	b.eq	b7e0 <mm_extend+0x74>  // b.none
    b7d0:	90000002 	adrp	x2, ebb8 <_srodata>	b7d0: R_AARCH64_ADR_PREL_PG_HI21	.rodata+0x1bf4
    b7d4:	528009a1 	mov	w1, #0x4d                  	// #77
    b7d8:	91000042 	add	x2, x2, #0x0	b7d8: R_AARCH64_ADD_ABS_LO12_NC	.rodata+0x1bf4
    b7dc:	17ffffed 	b	b790 <mm_extend+0x24>
    b7e0:	f2400abf 	tst	x21, #0x7
    b7e4:	540000a0 	b.eq	b7f8 <mm_extend+0x8c>  // b.none
    b7e8:	90000002 	adrp	x2, ebb8 <_srodata>	b7e8: R_AARCH64_ADR_PREL_PG_HI21	.rodata+0x1c28
    b7ec:	528009c1 	mov	w1, #0x4e                  	// #78
    b7f0:	91000042 	add	x2, x2, #0x0	b7f0: R_AARCH64_ADD_ABS_LO12_NC	.rodata+0x1c28
    b7f4:	17ffffe7 	b	b790 <mm_extend+0x24>
    b7f8:	aa0003f3 	mov	x19, x0
    b7fc:	94000000 	bl	c514 <mm_lock>	b7fc: R_AARCH64_CALL26	mm_lock
    b800:	36f800a0 	tbz	w0, #31, b814 <mm_extend+0xa8>
    b804:	90000002 	adrp	x2, ebb8 <_srodata>	b804: R_AARCH64_ADR_PREL_PG_HI21	.rodata+0x1c4c
    b808:	52800a41 	mov	w1, #0x52                  	// #82
    b80c:	91000042 	add	x2, x2, #0x0	b80c: R_AARCH64_ADD_ABS_LO12_NC	.rodata+0x1c4c
    b810:	17ffffe0 	b	b790 <mm_extend+0x24>
    b814:	f9402262 	ldr	x2, [x19, #64]
    b818:	91004057 	add	x23, x2, #0x10
    b81c:	eb1602ff 	cmp	x23, x22
    b820:	540000a0 	b.eq	b834 <mm_extend+0xc8>  // b.none
    b824:	90000002 	adrp	x2, ebb8 <_srodata>	b824: R_AARCH64_ADR_PREL_PG_HI21	.rodata+0x1c5a
    b828:	52800b21 	mov	w1, #0x59                  	// #89
    b82c:	91000042 	add	x2, x2, #0x0	b82c: R_AARCH64_ADD_ABS_LO12_NC	.rodata+0x1c5a
    b830:	17ffffd8 	b	b790 <mm_extend+0x24>
    b834:	f9400440 	ldr	x0, [x2, #8]
    b838:	92400400 	and	x0, x0, #0x3
    b83c:	aa140000 	orr	x0, x0, x20
    b840:	f9000440 	str	x0, [x2, #8]
    b844:	370000a0 	tbnz	w0, #0, b858 <mm_extend+0xec>
    b848:	90000002 	adrp	x2, ebb8 <_srodata>	b848: R_AARCH64_ADR_PREL_PG_HI21	.rodata+0x1c9b
    b84c:	52800ca1 	mov	w1, #0x65                  	// #101
    b850:	91000042 	add	x2, x2, #0x0	b850: R_AARCH64_ADD_ABS_LO12_NC	.rodata+0x1c9b
    b854:	17ffffcf 	b	b790 <mm_extend+0x24>
    b858:	d10042b5 	sub	x21, x21, #0x10
    b85c:	d2800220 	mov	x0, #0x11                  	// #17
    b860:	f90006a0 	str	x0, [x21, #8]
    b864:	f9002275 	str	x21, [x19, #64]
    b868:	f9401260 	ldr	x0, [x19, #32]
    b86c:	8b140000 	add	x0, x0, x20
    b870:	f9001260 	str	x0, [x19, #32]
    b874:	aa1303e0 	mov	x0, x19
    b878:	94000000 	bl	c53c <mm_unlock>	b878: R_AARCH64_CALL26	mm_unlock
    b87c:	aa1703e1 	mov	x1, x23
    b880:	aa1303e0 	mov	x0, x19
    b884:	a94157f4 	ldp	x20, x21, [sp, #16]
    b888:	a9425ff6 	ldp	x22, x23, [sp, #32]
    b88c:	a8c34ffe 	ldp	x30, x19, [sp], #48
    b890:	14000000 	b	badc <mm_free>	b890: R_AARCH64_JUMP26	mm_free

000000000000b894 <mm_delayfree>:
mm_delayfree():
    b894:	a9be4ffe 	stp	x30, x19, [sp, #-32]!
    b898:	aa0003f3 	mov	x19, x0
    b89c:	a90157f4 	stp	x20, x21, [sp, #16]
    b8a0:	aa0103f4 	mov	x20, x1
    b8a4:	12001c55 	and	w21, w2, #0xff
    b8a8:	94000000 	bl	c514 <mm_lock>	b8a8: R_AARCH64_CALL26	mm_lock
    b8ac:	37f81120 	tbnz	w0, #31, bad0 <mm_delayfree+0x23c>
    b8b0:	aa1403e1 	mov	x1, x20
    b8b4:	aa1303e0 	mov	x0, x19
    b8b8:	94000000 	bl	c57c <mm_malloc_size>	b8b8: R_AARCH64_CALL26	mm_malloc_size
    b8bc:	360000b5 	tbz	w21, #0, b8d0 <mm_delayfree+0x3c>
    b8c0:	a94157f4 	ldp	x20, x21, [sp, #16]
    b8c4:	aa1303e0 	mov	x0, x19
    b8c8:	a8c24ffe 	ldp	x30, x19, [sp], #32
    b8cc:	14000000 	b	c53c <mm_unlock>	b8cc: R_AARCH64_JUMP26	mm_unlock
    b8d0:	f85f8281 	ldur	x1, [x20, #-8]
    b8d4:	d1004282 	sub	x2, x20, #0x10
    b8d8:	927ef420 	and	x0, x1, #0xfffffffffffffffc
    b8dc:	370000e1 	tbnz	w1, #0, b8f8 <mm_delayfree+0x64>
    b8e0:	90000002 	adrp	x2, ebb8 <_srodata>	b8e0: R_AARCH64_ADR_PREL_PG_HI21	.rodata+0x1cba
    b8e4:	91000042 	add	x2, x2, #0x0	b8e4: R_AARCH64_ADD_ABS_LO12_NC	.rodata+0x1cba
    b8e8:	52801101 	mov	w1, #0x88                  	// #136
    b8ec:	90000000 	adrp	x0, ebb8 <_srodata>	b8ec: R_AARCH64_ADR_PREL_PG_HI21	.rodata+0x1cd6
    b8f0:	91000000 	add	x0, x0, #0x0	b8f0: R_AARCH64_ADD_ABS_LO12_NC	.rodata+0x1cd6
    b8f4:	94000000 	bl	2444 <__assert>	b8f4: R_AARCH64_CALL26	__assert
    b8f8:	927ff821 	and	x1, x1, #0xfffffffffffffffe
    b8fc:	f9000441 	str	x1, [x2, #8]
    b900:	8b000044 	add	x4, x2, x0
    b904:	f9401a61 	ldr	x1, [x19, #48]
    b908:	cb000021 	sub	x1, x1, x0
    b90c:	f9001a61 	str	x1, [x19, #48]
    b910:	f9400483 	ldr	x3, [x4, #8]
    b914:	360800a3 	tbz	w3, #1, b928 <mm_delayfree+0x94>
    b918:	90000002 	adrp	x2, ebb8 <_srodata>	b918: R_AARCH64_ADR_PREL_PG_HI21	.rodata+0x1ce8
    b91c:	52801281 	mov	w1, #0x94                  	// #148
    b920:	91000042 	add	x2, x2, #0x0	b920: R_AARCH64_ADD_ABS_LO12_NC	.rodata+0x1ce8
    b924:	17fffff2 	b	b8ec <mm_delayfree+0x58>
    b928:	37000543 	tbnz	w3, #0, b9d0 <mm_delayfree+0x13c>
    b92c:	927ef463 	and	x3, x3, #0xfffffffffffffffc
    b930:	8b030085 	add	x5, x4, x3
    b934:	f94004a1 	ldr	x1, [x5, #8]
    b938:	36080081 	tbz	w1, #1, b948 <mm_delayfree+0xb4>
    b93c:	f8636881 	ldr	x1, [x4, x3]
    b940:	eb01007f 	cmp	x3, x1
    b944:	540000a0 	b.eq	b958 <mm_delayfree+0xc4>  // b.none
    b948:	90000002 	adrp	x2, ebb8 <_srodata>	b948: R_AARCH64_ADR_PREL_PG_HI21	.rodata+0x1d04
    b94c:	52801401 	mov	w1, #0xa0                  	// #160
    b950:	91000042 	add	x2, x2, #0x0	b950: R_AARCH64_ADD_ABS_LO12_NC	.rodata+0x1d04
    b954:	17ffffe6 	b	b8ec <mm_delayfree+0x58>
    b958:	f9400c86 	ldr	x6, [x4, #24]
    b95c:	b50000a6 	cbnz	x6, b970 <mm_delayfree+0xdc>
    b960:	90000002 	adrp	x2, ebb8 <_srodata>	b960: R_AARCH64_ADR_PREL_PG_HI21	.rodata+0x1d49
    b964:	528014e1 	mov	w1, #0xa7                  	// #167
    b968:	91000042 	add	x2, x2, #0x0	b968: R_AARCH64_ADD_ABS_LO12_NC	.rodata+0x1d49
    b96c:	17ffffe0 	b	b8ec <mm_delayfree+0x58>
    b970:	f9400881 	ldr	x1, [x4, #16]
    b974:	f90008c1 	str	x1, [x6, #16]
    b978:	b4000061 	cbz	x1, b984 <mm_delayfree+0xf0>
    b97c:	f9400c86 	ldr	x6, [x4, #24]
    b980:	f9000c26 	str	x6, [x1, #24]
    b984:	f9400441 	ldr	x1, [x2, #8]
    b988:	8b030000 	add	x0, x0, x3
    b98c:	92400421 	and	x1, x1, #0x3
    b990:	aa000021 	orr	x1, x1, x0
    b994:	f9000441 	str	x1, [x2, #8]
    b998:	f8236880 	str	x0, [x4, x3]
    b99c:	f9400441 	ldr	x1, [x2, #8]
    b9a0:	36080421 	tbz	w1, #1, ba24 <mm_delayfree+0x190>
    b9a4:	f85f0283 	ldur	x3, [x20, #-16]
    b9a8:	cb030042 	sub	x2, x2, x3
    b9ac:	f9400444 	ldr	x4, [x2, #8]
    b9b0:	927ef481 	and	x1, x4, #0xfffffffffffffffc
    b9b4:	37000064 	tbnz	w4, #0, b9c0 <mm_delayfree+0x12c>
    b9b8:	eb01007f 	cmp	x3, x1
    b9bc:	54000120 	b.eq	b9e0 <mm_delayfree+0x14c>  // b.none
    b9c0:	90000002 	adrp	x2, ebb8 <_srodata>	b9c0: R_AARCH64_ADR_PREL_PG_HI21	.rodata+0x1d55
    b9c4:	52801881 	mov	w1, #0xc4                  	// #196
    b9c8:	91000042 	add	x2, x2, #0x0	b9c8: R_AARCH64_ADD_ABS_LO12_NC	.rodata+0x1d55
    b9cc:	17ffffc8 	b	b8ec <mm_delayfree+0x58>
    b9d0:	b27f0063 	orr	x3, x3, #0x2
    b9d4:	aa0403e5 	mov	x5, x4
    b9d8:	a9000c80 	stp	x0, x3, [x4]
    b9dc:	17fffff0 	b	b99c <mm_delayfree+0x108>
    b9e0:	f9400c44 	ldr	x4, [x2, #24]
    b9e4:	b50000a4 	cbnz	x4, b9f8 <mm_delayfree+0x164>
    b9e8:	90000002 	adrp	x2, ebb8 <_srodata>	b9e8: R_AARCH64_ADR_PREL_PG_HI21	.rodata+0x1d90
    b9ec:	52801941 	mov	w1, #0xca                  	// #202
    b9f0:	91000042 	add	x2, x2, #0x0	b9f0: R_AARCH64_ADD_ABS_LO12_NC	.rodata+0x1d90
    b9f4:	17ffffbe 	b	b8ec <mm_delayfree+0x58>
    b9f8:	f9400843 	ldr	x3, [x2, #16]
    b9fc:	f9000883 	str	x3, [x4, #16]
    ba00:	b4000063 	cbz	x3, ba0c <mm_delayfree+0x178>
    ba04:	f9400c44 	ldr	x4, [x2, #24]
    ba08:	f9000c64 	str	x4, [x3, #24]
    ba0c:	8b000020 	add	x0, x1, x0
    ba10:	f9400441 	ldr	x1, [x2, #8]
    ba14:	92400421 	and	x1, x1, #0x3
    ba18:	aa000021 	orr	x1, x1, x0
    ba1c:	f9000441 	str	x1, [x2, #8]
    ba20:	f90000a0 	str	x0, [x5]
    ba24:	f9400440 	ldr	x0, [x2, #8]
    ba28:	927ef404 	and	x4, x0, #0xfffffffffffffffc
    ba2c:	f1007c9f 	cmp	x4, #0x1f
    ba30:	540000e8 	b.hi	ba4c <mm_delayfree+0x1b8>  // b.pmore
    ba34:	90000002 	adrp	x2, ebb8 <_srodata>	ba34: R_AARCH64_ADR_PREL_PG_HI21	.rodata+0x1d9c
    ba38:	91000042 	add	x2, x2, #0x0	ba38: R_AARCH64_ADD_ABS_LO12_NC	.rodata+0x1d9c
    ba3c:	528028c1 	mov	w1, #0x146                 	// #326
    ba40:	90000000 	adrp	x0, ebb8 <_srodata>	ba40: R_AARCH64_ADR_PREL_PG_HI21	.rodata+0x63b2
    ba44:	91000000 	add	x0, x0, #0x0	ba44: R_AARCH64_ADD_ABS_LO12_NC	.rodata+0x63b2
    ba48:	17ffffab 	b	b8f4 <mm_delayfree+0x60>
    ba4c:	360000a0 	tbz	w0, #0, ba60 <mm_delayfree+0x1cc>
    ba50:	90000002 	adrp	x2, ebb8 <_srodata>	ba50: R_AARCH64_ADR_PREL_PG_HI21	.rodata+0x63dc
    ba54:	528028e1 	mov	w1, #0x147                 	// #327
    ba58:	91000042 	add	x2, x2, #0x0	ba58: R_AARCH64_ADD_ABS_LO12_NC	.rodata+0x63dc
    ba5c:	17fffff9 	b	ba40 <mm_delayfree+0x1ac>
    ba60:	d345fc80 	lsr	x0, x4, #5
    ba64:	528007e1 	mov	w1, #0x3f                  	// #63
    ba68:	dac01000 	clz	x0, x0
    ba6c:	4b000021 	sub	w1, w1, w0
    ba70:	b24057e0 	mov	x0, #0x3fffff              	// #4194303
    ba74:	eb00009f 	cmp	x4, x0
    ba78:	52800220 	mov	w0, #0x11                  	// #17
    ba7c:	1a809021 	csel	w1, w1, w0, ls	// ls = plast
    ba80:	d37b7c20 	ubfiz	x0, x1, #5, #32
    ba84:	937b7c21 	sbfiz	x1, x1, #5, #32
    ba88:	8b010261 	add	x1, x19, x1
    ba8c:	91012000 	add	x0, x0, #0x48
    ba90:	8b000260 	add	x0, x19, x0
    ba94:	f9402c21 	ldr	x1, [x1, #88]
    ba98:	b40000c1 	cbz	x1, bab0 <mm_delayfree+0x21c>
    ba9c:	f9400423 	ldr	x3, [x1, #8]
    baa0:	b4000083 	cbz	x3, bab0 <mm_delayfree+0x21c>
    baa4:	927ef463 	and	x3, x3, #0xfffffffffffffffc
    baa8:	eb03009f 	cmp	x4, x3
    baac:	540000c8 	b.hi	bac4 <mm_delayfree+0x230>  // b.pmore
    bab0:	f9000802 	str	x2, [x0, #16]
    bab4:	a9010041 	stp	x1, x0, [x2, #16]
    bab8:	b4fff041 	cbz	x1, b8c0 <mm_delayfree+0x2c>
    babc:	f9000c22 	str	x2, [x1, #24]
    bac0:	17ffff80 	b	b8c0 <mm_delayfree+0x2c>
    bac4:	aa0103e0 	mov	x0, x1
    bac8:	f9400821 	ldr	x1, [x1, #16]
    bacc:	17fffff3 	b	ba98 <mm_delayfree+0x204>
    bad0:	a94157f4 	ldp	x20, x21, [sp, #16]
    bad4:	a8c24ffe 	ldp	x30, x19, [sp], #32
    bad8:	d65f03c0 	ret

000000000000badc <mm_free>:
mm_free():
    badc:	b4000261 	cbz	x1, bb28 <mm_free+0x4c>
    bae0:	a9be4ffe 	stp	x30, x19, [sp, #-32]!
    bae4:	aa0103f3 	mov	x19, x1
    bae8:	f9000bf4 	str	x20, [sp, #16]
    baec:	aa0003f4 	mov	x20, x0
    baf0:	94000000 	bl	c294 <mm_heapmember>	baf0: R_AARCH64_CALL26	mm_heapmember
    baf4:	370000e0 	tbnz	w0, #0, bb10 <mm_free+0x34>
    baf8:	90000002 	adrp	x2, ebb8 <_srodata>	baf8: R_AARCH64_ADR_PREL_PG_HI21	.rodata+0x63f8
    bafc:	90000000 	adrp	x0, ebb8 <_srodata>	bafc: R_AARCH64_ADR_PREL_PG_HI21	.rodata+0x1cd6
    bb00:	91000042 	add	x2, x2, #0x0	bb00: R_AARCH64_ADD_ABS_LO12_NC	.rodata+0x63f8
    bb04:	91000000 	add	x0, x0, #0x0	bb04: R_AARCH64_ADD_ABS_LO12_NC	.rodata+0x1cd6
    bb08:	52801e61 	mov	w1, #0xf3                  	// #243
    bb0c:	94000000 	bl	2444 <__assert>	bb0c: R_AARCH64_CALL26	__assert
    bb10:	aa1303e1 	mov	x1, x19
    bb14:	aa1403e0 	mov	x0, x20
    bb18:	f9400bf4 	ldr	x20, [sp, #16]
    bb1c:	52800002 	mov	w2, #0x0                   	// #0
    bb20:	a8c24ffe 	ldp	x30, x19, [sp], #32
    bb24:	14000000 	b	b894 <mm_delayfree>	bb24: R_AARCH64_JUMP26	mm_delayfree
    bb28:	d65f03c0 	ret

000000000000bb2c <mm_memalign>:
mm_memalign():
    bb2c:	aa0103e3 	mov	x3, x1
    bb30:	aa0203e1 	mov	x1, x2
    bb34:	b27ff7e2 	mov	x2, #0x7ffffffffffffffe    	// #9223372036854775806
    bb38:	eb02007f 	cmp	x3, x2
    bb3c:	54000129 	b.ls	bb60 <mm_memalign+0x34>  // b.plast
    bb40:	d2800000 	mov	x0, #0x0                   	// #0
    bb44:	d65f03c0 	ret
    bb48:	d2800000 	mov	x0, #0x0                   	// #0
    bb4c:	a94157f4 	ldp	x20, x21, [sp, #16]
    bb50:	a9425ff6 	ldp	x22, x23, [sp, #32]
    bb54:	a94367f8 	ldp	x24, x25, [sp, #48]
    bb58:	a8c44ffe 	ldp	x30, x19, [sp], #64
    bb5c:	d65f03c0 	ret
    bb60:	a9bc4ffe 	stp	x30, x19, [sp, #-64]!
    bb64:	cb0303e2 	neg	x2, x3
    bb68:	a90157f4 	stp	x20, x21, [sp, #16]
    bb6c:	a9025ff6 	stp	x22, x23, [sp, #32]
    bb70:	a90367f8 	stp	x24, x25, [sp, #48]
    bb74:	8a030058 	and	x24, x2, x3
    bb78:	ea22007f 	bics	xzr, x3, x2
    bb7c:	54fffe61 	b.ne	bb48 <mm_memalign+0x1c>  // b.any
    bb80:	f100231f 	cmp	x24, #0x8
    bb84:	54000188 	b.hi	bbb4 <mm_memalign+0x88>  // b.pmore
    bb88:	94000000 	bl	c7d0 <mm_malloc>	bb88: R_AARCH64_CALL26	mm_malloc
    bb8c:	b4fffde0 	cbz	x0, bb48 <mm_memalign+0x1c>
    bb90:	9ad80801 	udiv	x1, x0, x24
    bb94:	9b188021 	msub	x1, x1, x24, x0
    bb98:	b4fffda1 	cbz	x1, bb4c <mm_memalign+0x20>
    bb9c:	90000002 	adrp	x2, ebb8 <_srodata>	bb9c: R_AARCH64_ADR_PREL_PG_HI21	.rodata+0x6411
    bba0:	90000000 	adrp	x0, ebb8 <_srodata>	bba0: R_AARCH64_ADR_PREL_PG_HI21	.rodata+0x6448
    bba4:	91000042 	add	x2, x2, #0x0	bba4: R_AARCH64_ADD_ABS_LO12_NC	.rodata+0x6411
    bba8:	91000000 	add	x0, x0, #0x0	bba8: R_AARCH64_ADD_ABS_LO12_NC	.rodata+0x6448
    bbac:	52800c21 	mov	w1, #0x61                  	// #97
    bbb0:	94000000 	bl	2444 <__assert>	bbb0: R_AARCH64_CALL26	__assert
    bbb4:	f100831f 	cmp	x24, #0x20
    bbb8:	d2800402 	mov	x2, #0x20                  	// #32
    bbbc:	9a822318 	csel	x24, x24, x2, cs	// cs = hs, nlast
    bbc0:	f100603f 	cmp	x1, #0x18
    bbc4:	d2800302 	mov	x2, #0x18                  	// #24
    bbc8:	9a822035 	csel	x21, x1, x2, cs	// cs = hs, nlast
    bbcc:	91001ea2 	add	x2, x21, #0x7
    bbd0:	d37ffb01 	lsl	x1, x24, #1
    bbd4:	927df042 	and	x2, x2, #0xfffffffffffffff8
    bbd8:	ab020021 	adds	x1, x1, x2
    bbdc:	aa0103f9 	mov	x25, x1
    bbe0:	fa4232a2 	ccmp	x21, x2, #0x2, cc	// cc = lo, ul, last
    bbe4:	54fffb28 	b.hi	bb48 <mm_memalign+0x1c>  // b.pmore
    bbe8:	aa0003f7 	mov	x23, x0
    bbec:	94000000 	bl	c7d0 <mm_malloc>	bbec: R_AARCH64_CALL26	mm_malloc
    bbf0:	aa0003f6 	mov	x22, x0
    bbf4:	b4fffaa0 	cbz	x0, bb48 <mm_memalign+0x1c>
    bbf8:	aa1703e0 	mov	x0, x23
    bbfc:	94000000 	bl	c514 <mm_lock>	bbfc: R_AARCH64_CALL26	mm_lock
    bc00:	36f800e0 	tbz	w0, #31, bc1c <mm_memalign+0xf0>
    bc04:	90000002 	adrp	x2, ebb8 <_srodata>	bc04: R_AARCH64_ADR_PREL_PG_HI21	.rodata+0x645e
    bc08:	90000000 	adrp	x0, ebb8 <_srodata>	bc08: R_AARCH64_ADR_PREL_PG_HI21	.rodata+0x6448
    bc0c:	91000042 	add	x2, x2, #0x0	bc0c: R_AARCH64_ADD_ABS_LO12_NC	.rodata+0x645e
    bc10:	91000000 	add	x0, x0, #0x0	bc10: R_AARCH64_ADD_ABS_LO12_NC	.rodata+0x6448
    bc14:	528012e1 	mov	w1, #0x97                  	// #151
    bc18:	94000000 	bl	2444 <__assert>	bc18: R_AARCH64_CALL26	__assert
    bc1c:	f85f82c1 	ldur	x1, [x22, #-8]
    bc20:	d1000713 	sub	x19, x24, #0x1
    bc24:	f9401ae0 	ldr	x0, [x23, #48]
    bc28:	927ef421 	and	x1, x1, #0xfffffffffffffffc
    bc2c:	8b160273 	add	x19, x19, x22
    bc30:	d10042d4 	sub	x20, x22, #0x10
    bc34:	cb010000 	sub	x0, x0, x1
    bc38:	f9001ae0 	str	x0, [x23, #48]
    bc3c:	cb1803e0 	neg	x0, x24
    bc40:	8a000273 	and	x19, x19, x0
    bc44:	eb1302df 	cmp	x22, x19
    bc48:	54000a00 	b.eq	bd88 <mm_memalign+0x25c>  // b.none
    bc4c:	f9400682 	ldr	x2, [x20, #8]
    bc50:	cb160260 	sub	x0, x19, x22
    bc54:	927ef441 	and	x1, x2, #0xfffffffffffffffc
    bc58:	8b010281 	add	x1, x20, x1
    bc5c:	f1007c1f 	cmp	x0, #0x1f
    bc60:	540001a9 	b.ls	bc94 <mm_memalign+0x168>  // b.plast
    bc64:	d1004263 	sub	x3, x19, #0x10
    bc68:	360802e2 	tbz	w2, #1, bcc4 <mm_memalign+0x198>
    bc6c:	f85f02c2 	ldur	x2, [x22, #-16]
    bc70:	cb020294 	sub	x20, x20, x2
    bc74:	f9400e84 	ldr	x4, [x20, #24]
    bc78:	b5000164 	cbnz	x4, bca4 <mm_memalign+0x178>
    bc7c:	90000002 	adrp	x2, ebb8 <_srodata>	bc7c: R_AARCH64_ADR_PREL_PG_HI21	.rodata+0x646c
    bc80:	90000000 	adrp	x0, ebb8 <_srodata>	bc80: R_AARCH64_ADR_PREL_PG_HI21	.rodata+0x6448
    bc84:	91000042 	add	x2, x2, #0x0	bc84: R_AARCH64_ADD_ABS_LO12_NC	.rodata+0x646c
    bc88:	91000000 	add	x0, x0, #0x0	bc88: R_AARCH64_ADD_ABS_LO12_NC	.rodata+0x6448
    bc8c:	52801b01 	mov	w1, #0xd8                  	// #216
    bc90:	94000000 	bl	2444 <__assert>	bc90: R_AARCH64_CALL26	__assert
    bc94:	8b180273 	add	x19, x19, x24
    bc98:	d1004263 	sub	x3, x19, #0x10
    bc9c:	cb160260 	sub	x0, x19, x22
    bca0:	17fffff2 	b	bc68 <mm_memalign+0x13c>
    bca4:	f9400a82 	ldr	x2, [x20, #16]
    bca8:	f9000882 	str	x2, [x4, #16]
    bcac:	b4000062 	cbz	x2, bcb8 <mm_memalign+0x18c>
    bcb0:	f9400e84 	ldr	x4, [x20, #24]
    bcb4:	f9000c44 	str	x4, [x2, #24]
    bcb8:	f9400682 	ldr	x2, [x20, #8]
    bcbc:	927ef442 	and	x2, x2, #0xfffffffffffffffc
    bcc0:	8b020000 	add	x0, x0, x2
    bcc4:	cb030039 	sub	x25, x1, x3
    bcc8:	f9000680 	str	x0, [x20, #8]
    bccc:	b2400722 	orr	x2, x25, #0x3
    bcd0:	a9000860 	stp	x0, x2, [x3]
    bcd4:	f9400420 	ldr	x0, [x1, #8]
    bcd8:	927ef800 	and	x0, x0, #0xfffffffffffffffd
    bcdc:	f9000420 	str	x0, [x1, #8]
    bce0:	f9400680 	ldr	x0, [x20, #8]
    bce4:	927ef404 	and	x4, x0, #0xfffffffffffffffc
    bce8:	f1007c9f 	cmp	x4, #0x1f
    bcec:	540000e8 	b.hi	bd08 <mm_memalign+0x1dc>  // b.pmore
    bcf0:	90000002 	adrp	x2, ebb8 <_srodata>	bcf0: R_AARCH64_ADR_PREL_PG_HI21	.rodata+0x6478
    bcf4:	90000000 	adrp	x0, ebb8 <_srodata>	bcf4: R_AARCH64_ADR_PREL_PG_HI21	.rodata+0xaa8e
    bcf8:	91000042 	add	x2, x2, #0x0	bcf8: R_AARCH64_ADD_ABS_LO12_NC	.rodata+0x6478
    bcfc:	91000000 	add	x0, x0, #0x0	bcfc: R_AARCH64_ADD_ABS_LO12_NC	.rodata+0xaa8e
    bd00:	528028c1 	mov	w1, #0x146                 	// #326
    bd04:	94000000 	bl	2444 <__assert>	bd04: R_AARCH64_CALL26	__assert
    bd08:	360000e0 	tbz	w0, #0, bd24 <mm_memalign+0x1f8>
    bd0c:	90000002 	adrp	x2, ebb8 <_srodata>	bd0c: R_AARCH64_ADR_PREL_PG_HI21	.rodata+0xaab8
    bd10:	90000000 	adrp	x0, ebb8 <_srodata>	bd10: R_AARCH64_ADR_PREL_PG_HI21	.rodata+0xaa8e
    bd14:	91000042 	add	x2, x2, #0x0	bd14: R_AARCH64_ADD_ABS_LO12_NC	.rodata+0xaab8
    bd18:	91000000 	add	x0, x0, #0x0	bd18: R_AARCH64_ADD_ABS_LO12_NC	.rodata+0xaa8e
    bd1c:	528028e1 	mov	w1, #0x147                 	// #327
    bd20:	94000000 	bl	2444 <__assert>	bd20: R_AARCH64_CALL26	__assert
    bd24:	d345fc80 	lsr	x0, x4, #5
    bd28:	528007e1 	mov	w1, #0x3f                  	// #63
    bd2c:	dac01000 	clz	x0, x0
    bd30:	4b000021 	sub	w1, w1, w0
    bd34:	b24057e0 	mov	x0, #0x3fffff              	// #4194303
    bd38:	eb00009f 	cmp	x4, x0
    bd3c:	52800220 	mov	w0, #0x11                  	// #17
    bd40:	1a809021 	csel	w1, w1, w0, ls	// ls = plast
    bd44:	d37b7c22 	ubfiz	x2, x1, #5, #32
    bd48:	937b7c21 	sbfiz	x1, x1, #5, #32
    bd4c:	8b0102e1 	add	x1, x23, x1
    bd50:	91012042 	add	x2, x2, #0x48
    bd54:	8b0202e2 	add	x2, x23, x2
    bd58:	f9402c20 	ldr	x0, [x1, #88]
    bd5c:	b40000c0 	cbz	x0, bd74 <mm_memalign+0x248>
    bd60:	f9400401 	ldr	x1, [x0, #8]
    bd64:	b4000081 	cbz	x1, bd74 <mm_memalign+0x248>
    bd68:	927ef421 	and	x1, x1, #0xfffffffffffffffc
    bd6c:	eb01009f 	cmp	x4, x1
    bd70:	54000428 	b.hi	bdf4 <mm_memalign+0x2c8>  // b.pmore
    bd74:	f9000854 	str	x20, [x2, #16]
    bd78:	a9010a80 	stp	x0, x2, [x20, #16]
    bd7c:	b5000420 	cbnz	x0, be00 <mm_memalign+0x2d4>
    bd80:	d1002339 	sub	x25, x25, #0x8
    bd84:	aa0303f4 	mov	x20, x3
    bd88:	91003ea2 	add	x2, x21, #0xf
    bd8c:	927df042 	and	x2, x2, #0xfffffffffffffff8
    bd90:	eb02033f 	cmp	x25, x2
    bd94:	54000089 	b.ls	bda4 <mm_memalign+0x278>  // b.plast
    bd98:	aa1403e1 	mov	x1, x20
    bd9c:	aa1703e0 	mov	x0, x23
    bda0:	94000000 	bl	c5b8 <mm_shrinkchunk>	bda0: R_AARCH64_CALL26	mm_shrinkchunk
    bda4:	a9428ae1 	ldp	x1, x2, [x23, #40]
    bda8:	f9400680 	ldr	x0, [x20, #8]
    bdac:	927ef400 	and	x0, x0, #0xfffffffffffffffc
    bdb0:	8b020000 	add	x0, x0, x2
    bdb4:	f9001ae0 	str	x0, [x23, #48]
    bdb8:	eb01001f 	cmp	x0, x1
    bdbc:	54000049 	b.ls	bdc4 <mm_memalign+0x298>  // b.plast
    bdc0:	f90016e0 	str	x0, [x23, #40]
    bdc4:	aa1703e0 	mov	x0, x23
    bdc8:	94000000 	bl	c53c <mm_unlock>	bdc8: R_AARCH64_CALL26	mm_unlock
    bdcc:	9ad80a61 	udiv	x1, x19, x24
    bdd0:	aa1303e0 	mov	x0, x19
    bdd4:	9b18cc21 	msub	x1, x1, x24, x19
    bdd8:	b4ffeba1 	cbz	x1, bb4c <mm_memalign+0x20>
    bddc:	90000002 	adrp	x2, ebb8 <_srodata>	bddc: R_AARCH64_ADR_PREL_PG_HI21	.rodata+0xaad4
    bde0:	90000000 	adrp	x0, ebb8 <_srodata>	bde0: R_AARCH64_ADR_PREL_PG_HI21	.rodata+0x6448
    bde4:	91000042 	add	x2, x2, #0x0	bde4: R_AARCH64_ADD_ABS_LO12_NC	.rodata+0xaad4
    bde8:	91000000 	add	x0, x0, #0x0	bde8: R_AARCH64_ADD_ABS_LO12_NC	.rodata+0x6448
    bdec:	52802441 	mov	w1, #0x122                 	// #290
    bdf0:	94000000 	bl	2444 <__assert>	bdf0: R_AARCH64_CALL26	__assert
    bdf4:	aa0003e2 	mov	x2, x0
    bdf8:	f9400800 	ldr	x0, [x0, #16]
    bdfc:	17ffffd8 	b	bd5c <mm_memalign+0x230>
    be00:	f9000c14 	str	x20, [x0, #24]
    be04:	17ffffdf 	b	bd80 <mm_memalign+0x254>

000000000000be08 <mm_realloc>:
mm_realloc():
    be08:	a9bc4ffe 	stp	x30, x19, [sp, #-64]!
    be0c:	a90157f4 	stp	x20, x21, [sp, #16]
    be10:	aa0203f4 	mov	x20, x2
    be14:	a9025ff6 	stp	x22, x23, [sp, #32]
    be18:	f9001bf8 	str	x24, [sp, #48]
    be1c:	b50000e1 	cbnz	x1, be38 <mm_realloc+0x30>
    be20:	f9401bf8 	ldr	x24, [sp, #48]
    be24:	aa0203e1 	mov	x1, x2
    be28:	a94157f4 	ldp	x20, x21, [sp, #16]
    be2c:	a9425ff6 	ldp	x22, x23, [sp, #32]
    be30:	a8c44ffe 	ldp	x30, x19, [sp], #64
    be34:	14000000 	b	c7d0 <mm_malloc>	be34: R_AARCH64_JUMP26	mm_malloc
    be38:	aa0003f3 	mov	x19, x0
    be3c:	aa0103f5 	mov	x21, x1
    be40:	94000000 	bl	c294 <mm_heapmember>	be40: R_AARCH64_CALL26	mm_heapmember
    be44:	370000e0 	tbnz	w0, #0, be60 <mm_realloc+0x58>
    be48:	90000002 	adrp	x2, ebb8 <_srodata>	be48: R_AARCH64_ADR_PREL_PG_HI21	.rodata+0xaaf2
    be4c:	91000042 	add	x2, x2, #0x0	be4c: R_AARCH64_ADD_ABS_LO12_NC	.rodata+0xaaf2
    be50:	52800ae1 	mov	w1, #0x57                  	// #87
    be54:	90000000 	adrp	x0, ebb8 <_srodata>	be54: R_AARCH64_ADR_PREL_PG_HI21	.rodata+0xab0e
    be58:	91000000 	add	x0, x0, #0x0	be58: R_AARCH64_ADD_ABS_LO12_NC	.rodata+0xab0e
    be5c:	94000000 	bl	2444 <__assert>	be5c: R_AARCH64_CALL26	__assert
    be60:	f100629f 	cmp	x20, #0x18
    be64:	d2800300 	mov	x0, #0x18                  	// #24
    be68:	9a802294 	csel	x20, x20, x0, cs	// cs = hs, nlast
    be6c:	91003e83 	add	x3, x20, #0xf
    be70:	927df078 	and	x24, x3, #0xfffffffffffffff8
    be74:	eb14031f 	cmp	x24, x20
    be78:	540000a2 	b.cs	be8c <mm_realloc+0x84>  // b.hs, b.nlast
    be7c:	90000002 	adrp	x2, ebb8 <_srodata>	be7c: R_AARCH64_ADR_PREL_PG_HI21	.rodata+0xab23
    be80:	52801001 	mov	w1, #0x80                  	// #128
    be84:	91000042 	add	x2, x2, #0x0	be84: R_AARCH64_ADD_ABS_LO12_NC	.rodata+0xab23
    be88:	17fffff3 	b	be54 <mm_realloc+0x4c>
    be8c:	d10042b6 	sub	x22, x21, #0x10
    be90:	aa1303e0 	mov	x0, x19
    be94:	94000000 	bl	c514 <mm_lock>	be94: R_AARCH64_CALL26	mm_lock
    be98:	36f800a0 	tbz	w0, #31, beac <mm_realloc+0xa4>
    be9c:	90000002 	adrp	x2, ebb8 <_srodata>	be9c: R_AARCH64_ADR_PREL_PG_HI21	.rodata+0xab29
    bea0:	52801161 	mov	w1, #0x8b                  	// #139
    bea4:	91000042 	add	x2, x2, #0x0	bea4: R_AARCH64_ADD_ABS_LO12_NC	.rodata+0xab29
    bea8:	17ffffeb 	b	be54 <mm_realloc+0x4c>
    beac:	f85f82a1 	ldur	x1, [x21, #-8]
    beb0:	aa2103e0 	mvn	x0, x1
    beb4:	92400007 	and	x7, x0, #0x1
    beb8:	360000a0 	tbz	w0, #0, becc <mm_realloc+0xc4>
    bebc:	90000002 	adrp	x2, ebb8 <_srodata>	bebc: R_AARCH64_ADR_PREL_PG_HI21	.rodata+0xab37
    bec0:	52801181 	mov	w1, #0x8c                  	// #140
    bec4:	91000042 	add	x2, x2, #0x0	bec4: R_AARCH64_ADD_ABS_LO12_NC	.rodata+0xab37
    bec8:	17ffffe3 	b	be54 <mm_realloc+0x4c>
    becc:	927ef437 	and	x23, x1, #0xfffffffffffffffc
    bed0:	eb17031f 	cmp	x24, x23
    bed4:	54000268 	b.hi	bf20 <mm_realloc+0x118>  // b.pmore
    bed8:	54000122 	b.cs	befc <mm_realloc+0xf4>  // b.hs, b.nlast
    bedc:	f9401a60 	ldr	x0, [x19, #48]
    bee0:	aa1803e2 	mov	x2, x24
    bee4:	aa1603e1 	mov	x1, x22
    bee8:	8b000300 	add	x0, x24, x0
    beec:	cb170000 	sub	x0, x0, x23
    bef0:	f9001a60 	str	x0, [x19, #48]
    bef4:	aa1303e0 	mov	x0, x19
    bef8:	94000000 	bl	c5b8 <mm_shrinkchunk>	bef8: R_AARCH64_CALL26	mm_shrinkchunk
    befc:	aa1503f4 	mov	x20, x21
    bf00:	aa1303e0 	mov	x0, x19
    bf04:	94000000 	bl	c53c <mm_unlock>	bf04: R_AARCH64_CALL26	mm_unlock
    bf08:	f9401bf8 	ldr	x24, [sp, #48]
    bf0c:	aa1403e0 	mov	x0, x20
    bf10:	a94157f4 	ldp	x20, x21, [sp, #16]
    bf14:	a9425ff6 	ldp	x22, x23, [sp, #32]
    bf18:	a8c44ffe 	ldp	x30, x19, [sp], #64
    bf1c:	d65f03c0 	ret
    bf20:	8b1702c5 	add	x5, x22, x23
    bf24:	f94004a0 	ldr	x0, [x5, #8]
    bf28:	370000e0 	tbnz	w0, #0, bf44 <mm_realloc+0x13c>
    bf2c:	927ef404 	and	x4, x0, #0xfffffffffffffffc
    bf30:	360800c0 	tbz	w0, #1, bf48 <mm_realloc+0x140>
    bf34:	90000002 	adrp	x2, ebb8 <_srodata>	bf34: R_AARCH64_ADR_PREL_PG_HI21	.rodata+0xab56
    bf38:	528015e1 	mov	w1, #0xaf                  	// #175
    bf3c:	91000042 	add	x2, x2, #0x0	bf3c: R_AARCH64_ADD_ABS_LO12_NC	.rodata+0xab56
    bf40:	17ffffc5 	b	be54 <mm_realloc+0x4c>
    bf44:	d2800004 	mov	x4, #0x0                   	// #0
    bf48:	927f0020 	and	x0, x1, #0x2
    bf4c:	36080141 	tbz	w1, #1, bf74 <mm_realloc+0x16c>
    bf50:	f85f02a1 	ldur	x1, [x21, #-16]
    bf54:	cb0102c1 	sub	x1, x22, x1
    bf58:	f9400422 	ldr	x2, [x1, #8]
    bf5c:	927ef440 	and	x0, x2, #0xfffffffffffffffc
    bf60:	360000c2 	tbz	w2, #0, bf78 <mm_realloc+0x170>
    bf64:	90000002 	adrp	x2, ebb8 <_srodata>	bf64: R_AARCH64_ADR_PREL_PG_HI21	.rodata+0xab72
    bf68:	528016e1 	mov	w1, #0xb7                  	// #183
    bf6c:	91000042 	add	x2, x2, #0x0	bf6c: R_AARCH64_ADD_ABS_LO12_NC	.rodata+0xab72
    bf70:	17ffffb9 	b	be54 <mm_realloc+0x4c>
    bf74:	d2800001 	mov	x1, #0x0                   	// #0
    bf78:	8b170082 	add	x2, x4, x23
    bf7c:	8b000042 	add	x2, x2, x0
    bf80:	eb18005f 	cmp	x2, x24
    bf84:	540016c3 	b.cc	c25c <mm_realloc+0x454>  // b.lo, b.ul, b.last
    bf88:	cb170303 	sub	x3, x24, x23
    bf8c:	eb04001f 	cmp	x0, x4
    bf90:	54000102 	b.cs	bfb0 <mm_realloc+0x1a8>  // b.hs, b.nlast
    bf94:	eb03001f 	cmp	x0, x3
    bf98:	54000222 	b.cs	bfdc <mm_realloc+0x1d4>  // b.hs, b.nlast
    bf9c:	cb000067 	sub	x7, x3, x0
    bfa0:	b5000220 	cbnz	x0, bfe4 <mm_realloc+0x1dc>
    bfa4:	aa1703e6 	mov	x6, x23
    bfa8:	aa1503f4 	mov	x20, x21
    bfac:	14000051 	b	c0f0 <mm_realloc+0x2e8>
    bfb0:	eb03009f 	cmp	x4, x3
    bfb4:	54000c02 	b.cs	c134 <mm_realloc+0x32c>  // b.hs, b.nlast
    bfb8:	cb040066 	sub	x6, x3, x4
    bfbc:	aa0403e7 	mov	x7, x4
    bfc0:	b4000061 	cbz	x1, bfcc <mm_realloc+0x1c4>
    bfc4:	f9400c28 	ldr	x8, [x1, #24]
    bfc8:	b5000128 	cbnz	x8, bfec <mm_realloc+0x1e4>
    bfcc:	90000002 	adrp	x2, ebb8 <_srodata>	bfcc: R_AARCH64_ADR_PREL_PG_HI21	.rodata+0xab8e
    bfd0:	52802061 	mov	w1, #0x103                 	// #259
    bfd4:	91000042 	add	x2, x2, #0x0	bfd4: R_AARCH64_ADD_ABS_LO12_NC	.rodata+0xab8e
    bfd8:	17ffff9f 	b	be54 <mm_realloc+0x4c>
    bfdc:	aa0303e6 	mov	x6, x3
    bfe0:	17fffff8 	b	bfc0 <mm_realloc+0x1b8>
    bfe4:	aa0003e6 	mov	x6, x0
    bfe8:	17fffff6 	b	bfc0 <mm_realloc+0x1b8>
    bfec:	f9400822 	ldr	x2, [x1, #16]
    bff0:	f9000902 	str	x2, [x8, #16]
    bff4:	b4000062 	cbz	x2, c000 <mm_realloc+0x1f8>
    bff8:	f9400c28 	ldr	x8, [x1, #24]
    bffc:	f9000c48 	str	x8, [x2, #24]
    c000:	910080c2 	add	x2, x6, #0x20
    c004:	eb00005f 	cmp	x2, x0
    c008:	540000c9 	b.ls	c020 <mm_realloc+0x218>  // b.plast
    c00c:	f9401a62 	ldr	x2, [x19, #48]
    c010:	8b020002 	add	x2, x0, x2
    c014:	cb060042 	sub	x2, x2, x6
    c018:	aa0003e6 	mov	x6, x0
    c01c:	f9001a62 	str	x2, [x19, #48]
    c020:	cb0602d6 	sub	x22, x22, x6
    c024:	eb06001f 	cmp	x0, x6
    c028:	54000789 	b.ls	c118 <mm_realloc+0x310>  // b.plast
    c02c:	f9400422 	ldr	x2, [x1, #8]
    c030:	cb060000 	sub	x0, x0, x6
    c034:	8b1700c6 	add	x6, x6, x23
    c038:	92400442 	and	x2, x2, #0x3
    c03c:	aa000042 	orr	x2, x2, x0
    c040:	f9000422 	str	x2, [x1, #8]
    c044:	b24004c2 	orr	x2, x6, #0x3
    c048:	a9000ac0 	stp	x0, x2, [x22]
    c04c:	f9400420 	ldr	x0, [x1, #8]
    c050:	927ef409 	and	x9, x0, #0xfffffffffffffffc
    c054:	f1007d3f 	cmp	x9, #0x1f
    c058:	540000e8 	b.hi	c074 <mm_realloc+0x26c>  // b.pmore
    c05c:	90000002 	adrp	x2, ebb8 <_srodata>	c05c: R_AARCH64_ADR_PREL_PG_HI21	.rodata+0xaba2
    c060:	91000042 	add	x2, x2, #0x0	c060: R_AARCH64_ADD_ABS_LO12_NC	.rodata+0xaba2
    c064:	528028c1 	mov	w1, #0x146                 	// #326
    c068:	90000000 	adrp	x0, ebb8 <_srodata>	c068: R_AARCH64_ADR_PREL_PG_HI21	.rodata+0xf1b8
    c06c:	91000000 	add	x0, x0, #0x0	c06c: R_AARCH64_ADD_ABS_LO12_NC	.rodata+0xf1b8
    c070:	17ffff7b 	b	be5c <mm_realloc+0x54>
    c074:	360000a0 	tbz	w0, #0, c088 <mm_realloc+0x280>
    c078:	90000002 	adrp	x2, ebb8 <_srodata>	c078: R_AARCH64_ADR_PREL_PG_HI21	.rodata+0xf1e2
    c07c:	528028e1 	mov	w1, #0x147                 	// #327
    c080:	91000042 	add	x2, x2, #0x0	c080: R_AARCH64_ADD_ABS_LO12_NC	.rodata+0xf1e2
    c084:	17fffff9 	b	c068 <mm_realloc+0x260>
    c088:	d345fd22 	lsr	x2, x9, #5
    c08c:	528007e0 	mov	w0, #0x3f                  	// #63
    c090:	dac01042 	clz	x2, x2
    c094:	4b020000 	sub	w0, w0, w2
    c098:	b24057e2 	mov	x2, #0x3fffff              	// #4194303
    c09c:	eb02013f 	cmp	x9, x2
    c0a0:	52800222 	mov	w2, #0x11                  	// #17
    c0a4:	1a829000 	csel	w0, w0, w2, ls	// ls = plast
    c0a8:	d37b7c02 	ubfiz	x2, x0, #5, #32
    c0ac:	937b7c00 	sbfiz	x0, x0, #5, #32
    c0b0:	8b000260 	add	x0, x19, x0
    c0b4:	91012042 	add	x2, x2, #0x48
    c0b8:	8b020262 	add	x2, x19, x2
    c0bc:	f9402c00 	ldr	x0, [x0, #88]
    c0c0:	b40000c0 	cbz	x0, c0d8 <mm_realloc+0x2d0>
    c0c4:	f9400408 	ldr	x8, [x0, #8]
    c0c8:	b4000088 	cbz	x8, c0d8 <mm_realloc+0x2d0>
    c0cc:	927ef508 	and	x8, x8, #0xfffffffffffffffc
    c0d0:	eb08013f 	cmp	x9, x8
    c0d4:	540001c8 	b.hi	c10c <mm_realloc+0x304>  // b.pmore
    c0d8:	f9000841 	str	x1, [x2, #16]
    c0dc:	a9010820 	stp	x0, x2, [x1, #16]
    c0e0:	b4000040 	cbz	x0, c0e8 <mm_realloc+0x2e0>
    c0e4:	f9000c01 	str	x1, [x0, #24]
    c0e8:	910042d4 	add	x20, x22, #0x10
    c0ec:	b40008c7 	cbz	x7, c204 <mm_realloc+0x3fc>
    c0f0:	f9400ca2 	ldr	x2, [x5, #24]
    c0f4:	8b0400a1 	add	x1, x5, x4
    c0f8:	b5000222 	cbnz	x2, c13c <mm_realloc+0x334>
    c0fc:	90000002 	adrp	x2, ebb8 <_srodata>	c0fc: R_AARCH64_ADR_PREL_PG_HI21	.rodata+0xf1fe
    c100:	528029a1 	mov	w1, #0x14d                 	// #333
    c104:	91000042 	add	x2, x2, #0x0	c104: R_AARCH64_ADD_ABS_LO12_NC	.rodata+0xf1fe
    c108:	17ffff53 	b	be54 <mm_realloc+0x4c>
    c10c:	aa0003e2 	mov	x2, x0
    c110:	f9400800 	ldr	x0, [x0, #16]
    c114:	17ffffeb 	b	c0c0 <mm_realloc+0x2b8>
    c118:	8b170006 	add	x6, x0, x23
    c11c:	f94006c0 	ldr	x0, [x22, #8]
    c120:	92400400 	and	x0, x0, #0x3
    c124:	aa060000 	orr	x0, x0, x6
    c128:	b2400000 	orr	x0, x0, #0x1
    c12c:	f90006c0 	str	x0, [x22, #8]
    c130:	17ffffee 	b	c0e8 <mm_realloc+0x2e0>
    c134:	aa0303e7 	mov	x7, x3
    c138:	17ffff9b 	b	bfa4 <mm_realloc+0x19c>
    c13c:	f94008a0 	ldr	x0, [x5, #16]
    c140:	f9000840 	str	x0, [x2, #16]
    c144:	b4000060 	cbz	x0, c150 <mm_realloc+0x348>
    c148:	f9400ca2 	ldr	x2, [x5, #24]
    c14c:	f9000c02 	str	x2, [x0, #24]
    c150:	910080e0 	add	x0, x7, #0x20
    c154:	eb04001f 	cmp	x0, x4
    c158:	540000c9 	b.ls	c170 <mm_realloc+0x368>  // b.plast
    c15c:	f9401a60 	ldr	x0, [x19, #48]
    c160:	8b000080 	add	x0, x4, x0
    c164:	cb070000 	sub	x0, x0, x7
    c168:	aa0403e7 	mov	x7, x4
    c16c:	f9001a60 	str	x0, [x19, #48]
    c170:	f94006c0 	ldr	x0, [x22, #8]
    c174:	8b0700c6 	add	x6, x6, x7
    c178:	92400400 	and	x0, x0, #0x3
    c17c:	aa060000 	orr	x0, x0, x6
    c180:	f90006c0 	str	x0, [x22, #8]
    c184:	eb07009f 	cmp	x4, x7
    c188:	54000629 	b.ls	c24c <mm_realloc+0x444>  // b.plast
    c18c:	8b0602c5 	add	x5, x22, x6
    c190:	cb070084 	sub	x4, x4, x7
    c194:	f90004a4 	str	x4, [x5, #8]
    c198:	f9000024 	str	x4, [x1]
    c19c:	f1007c9f 	cmp	x4, #0x1f
    c1a0:	54fff5e9 	b.ls	c05c <mm_realloc+0x254>  // b.plast
    c1a4:	d345fc80 	lsr	x0, x4, #5
    c1a8:	528007e6 	mov	w6, #0x3f                  	// #63
    c1ac:	dac01000 	clz	x0, x0
    c1b0:	4b0000c6 	sub	w6, w6, w0
    c1b4:	b24057e0 	mov	x0, #0x3fffff              	// #4194303
    c1b8:	eb00009f 	cmp	x4, x0
    c1bc:	52800220 	mov	w0, #0x11                  	// #17
    c1c0:	1a8090c6 	csel	w6, w6, w0, ls	// ls = plast
    c1c4:	d37b7cc1 	ubfiz	x1, x6, #5, #32
    c1c8:	937b7cc6 	sbfiz	x6, x6, #5, #32
    c1cc:	8b060266 	add	x6, x19, x6
    c1d0:	91012021 	add	x1, x1, #0x48
    c1d4:	8b010261 	add	x1, x19, x1
    c1d8:	f9402cc0 	ldr	x0, [x6, #88]
    c1dc:	b40000c0 	cbz	x0, c1f4 <mm_realloc+0x3ec>
    c1e0:	f9400402 	ldr	x2, [x0, #8]
    c1e4:	b4000082 	cbz	x2, c1f4 <mm_realloc+0x3ec>
    c1e8:	927ef442 	and	x2, x2, #0xfffffffffffffffc
    c1ec:	eb02009f 	cmp	x4, x2
    c1f0:	54000288 	b.hi	c240 <mm_realloc+0x438>  // b.pmore
    c1f4:	f9000825 	str	x5, [x1, #16]
    c1f8:	a90104a0 	stp	x0, x1, [x5, #16]
    c1fc:	b4000040 	cbz	x0, c204 <mm_realloc+0x3fc>
    c200:	f9000c05 	str	x5, [x0, #24]
    c204:	a9428660 	ldp	x0, x1, [x19, #40]
    c208:	8b010063 	add	x3, x3, x1
    c20c:	f9001a63 	str	x3, [x19, #48]
    c210:	eb00007f 	cmp	x3, x0
    c214:	54000049 	b.ls	c21c <mm_realloc+0x414>  // b.plast
    c218:	f9001663 	str	x3, [x19, #40]
    c21c:	aa1303e0 	mov	x0, x19
    c220:	94000000 	bl	c53c <mm_unlock>	c220: R_AARCH64_CALL26	mm_unlock
    c224:	eb15029f 	cmp	x20, x21
    c228:	54ffe700 	b.eq	bf08 <mm_realloc+0x100>  // b.none
    c22c:	d10022e2 	sub	x2, x23, #0x8
    c230:	aa1503e1 	mov	x1, x21
    c234:	aa1403e0 	mov	x0, x20
    c238:	94000000 	bl	0 <memcpy>	c238: R_AARCH64_CALL26	memcpy
    c23c:	17ffff33 	b	bf08 <mm_realloc+0x100>
    c240:	aa0003e1 	mov	x1, x0
    c244:	f9400800 	ldr	x0, [x0, #16]
    c248:	17ffffe5 	b	c1dc <mm_realloc+0x3d4>
    c24c:	f9400420 	ldr	x0, [x1, #8]
    c250:	927ef800 	and	x0, x0, #0xfffffffffffffffd
    c254:	f9000420 	str	x0, [x1, #8]
    c258:	17ffffeb 	b	c204 <mm_realloc+0x3fc>
    c25c:	aa1303e0 	mov	x0, x19
    c260:	94000000 	bl	c53c <mm_unlock>	c260: R_AARCH64_CALL26	mm_unlock
    c264:	aa1403e1 	mov	x1, x20
    c268:	aa1303e0 	mov	x0, x19
    c26c:	94000000 	bl	c7d0 <mm_malloc>	c26c: R_AARCH64_CALL26	mm_malloc
    c270:	aa0003f4 	mov	x20, x0
    c274:	b4ffe4a0 	cbz	x0, bf08 <mm_realloc+0x100>
    c278:	d10022e2 	sub	x2, x23, #0x8
    c27c:	aa1503e1 	mov	x1, x21
    c280:	94000000 	bl	0 <memcpy>	c280: R_AARCH64_CALL26	memcpy
    c284:	aa1503e1 	mov	x1, x21
    c288:	aa1303e0 	mov	x0, x19
    c28c:	94000000 	bl	badc <mm_free>	c28c: R_AARCH64_CALL26	mm_free
    c290:	17ffff1e 	b	bf08 <mm_realloc+0x100>

000000000000c294 <mm_heapmember>:
mm_heapmember():
    c294:	f9401c02 	ldr	x2, [x0, #56]
    c298:	eb01005f 	cmp	x2, x1
    c29c:	540000a2 	b.cs	c2b0 <mm_heapmember+0x1c>  // b.hs, b.nlast
    c2a0:	f9402000 	ldr	x0, [x0, #64]
    c2a4:	eb01001f 	cmp	x0, x1
    c2a8:	1a9f97e0 	cset	w0, hi	// hi = pmore
    c2ac:	d65f03c0 	ret
    c2b0:	52800000 	mov	w0, #0x0                   	// #0
    c2b4:	17fffffe 	b	c2ac <mm_heapmember+0x18>

000000000000c2b8 <umm_initialize>:
umm_initialize():
    c2b8:	f81f0ffe 	str	x30, [sp, #-16]!
    c2bc:	aa0103e2 	mov	x2, x1
    c2c0:	aa0003e1 	mov	x1, x0
    c2c4:	d2800000 	mov	x0, #0x0                   	// #0
    c2c8:	94000000 	bl	c468 <mm_initialize>	c2c8: R_AARCH64_CALL26	mm_initialize
    c2cc:	d2b80001 	mov	x1, #0xc0000000            	// #3221225472
    c2d0:	f9000420 	str	x0, [x1, #8]
    c2d4:	f84107fe 	ldr	x30, [sp], #16
    c2d8:	d65f03c0 	ret

000000000000c2dc <umm_try_initialize>:
umm_try_initialize():
    c2dc:	d2b80000 	mov	x0, #0xc0000000            	// #3221225472
    c2e0:	f9400400 	ldr	x0, [x0, #8]
    c2e4:	b50001c0 	cbnz	x0, c31c <umm_try_initialize+0x40>
    c2e8:	f81f0ffe 	str	x30, [sp, #-16]!
    c2ec:	52800021 	mov	w1, #0x1                   	// #1
    c2f0:	94000000 	bl	ea00 <pgalloc>	c2f0: R_AARCH64_CALL26	pgalloc
    c2f4:	b50000e0 	cbnz	x0, c310 <umm_try_initialize+0x34>
    c2f8:	90000002 	adrp	x2, ebb8 <_srodata>	c2f8: R_AARCH64_ADR_PREL_PG_HI21	.rodata+0xf20a
    c2fc:	90000000 	adrp	x0, ebb8 <_srodata>	c2fc: R_AARCH64_ADR_PREL_PG_HI21	.rodata+0xf219
    c300:	91000042 	add	x2, x2, #0x0	c300: R_AARCH64_ADD_ABS_LO12_NC	.rodata+0xf20a
    c304:	91000000 	add	x0, x0, #0x0	c304: R_AARCH64_ADD_ABS_LO12_NC	.rodata+0xf219
    c308:	528010e1 	mov	w1, #0x87                  	// #135
    c30c:	94000000 	bl	2444 <__assert>	c30c: R_AARCH64_CALL26	__assert
    c310:	f84107fe 	ldr	x30, [sp], #16
    c314:	d2820001 	mov	x1, #0x1000                	// #4096
    c318:	14000000 	b	c2b8 <umm_initialize>	c318: R_AARCH64_JUMP26	umm_initialize
    c31c:	d65f03c0 	ret

000000000000c320 <mm_addregion>:
mm_addregion():
    c320:	a9be4ffe 	stp	x30, x19, [sp, #-32]!
    c324:	aa0003f3 	mov	x19, x0
    c328:	a90157f4 	stp	x20, x21, [sp, #16]
    c32c:	aa0103f4 	mov	x20, x1
    c330:	aa0203f5 	mov	x21, x2
    c334:	94000000 	bl	c514 <mm_lock>	c334: R_AARCH64_CALL26	mm_lock
    c338:	36f800e0 	tbz	w0, #31, c354 <mm_addregion+0x34>
    c33c:	90000002 	adrp	x2, ebb8 <_srodata>	c33c: R_AARCH64_ADR_PREL_PG_HI21	.rodata+0xf233
    c340:	90000000 	adrp	x0, ebb8 <_srodata>	c340: R_AARCH64_ADR_PREL_PG_HI21	.rodata+0xf241
    c344:	91000042 	add	x2, x2, #0x0	c344: R_AARCH64_ADD_ABS_LO12_NC	.rodata+0xf233
    c348:	91000000 	add	x0, x0, #0x0	c348: R_AARCH64_ADD_ABS_LO12_NC	.rodata+0xf241
    c34c:	52800fc1 	mov	w1, #0x7e                  	// #126
    c350:	94000000 	bl	2444 <__assert>	c350: R_AARCH64_CALL26	__assert
    c354:	91009e80 	add	x0, x20, #0x27
    c358:	8b150294 	add	x20, x20, x21
    c35c:	f9401261 	ldr	x1, [x19, #32]
    c360:	927df000 	and	x0, x0, #0xfffffffffffffff8
    c364:	d1008003 	sub	x3, x0, #0x20
    c368:	927df294 	and	x20, x20, #0xfffffffffffffff8
    c36c:	cb030282 	sub	x2, x20, x3
    c370:	f9001e63 	str	x3, [x19, #56]
    c374:	8b020021 	add	x1, x1, x2
    c378:	f9001261 	str	x1, [x19, #32]
    c37c:	d1004000 	sub	x0, x0, #0x10
    c380:	d2800221 	mov	x1, #0x11                  	// #17
    c384:	f81f8001 	stur	x1, [x0, #-8]
    c388:	d1004294 	sub	x20, x20, #0x10
    c38c:	d1008042 	sub	x2, x2, #0x20
    c390:	f9000402 	str	x2, [x0, #8]
    c394:	d2800262 	mov	x2, #0x13                  	// #19
    c398:	f9002274 	str	x20, [x19, #64]
    c39c:	f9000682 	str	x2, [x20, #8]
    c3a0:	f9402263 	ldr	x3, [x19, #64]
    c3a4:	f9400402 	ldr	x2, [x0, #8]
    c3a8:	f9000062 	str	x2, [x3]
    c3ac:	927ef444 	and	x4, x2, #0xfffffffffffffffc
    c3b0:	f1007c9f 	cmp	x4, #0x1f
    c3b4:	540000e8 	b.hi	c3d0 <mm_addregion+0xb0>  // b.pmore
    c3b8:	90000002 	adrp	x2, ebb8 <_srodata>	c3b8: R_AARCH64_ADR_PREL_PG_HI21	.rodata+0xf259
    c3bc:	91000042 	add	x2, x2, #0x0	c3bc: R_AARCH64_ADD_ABS_LO12_NC	.rodata+0xf259
    c3c0:	528028c1 	mov	w1, #0x146                 	// #326
    c3c4:	90000000 	adrp	x0, ebb8 <_srodata>	c3c4: R_AARCH64_ADR_PREL_PG_HI21	.rodata+0x1386f
    c3c8:	91000000 	add	x0, x0, #0x0	c3c8: R_AARCH64_ADD_ABS_LO12_NC	.rodata+0x1386f
    c3cc:	17ffffe1 	b	c350 <mm_addregion+0x30>
    c3d0:	360000a2 	tbz	w2, #0, c3e4 <mm_addregion+0xc4>
    c3d4:	90000002 	adrp	x2, ebb8 <_srodata>	c3d4: R_AARCH64_ADR_PREL_PG_HI21	.rodata+0x13899
    c3d8:	528028e1 	mov	w1, #0x147                 	// #327
    c3dc:	91000042 	add	x2, x2, #0x0	c3dc: R_AARCH64_ADD_ABS_LO12_NC	.rodata+0x13899
    c3e0:	17fffff9 	b	c3c4 <mm_addregion+0xa4>
    c3e4:	d345fc83 	lsr	x3, x4, #5
    c3e8:	528007e2 	mov	w2, #0x3f                  	// #63
    c3ec:	dac01063 	clz	x3, x3
    c3f0:	4b030042 	sub	w2, w2, w3
    c3f4:	b24057e3 	mov	x3, #0x3fffff              	// #4194303
    c3f8:	eb03009f 	cmp	x4, x3
    c3fc:	1a828021 	csel	w1, w1, w2, hi	// hi = pmore
    c400:	d37b7c22 	ubfiz	x2, x1, #5, #32
    c404:	937b7c21 	sbfiz	x1, x1, #5, #32
    c408:	8b010261 	add	x1, x19, x1
    c40c:	91012042 	add	x2, x2, #0x48
    c410:	8b020262 	add	x2, x19, x2
    c414:	f9402c21 	ldr	x1, [x1, #88]
    c418:	b40000c1 	cbz	x1, c430 <mm_addregion+0x110>
    c41c:	f9400423 	ldr	x3, [x1, #8]
    c420:	b4000083 	cbz	x3, c430 <mm_addregion+0x110>
    c424:	927ef463 	and	x3, x3, #0xfffffffffffffffc
    c428:	eb03009f 	cmp	x4, x3
    c42c:	54000188 	b.hi	c45c <mm_addregion+0x13c>  // b.pmore
    c430:	f9000840 	str	x0, [x2, #16]
    c434:	a9010801 	stp	x1, x2, [x0, #16]
    c438:	b4000041 	cbz	x1, c440 <mm_addregion+0x120>
    c43c:	f9000c20 	str	x0, [x1, #24]
    c440:	f9401a60 	ldr	x0, [x19, #48]
    c444:	91008000 	add	x0, x0, #0x20
    c448:	f9001a60 	str	x0, [x19, #48]
    c44c:	aa1303e0 	mov	x0, x19
    c450:	a94157f4 	ldp	x20, x21, [sp, #16]
    c454:	a8c24ffe 	ldp	x30, x19, [sp], #32
    c458:	14000000 	b	c53c <mm_unlock>	c458: R_AARCH64_JUMP26	mm_unlock
    c45c:	aa0103e2 	mov	x2, x1
    c460:	f9400821 	ldr	x1, [x1, #16]
    c464:	17ffffed 	b	c418 <mm_addregion+0xf8>

000000000000c468 <mm_initialize>:
mm_initialize():
    c468:	a9be4ffe 	stp	x30, x19, [sp, #-32]!
    c46c:	91001c33 	add	x19, x1, #0x7
    c470:	927df273 	and	x19, x19, #0xfffffffffffffff8
    c474:	8b020021 	add	x1, x1, x2
    c478:	a90157f4 	stp	x20, x21, [sp, #16]
    c47c:	cb130021 	sub	x1, x1, x19
    c480:	f10aa03f 	cmp	x1, #0x2a8
    c484:	540000e8 	b.hi	c4a0 <mm_initialize+0x38>  // b.pmore
    c488:	90000002 	adrp	x2, ebb8 <_srodata>	c488: R_AARCH64_ADR_PREL_PG_HI21	.rodata+0x138b5
    c48c:	90000000 	adrp	x0, ebb8 <_srodata>	c48c: R_AARCH64_ADR_PREL_PG_HI21	.rodata+0xf241
    c490:	91000042 	add	x2, x2, #0x0	c490: R_AARCH64_ADD_ABS_LO12_NC	.rodata+0x138b5
    c494:	91000000 	add	x0, x0, #0x0	c494: R_AARCH64_ADD_ABS_LO12_NC	.rodata+0xf241
    c498:	52801f21 	mov	w1, #0xf9                  	// #249
    c49c:	94000000 	bl	2444 <__assert>	c49c: R_AARCH64_CALL26	__assert
    c4a0:	d2805502 	mov	x2, #0x2a8                 	// #680
    c4a4:	d10aa034 	sub	x20, x1, #0x2a8
    c4a8:	aa1303e0 	mov	x0, x19
    c4ac:	52800001 	mov	w1, #0x0                   	// #0
    c4b0:	94000000 	bl	3c0 <memset>	c4b0: R_AARCH64_CALL26	memset
    c4b4:	910aa275 	add	x21, x19, #0x2a8
    c4b8:	9101a260 	add	x0, x19, #0x68
    c4bc:	91016261 	add	x1, x19, #0x58
    c4c0:	910a2262 	add	x2, x19, #0x288
    c4c4:	d1008003 	sub	x3, x0, #0x20
    c4c8:	f9000020 	str	x0, [x1]
    c4cc:	91008000 	add	x0, x0, #0x20
    c4d0:	f9001423 	str	x3, [x1, #40]
    c4d4:	91008021 	add	x1, x1, #0x20
    c4d8:	eb02001f 	cmp	x0, x2
    c4dc:	54ffff41 	b.ne	c4c4 <mm_initialize+0x5c>  // b.any
    c4e0:	aa1303e0 	mov	x0, x19
    c4e4:	94000000 	bl	2480 <nxmutex_init>	c4e4: R_AARCH64_CALL26	nxmutex_init
    c4e8:	d2805500 	mov	x0, #0x2a8                 	// #680
    c4ec:	f9001a60 	str	x0, [x19, #48]
    c4f0:	aa1403e2 	mov	x2, x20
    c4f4:	aa1503e1 	mov	x1, x21
    c4f8:	aa1303e0 	mov	x0, x19
    c4fc:	94000000 	bl	c320 <mm_addregion>	c4fc: R_AARCH64_CALL26	mm_addregion
    c500:	aa1303e0 	mov	x0, x19
    c504:	a94157f4 	ldp	x20, x21, [sp, #16]
    c508:	a8c24ffe 	ldp	x30, x19, [sp], #32
    c50c:	d65f03c0 	ret

000000000000c510 <mm_uninitialize>:
mm_uninitialize():
    c510:	14000000 	b	24c4 <nxmutex_destroy>	c510: R_AARCH64_JUMP26	nxmutex_destroy

000000000000c514 <mm_lock>:
mm_lock():
    c514:	a9bf4ffe 	stp	x30, x19, [sp, #-16]!
    c518:	aa0003f3 	mov	x19, x0
    c51c:	94000000 	bl	2ef4 <gettid>	c51c: R_AARCH64_CALL26	gettid
    c520:	37f80080 	tbnz	w0, #31, c530 <mm_lock+0x1c>
    c524:	aa1303e0 	mov	x0, x19
    c528:	a8c14ffe 	ldp	x30, x19, [sp], #16
    c52c:	14000000 	b	2534 <nxmutex_lock>	c52c: R_AARCH64_JUMP26	nxmutex_lock
    c530:	12800040 	mov	w0, #0xfffffffd            	// #-3
    c534:	a8c14ffe 	ldp	x30, x19, [sp], #16
    c538:	d65f03c0 	ret

000000000000c53c <mm_unlock>:
mm_unlock():
    c53c:	f81f0ffe 	str	x30, [sp, #-16]!
    c540:	94000000 	bl	26ac <nxmutex_unlock>	c540: R_AARCH64_CALL26	nxmutex_unlock
    c544:	36f800e0 	tbz	w0, #31, c560 <mm_unlock+0x24>
    c548:	90000002 	adrp	x2, ebb8 <_srodata>	c548: R_AARCH64_ADR_PREL_PG_HI21	.rodata+0x138d9
    c54c:	90000000 	adrp	x0, ebb8 <_srodata>	c54c: R_AARCH64_ADR_PREL_PG_HI21	.rodata+0x138f8
    c550:	91000042 	add	x2, x2, #0x0	c550: R_AARCH64_ADD_ABS_LO12_NC	.rodata+0x138d9
    c554:	91000000 	add	x0, x0, #0x0	c554: R_AARCH64_ADD_ABS_LO12_NC	.rodata+0x138f8
    c558:	52800ec1 	mov	w1, #0x76                  	// #118
    c55c:	94000000 	bl	2444 <__assert>	c55c: R_AARCH64_CALL26	__assert
    c560:	f84107fe 	ldr	x30, [sp], #16
    c564:	d65f03c0 	ret

000000000000c568 <mm_lock_irq>:
mm_lock_irq():
    c568:	d53b4220 	mrs	x0, daif
    c56c:	d50342df 	msr	daifset, #0x2
    c570:	d65f03c0 	ret

000000000000c574 <mm_unlock_irq>:
mm_unlock_irq():
    c574:	d51b4221 	msr	daif, x1
    c578:	d65f03c0 	ret

000000000000c57c <mm_malloc_size>:
mm_malloc_size():
    c57c:	b40001a1 	cbz	x1, c5b0 <mm_malloc_size+0x34>
    c580:	f85f8020 	ldur	x0, [x1, #-8]
    c584:	37000100 	tbnz	w0, #0, c5a4 <mm_malloc_size+0x28>
    c588:	f81f0ffe 	str	x30, [sp, #-16]!
    c58c:	90000002 	adrp	x2, ebb8 <_srodata>	c58c: R_AARCH64_ADR_PREL_PG_HI21	.rodata+0x1390a
    c590:	90000000 	adrp	x0, ebb8 <_srodata>	c590: R_AARCH64_ADR_PREL_PG_HI21	.rodata+0x13926
    c594:	91000042 	add	x2, x2, #0x0	c594: R_AARCH64_ADD_ABS_LO12_NC	.rodata+0x1390a
    c598:	91000000 	add	x0, x0, #0x0	c598: R_AARCH64_ADD_ABS_LO12_NC	.rodata+0x13926
    c59c:	52800861 	mov	w1, #0x43                  	// #67
    c5a0:	94000000 	bl	2444 <__assert>	c5a0: R_AARCH64_CALL26	__assert
    c5a4:	927ef400 	and	x0, x0, #0xfffffffffffffffc
    c5a8:	d1002000 	sub	x0, x0, #0x8
    c5ac:	d65f03c0 	ret
    c5b0:	d2800000 	mov	x0, #0x0                   	// #0
    c5b4:	d65f03c0 	ret

000000000000c5b8 <mm_shrinkchunk>:
mm_shrinkchunk():
    c5b8:	f81f0ffe 	str	x30, [sp, #-16]!
    c5bc:	f9400423 	ldr	x3, [x1, #8]
    c5c0:	f240085f 	tst	x2, #0x7
    c5c4:	540000e0 	b.eq	c5e0 <mm_shrinkchunk+0x28>  // b.none
    c5c8:	90000002 	adrp	x2, ebb8 <_srodata>	c5c8: R_AARCH64_ADR_PREL_PG_HI21	.rodata+0x1393f
    c5cc:	91000042 	add	x2, x2, #0x0	c5cc: R_AARCH64_ADD_ABS_LO12_NC	.rodata+0x1393f
    c5d0:	52800781 	mov	w1, #0x3c                  	// #60
    c5d4:	90000000 	adrp	x0, ebb8 <_srodata>	c5d4: R_AARCH64_ADR_PREL_PG_HI21	.rodata+0x13955
    c5d8:	91000000 	add	x0, x0, #0x0	c5d8: R_AARCH64_ADD_ABS_LO12_NC	.rodata+0x13955
    c5dc:	94000000 	bl	2444 <__assert>	c5dc: R_AARCH64_CALL26	__assert
    c5e0:	927ef463 	and	x3, x3, #0xfffffffffffffffc
    c5e4:	8b030024 	add	x4, x1, x3
    c5e8:	f9400485 	ldr	x5, [x4, #8]
    c5ec:	37000925 	tbnz	w5, #0, c710 <mm_shrinkchunk+0x158>
    c5f0:	927ef4a5 	and	x5, x5, #0xfffffffffffffffc
    c5f4:	8b050086 	add	x6, x4, x5
    c5f8:	f94004c6 	ldr	x6, [x6, #8]
    c5fc:	370800a6 	tbnz	w6, #1, c610 <mm_shrinkchunk+0x58>
    c600:	90000002 	adrp	x2, ebb8 <_srodata>	c600: R_AARCH64_ADR_PREL_PG_HI21	.rodata+0x1396e
    c604:	528009a1 	mov	w1, #0x4d                  	// #77
    c608:	91000042 	add	x2, x2, #0x0	c608: R_AARCH64_ADD_ABS_LO12_NC	.rodata+0x1396e
    c60c:	17fffff2 	b	c5d4 <mm_shrinkchunk+0x1c>
    c610:	f9400c87 	ldr	x7, [x4, #24]
    c614:	b50000a7 	cbnz	x7, c628 <mm_shrinkchunk+0x70>
    c618:	90000002 	adrp	x2, ebb8 <_srodata>	c618: R_AARCH64_ADR_PREL_PG_HI21	.rodata+0x1398f
    c61c:	52800a61 	mov	w1, #0x53                  	// #83
    c620:	91000042 	add	x2, x2, #0x0	c620: R_AARCH64_ADD_ABS_LO12_NC	.rodata+0x1398f
    c624:	17ffffec 	b	c5d4 <mm_shrinkchunk+0x1c>
    c628:	f9400886 	ldr	x6, [x4, #16]
    c62c:	f90008e6 	str	x6, [x7, #16]
    c630:	b4000066 	cbz	x6, c63c <mm_shrinkchunk+0x84>
    c634:	f9400c87 	ldr	x7, [x4, #24]
    c638:	f9000cc7 	str	x7, [x6, #24]
    c63c:	8b020026 	add	x6, x1, x2
    c640:	cb020063 	sub	x3, x3, x2
    c644:	8b050063 	add	x3, x3, x5
    c648:	f90004c3 	str	x3, [x6, #8]
    c64c:	f9400423 	ldr	x3, [x1, #8]
    c650:	92400463 	and	x3, x3, #0x3
    c654:	aa020062 	orr	x2, x3, x2
    c658:	f9000422 	str	x2, [x1, #8]
    c65c:	f94004c1 	ldr	x1, [x6, #8]
    c660:	f8256881 	str	x1, [x4, x5]
    c664:	927ef423 	and	x3, x1, #0xfffffffffffffffc
    c668:	f1007c7f 	cmp	x3, #0x1f
    c66c:	540000e8 	b.hi	c688 <mm_shrinkchunk+0xd0>  // b.pmore
    c670:	90000002 	adrp	x2, ebb8 <_srodata>	c670: R_AARCH64_ADR_PREL_PG_HI21	.rodata+0x1399b
    c674:	91000042 	add	x2, x2, #0x0	c674: R_AARCH64_ADD_ABS_LO12_NC	.rodata+0x1399b
    c678:	528028c1 	mov	w1, #0x146                 	// #326
    c67c:	90000000 	adrp	x0, ebb8 <_srodata>	c67c: R_AARCH64_ADR_PREL_PG_HI21	.rodata+0x17fb1
    c680:	91000000 	add	x0, x0, #0x0	c680: R_AARCH64_ADD_ABS_LO12_NC	.rodata+0x17fb1
    c684:	17ffffd6 	b	c5dc <mm_shrinkchunk+0x24>
    c688:	360000a1 	tbz	w1, #0, c69c <mm_shrinkchunk+0xe4>
    c68c:	90000002 	adrp	x2, ebb8 <_srodata>	c68c: R_AARCH64_ADR_PREL_PG_HI21	.rodata+0x17fdb
    c690:	528028e1 	mov	w1, #0x147                 	// #327
    c694:	91000042 	add	x2, x2, #0x0	c694: R_AARCH64_ADD_ABS_LO12_NC	.rodata+0x17fdb
    c698:	17fffff9 	b	c67c <mm_shrinkchunk+0xc4>
    c69c:	d345fc62 	lsr	x2, x3, #5
    c6a0:	528007e1 	mov	w1, #0x3f                  	// #63
    c6a4:	dac01042 	clz	x2, x2
    c6a8:	4b020021 	sub	w1, w1, w2
    c6ac:	b24057e2 	mov	x2, #0x3fffff              	// #4194303
    c6b0:	eb02007f 	cmp	x3, x2
    c6b4:	52800222 	mov	w2, #0x11                  	// #17
    c6b8:	1a829021 	csel	w1, w1, w2, ls	// ls = plast
    c6bc:	d37b7c22 	ubfiz	x2, x1, #5, #32
    c6c0:	937b7c21 	sbfiz	x1, x1, #5, #32
    c6c4:	91012042 	add	x2, x2, #0x48
    c6c8:	8b020002 	add	x2, x0, x2
    c6cc:	8b010000 	add	x0, x0, x1
    c6d0:	f9402c00 	ldr	x0, [x0, #88]
    c6d4:	b40000c0 	cbz	x0, c6ec <mm_shrinkchunk+0x134>
    c6d8:	f9400401 	ldr	x1, [x0, #8]
    c6dc:	b4000081 	cbz	x1, c6ec <mm_shrinkchunk+0x134>
    c6e0:	927ef421 	and	x1, x1, #0xfffffffffffffffc
    c6e4:	eb01007f 	cmp	x3, x1
    c6e8:	540000e8 	b.hi	c704 <mm_shrinkchunk+0x14c>  // b.pmore
    c6ec:	f9000846 	str	x6, [x2, #16]
    c6f0:	a90108c0 	stp	x0, x2, [x6, #16]
    c6f4:	b4000040 	cbz	x0, c6fc <mm_shrinkchunk+0x144>
    c6f8:	f9000c06 	str	x6, [x0, #24]
    c6fc:	f84107fe 	ldr	x30, [sp], #16
    c700:	d65f03c0 	ret
    c704:	aa0003e2 	mov	x2, x0
    c708:	f9400800 	ldr	x0, [x0, #16]
    c70c:	17fffff2 	b	c6d4 <mm_shrinkchunk+0x11c>
    c710:	91008045 	add	x5, x2, #0x20
    c714:	eb0300bf 	cmp	x5, x3
    c718:	54ffff28 	b.hi	c6fc <mm_shrinkchunk+0x144>  // b.pmore
    c71c:	8b020025 	add	x5, x1, x2
    c720:	cb020066 	sub	x6, x3, x2
    c724:	f90004a6 	str	x6, [x5, #8]
    c728:	f9400426 	ldr	x6, [x1, #8]
    c72c:	924004c6 	and	x6, x6, #0x3
    c730:	aa0200c2 	orr	x2, x6, x2
    c734:	f9000422 	str	x2, [x1, #8]
    c738:	f9400482 	ldr	x2, [x4, #8]
    c73c:	b27f0042 	orr	x2, x2, #0x2
    c740:	f9000482 	str	x2, [x4, #8]
    c744:	f94004a2 	ldr	x2, [x5, #8]
    c748:	f8236822 	str	x2, [x1, x3]
    c74c:	927ef443 	and	x3, x2, #0xfffffffffffffffc
    c750:	f1007c7f 	cmp	x3, #0x1f
    c754:	54fff8e9 	b.ls	c670 <mm_shrinkchunk+0xb8>  // b.plast
    c758:	3707f9a2 	tbnz	w2, #0, c68c <mm_shrinkchunk+0xd4>
    c75c:	d345fc62 	lsr	x2, x3, #5
    c760:	528007e1 	mov	w1, #0x3f                  	// #63
    c764:	dac01042 	clz	x2, x2
    c768:	4b020021 	sub	w1, w1, w2
    c76c:	b24057e2 	mov	x2, #0x3fffff              	// #4194303
    c770:	eb02007f 	cmp	x3, x2
    c774:	52800222 	mov	w2, #0x11                  	// #17
    c778:	1a829021 	csel	w1, w1, w2, ls	// ls = plast
    c77c:	d37b7c22 	ubfiz	x2, x1, #5, #32
    c780:	937b7c21 	sbfiz	x1, x1, #5, #32
    c784:	91012042 	add	x2, x2, #0x48
    c788:	8b020002 	add	x2, x0, x2
    c78c:	8b010000 	add	x0, x0, x1
    c790:	f9402c00 	ldr	x0, [x0, #88]
    c794:	b40000c0 	cbz	x0, c7ac <mm_shrinkchunk+0x1f4>
    c798:	f9400401 	ldr	x1, [x0, #8]
    c79c:	b4000081 	cbz	x1, c7ac <mm_shrinkchunk+0x1f4>
    c7a0:	927ef421 	and	x1, x1, #0xfffffffffffffffc
    c7a4:	eb01007f 	cmp	x3, x1
    c7a8:	540000c8 	b.hi	c7c0 <mm_shrinkchunk+0x208>  // b.pmore
    c7ac:	f9000845 	str	x5, [x2, #16]
    c7b0:	a90108a0 	stp	x0, x2, [x5, #16]
    c7b4:	b4fffa40 	cbz	x0, c6fc <mm_shrinkchunk+0x144>
    c7b8:	f9000c05 	str	x5, [x0, #24]
    c7bc:	17ffffd0 	b	c6fc <mm_shrinkchunk+0x144>
    c7c0:	aa0003e2 	mov	x2, x0
    c7c4:	f9400800 	ldr	x0, [x0, #16]
    c7c8:	17fffff3 	b	c794 <mm_shrinkchunk+0x1dc>

000000000000c7cc <mm_free_delaylist>:
mm_free_delaylist():
    c7cc:	d65f03c0 	ret

000000000000c7d0 <mm_malloc>:
mm_malloc():
    c7d0:	f100603f 	cmp	x1, #0x18
    c7d4:	a9be4ffe 	stp	x30, x19, [sp, #-32]!
    c7d8:	d2800302 	mov	x2, #0x18                  	// #24
    c7dc:	9a822021 	csel	x1, x1, x2, cs	// cs = hs, nlast
    c7e0:	a90157f4 	stp	x20, x21, [sp, #16]
    c7e4:	91003c35 	add	x21, x1, #0xf
    c7e8:	927df2b5 	and	x21, x21, #0xfffffffffffffff8
    c7ec:	eb0102bf 	cmp	x21, x1
    c7f0:	54001123 	b.cc	ca14 <mm_malloc+0x244>  // b.lo, b.ul, b.last
    c7f4:	aa0003f4 	mov	x20, x0
    c7f8:	94000000 	bl	c514 <mm_lock>	c7f8: R_AARCH64_CALL26	mm_lock
    c7fc:	36f800e0 	tbz	w0, #31, c818 <mm_malloc+0x48>
    c800:	90000002 	adrp	x2, ebb8 <_srodata>	c800: R_AARCH64_ADR_PREL_PG_HI21	.rodata+0x17ff7
    c804:	91000042 	add	x2, x2, #0x0	c804: R_AARCH64_ADD_ABS_LO12_NC	.rodata+0x17ff7
    c808:	52801ae1 	mov	w1, #0xd7                  	// #215
    c80c:	90000000 	adrp	x0, ebb8 <_srodata>	c80c: R_AARCH64_ADR_PREL_PG_HI21	.rodata+0x18005
    c810:	91000000 	add	x0, x0, #0x0	c810: R_AARCH64_ADD_ABS_LO12_NC	.rodata+0x18005
    c814:	94000000 	bl	2444 <__assert>	c814: R_AARCH64_CALL26	__assert
    c818:	d345fea1 	lsr	x1, x21, #5
    c81c:	528007e0 	mov	w0, #0x3f                  	// #63
    c820:	dac01021 	clz	x1, x1
    c824:	4b010000 	sub	w0, w0, w1
    c828:	b24057e1 	mov	x1, #0x3fffff              	// #4194303
    c82c:	eb0102bf 	cmp	x21, x1
    c830:	52800221 	mov	w1, #0x11                  	// #17
    c834:	1a819000 	csel	w0, w0, w1, ls	// ls = plast
    c838:	937b7c00 	sbfiz	x0, x0, #5, #32
    c83c:	8b000280 	add	x0, x20, x0
    c840:	f9402c13 	ldr	x19, [x0, #88]
    c844:	b5000153 	cbnz	x19, c86c <mm_malloc+0x9c>
    c848:	aa1403e0 	mov	x0, x20
    c84c:	94000000 	bl	c53c <mm_unlock>	c84c: R_AARCH64_CALL26	mm_unlock
    c850:	b4000e33 	cbz	x19, ca14 <mm_malloc+0x244>
    c854:	f2400a7f 	tst	x19, #0x7
    c858:	54000e00 	b.eq	ca18 <mm_malloc+0x248>  // b.none
    c85c:	90000002 	adrp	x2, ebb8 <_srodata>	c85c: R_AARCH64_ADR_PREL_PG_HI21	.rodata+0x1c718
    c860:	52803361 	mov	w1, #0x19b                 	// #411
    c864:	91000042 	add	x2, x2, #0x0	c864: R_AARCH64_ADD_ABS_LO12_NC	.rodata+0x1c718
    c868:	17ffffe9 	b	c80c <mm_malloc+0x3c>
    c86c:	f9400e62 	ldr	x2, [x19, #24]
    c870:	f9400840 	ldr	x0, [x2, #16]
    c874:	eb13001f 	cmp	x0, x19
    c878:	540000a0 	b.eq	c88c <mm_malloc+0xbc>  // b.none
    c87c:	90000002 	adrp	x2, ebb8 <_srodata>	c87c: R_AARCH64_ADR_PREL_PG_HI21	.rodata+0x18019
    c880:	52801c81 	mov	w1, #0xe4                  	// #228
    c884:	91000042 	add	x2, x2, #0x0	c884: R_AARCH64_ADD_ABS_LO12_NC	.rodata+0x18019
    c888:	17ffffe1 	b	c80c <mm_malloc+0x3c>
    c88c:	a9408660 	ldp	x0, x1, [x19, #8]
    c890:	927ef400 	and	x0, x0, #0xfffffffffffffffc
    c894:	eb0002bf 	cmp	x21, x0
    c898:	540001e8 	b.hi	c8d4 <mm_malloc+0x104>  // b.pmore
    c89c:	f9000841 	str	x1, [x2, #16]
    c8a0:	b50001e1 	cbnz	x1, c8dc <mm_malloc+0x10c>
    c8a4:	8b000262 	add	x2, x19, x0
    c8a8:	f9400441 	ldr	x1, [x2, #8]
    c8ac:	92400423 	and	x3, x1, #0x3
    c8b0:	f1000c7f 	cmp	x3, #0x3
    c8b4:	54000081 	b.ne	c8c4 <mm_malloc+0xf4>  // b.any
    c8b8:	f8606a63 	ldr	x3, [x19, x0]
    c8bc:	eb00007f 	cmp	x3, x0
    c8c0:	54000140 	b.eq	c8e8 <mm_malloc+0x118>  // b.none
    c8c4:	90000002 	adrp	x2, ebb8 <_srodata>	c8c4: R_AARCH64_ADR_PREL_PG_HI21	.rodata+0x18034
    c8c8:	52802161 	mov	w1, #0x10b                 	// #267
    c8cc:	91000042 	add	x2, x2, #0x0	c8cc: R_AARCH64_ADD_ABS_LO12_NC	.rodata+0x18034
    c8d0:	17ffffcf 	b	c80c <mm_malloc+0x3c>
    c8d4:	aa0103f3 	mov	x19, x1
    c8d8:	17ffffdb 	b	c844 <mm_malloc+0x74>
    c8dc:	f9400e62 	ldr	x2, [x19, #24]
    c8e0:	f9000c22 	str	x2, [x1, #24]
    c8e4:	17fffff0 	b	c8a4 <mm_malloc+0xd4>
    c8e8:	cb150003 	sub	x3, x0, x21
    c8ec:	f1007c7f 	cmp	x3, #0x1f
    c8f0:	540008c9 	b.ls	ca08 <mm_malloc+0x238>  // b.plast
    c8f4:	8b150262 	add	x2, x19, x21
    c8f8:	f9000443 	str	x3, [x2, #8]
    c8fc:	f9400661 	ldr	x1, [x19, #8]
    c900:	92400421 	and	x1, x1, #0x3
    c904:	aa150021 	orr	x1, x1, x21
    c908:	f9000661 	str	x1, [x19, #8]
    c90c:	f8206a63 	str	x3, [x19, x0]
    c910:	f9400440 	ldr	x0, [x2, #8]
    c914:	927ef404 	and	x4, x0, #0xfffffffffffffffc
    c918:	f1007c9f 	cmp	x4, #0x1f
    c91c:	540000e8 	b.hi	c938 <mm_malloc+0x168>  // b.pmore
    c920:	90000002 	adrp	x2, ebb8 <_srodata>	c920: R_AARCH64_ADR_PREL_PG_HI21	.rodata+0x1808e
    c924:	91000042 	add	x2, x2, #0x0	c924: R_AARCH64_ADD_ABS_LO12_NC	.rodata+0x1808e
    c928:	528028c1 	mov	w1, #0x146                 	// #326
    c92c:	90000000 	adrp	x0, ebb8 <_srodata>	c92c: R_AARCH64_ADR_PREL_PG_HI21	.rodata+0x1c6a4
    c930:	91000000 	add	x0, x0, #0x0	c930: R_AARCH64_ADD_ABS_LO12_NC	.rodata+0x1c6a4
    c934:	17ffffb8 	b	c814 <mm_malloc+0x44>
    c938:	360000a0 	tbz	w0, #0, c94c <mm_malloc+0x17c>
    c93c:	90000002 	adrp	x2, ebb8 <_srodata>	c93c: R_AARCH64_ADR_PREL_PG_HI21	.rodata+0x1c6ce
    c940:	528028e1 	mov	w1, #0x147                 	// #327
    c944:	91000042 	add	x2, x2, #0x0	c944: R_AARCH64_ADD_ABS_LO12_NC	.rodata+0x1c6ce
    c948:	17fffff9 	b	c92c <mm_malloc+0x15c>
    c94c:	d345fc81 	lsr	x1, x4, #5
    c950:	528007e0 	mov	w0, #0x3f                  	// #63
    c954:	dac01021 	clz	x1, x1
    c958:	4b010000 	sub	w0, w0, w1
    c95c:	b24057e1 	mov	x1, #0x3fffff              	// #4194303
    c960:	eb01009f 	cmp	x4, x1
    c964:	52800221 	mov	w1, #0x11                  	// #17
    c968:	1a819000 	csel	w0, w0, w1, ls	// ls = plast
    c96c:	d37b7c01 	ubfiz	x1, x0, #5, #32
    c970:	937b7c00 	sbfiz	x0, x0, #5, #32
    c974:	8b000280 	add	x0, x20, x0
    c978:	91012021 	add	x1, x1, #0x48
    c97c:	8b010281 	add	x1, x20, x1
    c980:	f9402c00 	ldr	x0, [x0, #88]
    c984:	b40000c0 	cbz	x0, c99c <mm_malloc+0x1cc>
    c988:	f9400403 	ldr	x3, [x0, #8]
    c98c:	b4000083 	cbz	x3, c99c <mm_malloc+0x1cc>
    c990:	927ef463 	and	x3, x3, #0xfffffffffffffffc
    c994:	eb03009f 	cmp	x4, x3
    c998:	54000328 	b.hi	c9fc <mm_malloc+0x22c>  // b.pmore
    c99c:	f9000822 	str	x2, [x1, #16]
    c9a0:	a9010440 	stp	x0, x1, [x2, #16]
    c9a4:	b4000040 	cbz	x0, c9ac <mm_malloc+0x1dc>
    c9a8:	f9000c02 	str	x2, [x0, #24]
    c9ac:	a9428a81 	ldp	x1, x2, [x20, #40]
    c9b0:	f9400660 	ldr	x0, [x19, #8]
    c9b4:	927ef400 	and	x0, x0, #0xfffffffffffffffc
    c9b8:	8b020000 	add	x0, x0, x2
    c9bc:	f9001a80 	str	x0, [x20, #48]
    c9c0:	eb01001f 	cmp	x0, x1
    c9c4:	54000049 	b.ls	c9cc <mm_malloc+0x1fc>  // b.plast
    c9c8:	f9001680 	str	x0, [x20, #40]
    c9cc:	f9400660 	ldr	x0, [x19, #8]
    c9d0:	91004273 	add	x19, x19, #0x10
    c9d4:	b2400000 	orr	x0, x0, #0x1
    c9d8:	f81f8260 	stur	x0, [x19, #-8]
    c9dc:	aa1303e1 	mov	x1, x19
    c9e0:	aa1403e0 	mov	x0, x20
    c9e4:	94000000 	bl	c294 <mm_heapmember>	c9e4: R_AARCH64_CALL26	mm_heapmember
    c9e8:	3707f300 	tbnz	w0, #0, c848 <mm_malloc+0x78>
    c9ec:	90000002 	adrp	x2, ebb8 <_srodata>	c9ec: R_AARCH64_ADR_PREL_PG_HI21	.rodata+0x1c6ea
    c9f0:	52802861 	mov	w1, #0x143                 	// #323
    c9f4:	91000042 	add	x2, x2, #0x0	c9f4: R_AARCH64_ADD_ABS_LO12_NC	.rodata+0x1c6ea
    c9f8:	17ffff85 	b	c80c <mm_malloc+0x3c>
    c9fc:	aa0003e1 	mov	x1, x0
    ca00:	f9400800 	ldr	x0, [x0, #16]
    ca04:	17ffffe0 	b	c984 <mm_malloc+0x1b4>
    ca08:	927ef821 	and	x1, x1, #0xfffffffffffffffd
    ca0c:	f9000441 	str	x1, [x2, #8]
    ca10:	17ffffe7 	b	c9ac <mm_malloc+0x1dc>
    ca14:	d2800013 	mov	x19, #0x0                   	// #0
    ca18:	aa1303e0 	mov	x0, x19
    ca1c:	a94157f4 	ldp	x20, x21, [sp, #16]
    ca20:	a8c24ffe 	ldp	x30, x19, [sp], #32
    ca24:	d65f03c0 	ret

000000000000ca28 <iscntrl>:
iscntrl():
    ca28:	7101fc1f 	cmp	w0, #0x7f
    ca2c:	7a5f1804 	ccmp	w0, #0x1f, #0x4, ne	// ne = any
    ca30:	1a9fc7e0 	cset	w0, le
    ca34:	d65f03c0 	ret

000000000000ca38 <iscntrl_l>:
iscntrl_l():
    ca38:	7101fc1f 	cmp	w0, #0x7f
    ca3c:	7a5f1804 	ccmp	w0, #0x1f, #0x4, ne	// ne = any
    ca40:	1a9fc7e0 	cset	w0, le
    ca44:	d65f03c0 	ret

000000000000ca48 <isspace>:
isspace():
    ca48:	51002401 	sub	w1, w0, #0x9
    ca4c:	7100801f 	cmp	w0, #0x20
    ca50:	7a441820 	ccmp	w1, #0x4, #0x0, ne	// ne = any
    ca54:	1a9f87e0 	cset	w0, ls	// ls = plast
    ca58:	d65f03c0 	ret

000000000000ca5c <isspace_l>:
isspace_l():
    ca5c:	14000000 	b	ca48 <isspace>	ca5c: R_AARCH64_JUMP26	isspace

000000000000ca60 <isxdigit>:
isxdigit():
    ca60:	5100c001 	sub	w1, w0, #0x30
    ca64:	b20f17e0 	mov	x0, #0x7e0000007e0000      	// #35465847073800192
    ca68:	f2807fe0 	movk	x0, #0x3ff
    ca6c:	7100dc3f 	cmp	w1, #0x37
    ca70:	9ac12400 	lsr	x0, x0, x1
    ca74:	12000000 	and	w0, w0, #0x1
    ca78:	1a9f3000 	csel	w0, w0, wzr, cc	// cc = lo, ul, last
    ca7c:	d65f03c0 	ret

000000000000ca80 <isxdigit_l>:
isxdigit_l():
    ca80:	14000000 	b	ca60 <isxdigit>	ca80: R_AARCH64_JUMP26	isxdigit

000000000000ca84 <tolower>:
tolower():
    ca84:	51010401 	sub	w1, w0, #0x41
    ca88:	7100643f 	cmp	w1, #0x19
    ca8c:	54000048 	b.hi	ca94 <tolower+0x10>  // b.pmore
    ca90:	11008000 	add	w0, w0, #0x20
    ca94:	d65f03c0 	ret

000000000000ca98 <tolower_l>:
tolower_l():
    ca98:	14000000 	b	ca84 <tolower>	ca98: R_AARCH64_JUMP26	tolower

000000000000ca9c <opendir>:
opendir():
    ca9c:	a9be4ffe 	stp	x30, x19, [sp, #-32]!
    caa0:	f9000bf4 	str	x20, [sp, #16]
    caa4:	aa0003f4 	mov	x20, x0
    caa8:	d2800500 	mov	x0, #0x28                  	// #40
    caac:	94000000 	bl	b5a8 <malloc>	caac: R_AARCH64_CALL26	malloc
    cab0:	b5000120 	cbnz	x0, cad4 <opendir+0x38>
    cab4:	94000000 	bl	2454 <__errno>	cab4: R_AARCH64_CALL26	__errno
    cab8:	52800181 	mov	w1, #0xc                   	// #12
    cabc:	b9000001 	str	w1, [x0]
    cac0:	d2800013 	mov	x19, #0x0                   	// #0
    cac4:	f9400bf4 	ldr	x20, [sp, #16]
    cac8:	aa1303e0 	mov	x0, x19
    cacc:	a8c24ffe 	ldp	x30, x19, [sp], #32
    cad0:	d65f03c0 	ret
    cad4:	aa0003f3 	mov	x19, x0
    cad8:	52818021 	mov	w1, #0xc01                 	// #3073
    cadc:	aa1403e0 	mov	x0, x20
    cae0:	94000000 	bl	e9c0 <open>	cae0: R_AARCH64_CALL26	open
    cae4:	36f80080 	tbz	w0, #31, caf4 <opendir+0x58>
    cae8:	aa1303e0 	mov	x0, x19
    caec:	94000000 	bl	b598 <free>	caec: R_AARCH64_CALL26	free
    caf0:	17fffff4 	b	cac0 <opendir+0x24>
    caf4:	b9000260 	str	w0, [x19]
    caf8:	17fffff3 	b	cac4 <opendir+0x28>

000000000000cafc <closedir>:
closedir():
    cafc:	a9be4ffe 	stp	x30, x19, [sp, #-32]!
    cb00:	f9000bf4 	str	x20, [sp, #16]
    cb04:	b5000120 	cbnz	x0, cb28 <closedir+0x2c>
    cb08:	94000000 	bl	2454 <__errno>	cb08: R_AARCH64_CALL26	__errno
    cb0c:	12800014 	mov	w20, #0xffffffff            	// #-1
    cb10:	52800121 	mov	w1, #0x9                   	// #9
    cb14:	b9000001 	str	w1, [x0]
    cb18:	2a1403e0 	mov	w0, w20
    cb1c:	f9400bf4 	ldr	x20, [sp, #16]
    cb20:	a8c24ffe 	ldp	x30, x19, [sp], #32
    cb24:	d65f03c0 	ret
    cb28:	aa0003f3 	mov	x19, x0
    cb2c:	b9400000 	ldr	w0, [x0]
    cb30:	94000000 	bl	e814 <close>	cb30: R_AARCH64_CALL26	close
    cb34:	2a0003f4 	mov	w20, w0
    cb38:	aa1303e0 	mov	x0, x19
    cb3c:	94000000 	bl	b598 <free>	cb3c: R_AARCH64_CALL26	free
    cb40:	17fffff6 	b	cb18 <closedir+0x1c>

000000000000cb44 <readdir>:
readdir():
    cb44:	a9bf4ffe 	stp	x30, x19, [sp, #-16]!
    cb48:	b50000c0 	cbnz	x0, cb60 <readdir+0x1c>
    cb4c:	94000000 	bl	2454 <__errno>	cb4c: R_AARCH64_CALL26	__errno
    cb50:	52800121 	mov	w1, #0x9                   	// #9
    cb54:	b9000001 	str	w1, [x0]
    cb58:	d2800013 	mov	x19, #0x0                   	// #0
    cb5c:	14000008 	b	cb7c <readdir+0x38>
    cb60:	91001013 	add	x19, x0, #0x4
    cb64:	b9400000 	ldr	w0, [x0]
    cb68:	aa1303e1 	mov	x1, x19
    cb6c:	d2800442 	mov	x2, #0x22                  	// #34
    cb70:	94000000 	bl	ea70 <read>	cb70: R_AARCH64_CALL26	read
    cb74:	7100001f 	cmp	w0, #0x0
    cb78:	54ffff0d 	b.le	cb58 <readdir+0x14>
    cb7c:	aa1303e0 	mov	x0, x19
    cb80:	a8c14ffe 	ldp	x30, x19, [sp], #16
    cb84:	d65f03c0 	ret

000000000000cb88 <basename>:
basename():
    cb88:	a9bf4ffe 	stp	x30, x19, [sp, #-16]!
    cb8c:	b40002c0 	cbz	x0, cbe4 <basename+0x5c>
    cb90:	39400001 	ldrb	w1, [x0]
    cb94:	aa0003f3 	mov	x19, x0
    cb98:	34000261 	cbz	w1, cbe4 <basename+0x5c>
    cb9c:	94000000 	bl	940 <strlen>	cb9c: R_AARCH64_CALL26	strlen
    cba0:	d1000401 	sub	x1, x0, #0x1
    cba4:	38616a62 	ldrb	w2, [x19, x1]
    cba8:	7100bc5f 	cmp	w2, #0x2f
    cbac:	54000120 	b.eq	cbd0 <basename+0x48>  // b.none
    cbb0:	aa1303e0 	mov	x0, x19
    cbb4:	528005e1 	mov	w1, #0x2f                  	// #47
    cbb8:	94000000 	bl	c54 <strrchr>	cbb8: R_AARCH64_CALL26	strrchr
    cbbc:	b4000040 	cbz	x0, cbc4 <basename+0x3c>
    cbc0:	91000413 	add	x19, x0, #0x1
    cbc4:	aa1303e0 	mov	x0, x19
    cbc8:	a8c14ffe 	ldp	x30, x19, [sp], #16
    cbcc:	d65f03c0 	ret
    cbd0:	f100041f 	cmp	x0, #0x1
    cbd4:	54ffff89 	b.ls	cbc4 <basename+0x3c>  // b.plast
    cbd8:	aa0103e0 	mov	x0, x1
    cbdc:	38216a7f 	strb	wzr, [x19, x1]
    cbe0:	17fffff0 	b	cba0 <basename+0x18>
    cbe4:	90000013 	adrp	x19, ebb8 <_srodata>	cbe4: R_AARCH64_ADR_PREL_PG_HI21	.rodata+0x1c747
    cbe8:	91000273 	add	x19, x19, #0x0	cbe8: R_AARCH64_ADD_ABS_LO12_NC	.rodata+0x1c747
    cbec:	17fffff6 	b	cbc4 <basename+0x3c>

000000000000cbf0 <dirname>:
dirname():
    cbf0:	a9bf4ffe 	stp	x30, x19, [sp, #-16]!
    cbf4:	b4000400 	cbz	x0, cc74 <dirname+0x84>
    cbf8:	39400001 	ldrb	w1, [x0]
    cbfc:	aa0003f3 	mov	x19, x0
    cc00:	340003a1 	cbz	w1, cc74 <dirname+0x84>
    cc04:	94000000 	bl	940 <strlen>	cc04: R_AARCH64_CALL26	strlen
    cc08:	51000400 	sub	w0, w0, #0x1
    cc0c:	93407c00 	sxtw	x0, w0
    cc10:	38606a61 	ldrb	w1, [x19, x0]
    cc14:	7100bc3f 	cmp	w1, #0x2f
    cc18:	54000180 	b.eq	cc48 <dirname+0x58>  // b.none
    cc1c:	aa1303e0 	mov	x0, x19
    cc20:	528005e1 	mov	w1, #0x2f                  	// #47
    cc24:	94000000 	bl	c54 <strrchr>	cc24: R_AARCH64_CALL26	strrchr
    cc28:	b4000260 	cbz	x0, cc74 <dirname+0x84>
    cc2c:	eb13001f 	cmp	x0, x19
    cc30:	54000120 	b.eq	cc54 <dirname+0x64>  // b.none
    cc34:	381ff41f 	strb	wzr, [x0], #-1
    cc38:	39400001 	ldrb	w1, [x0]
    cc3c:	7100bc3f 	cmp	w1, #0x2f
    cc40:	54ffff60 	b.eq	cc2c <dirname+0x3c>  // b.none
    cc44:	14000006 	b	cc5c <dirname+0x6c>
    cc48:	11000401 	add	w1, w0, #0x1
    cc4c:	7100043f 	cmp	w1, #0x1
    cc50:	540000cc 	b.gt	cc68 <dirname+0x78>
    cc54:	90000013 	adrp	x19, ebb8 <_srodata>	cc54: R_AARCH64_ADR_PREL_PG_HI21	.rodata+0x1c74b
    cc58:	91000273 	add	x19, x19, #0x0	cc58: R_AARCH64_ADD_ABS_LO12_NC	.rodata+0x1c74b
    cc5c:	aa1303e0 	mov	x0, x19
    cc60:	a8c14ffe 	ldp	x30, x19, [sp], #16
    cc64:	d65f03c0 	ret
    cc68:	38206a7f 	strb	wzr, [x19, x0]
    cc6c:	d1000400 	sub	x0, x0, #0x1
    cc70:	17ffffe8 	b	cc10 <dirname+0x20>
    cc74:	90000013 	adrp	x19, ebb8 <_srodata>	cc74: R_AARCH64_ADR_PREL_PG_HI21	.rodata+0x1c749
    cc78:	91000273 	add	x19, x19, #0x0	cc78: R_AARCH64_ADD_ABS_LO12_NC	.rodata+0x1c749
    cc7c:	17fffff8 	b	cc5c <dirname+0x6c>

000000000000cc80 <uname>:
uname():
    cc80:	a9be4ffe 	stp	x30, x19, [sp, #-32]!
    cc84:	aa0003f3 	mov	x19, x0
    cc88:	d28002a2 	mov	x2, #0x15                  	// #21
    cc8c:	90000001 	adrp	x1, ebb8 <_srodata>	cc8c: R_AARCH64_ADR_PREL_PG_HI21	.rodata+0x1c74d
    cc90:	91000021 	add	x1, x1, #0x0	cc90: R_AARCH64_ADD_ABS_LO12_NC	.rodata+0x1c74d
    cc94:	f9000bf4 	str	x20, [sp, #16]
    cc98:	94000000 	bl	dc70 <strlcpy>	cc98: R_AARCH64_CALL26	strlcpy
    cc9c:	91005660 	add	x0, x19, #0x15
    cca0:	d2800401 	mov	x1, #0x20                  	// #32
    cca4:	94000000 	bl	e878 <gethostname>	cca4: R_AARCH64_CALL26	gethostname
    cca8:	3900d27f 	strb	wzr, [x19, #52]
    ccac:	2a0003f4 	mov	w20, w0
    ccb0:	d28002a2 	mov	x2, #0x15                  	// #21
    ccb4:	9100d660 	add	x0, x19, #0x35
    ccb8:	90000001 	adrp	x1, ebb8 <_srodata>	ccb8: R_AARCH64_ADR_PREL_PG_HI21	.rodata+0x1c753
    ccbc:	91000021 	add	x1, x1, #0x0	ccbc: R_AARCH64_ADD_ABS_LO12_NC	.rodata+0x1c753
    ccc0:	94000000 	bl	dc70 <strlcpy>	ccc0: R_AARCH64_CALL26	strlcpy
    ccc4:	91012a60 	add	x0, x19, #0x4a
    ccc8:	d2800662 	mov	x2, #0x33                  	// #51
    cccc:	90000001 	adrp	x1, 50 <memcpy+0x50>	cccc: R_AARCH64_ADR_PREL_PG_HI21	.data+0x28
    ccd0:	91000021 	add	x1, x1, #0x0	ccd0: R_AARCH64_ADD_ABS_LO12_NC	.data+0x28
    ccd4:	94000000 	bl	dc70 <strlcpy>	ccd4: R_AARCH64_CALL26	strlcpy
    ccd8:	9101f660 	add	x0, x19, #0x7d
    ccdc:	d28002a2 	mov	x2, #0x15                  	// #21
    cce0:	90000001 	adrp	x1, ebb8 <_srodata>	cce0: R_AARCH64_ADR_PREL_PG_HI21	.rodata+0x1c75a
    cce4:	91000021 	add	x1, x1, #0x0	cce4: R_AARCH64_ADD_ABS_LO12_NC	.rodata+0x1c75a
    cce8:	94000000 	bl	dc70 <strlcpy>	cce8: R_AARCH64_CALL26	strlcpy
    ccec:	2a1403e0 	mov	w0, w20
    ccf0:	f9400bf4 	ldr	x20, [sp, #16]
    ccf4:	a8c24ffe 	ldp	x30, x19, [sp], #32
    ccf8:	d65f03c0 	ret

000000000000ccfc <lib_get_tempbuffer>:
lib_get_tempbuffer():
    ccfc:	a9bd4ffe 	stp	x30, x19, [sp, #-48]!
    cd00:	a90157f4 	stp	x20, x21, [sp, #16]
    cd04:	f90013f6 	str	x22, [sp, #32]
    cd08:	aa0003f6 	mov	x22, x0
    cd0c:	f104001f 	cmp	x0, #0x100
    cd10:	54000348 	b.hi	cd78 <lib_get_tempbuffer+0x7c>  // b.pmore
    cd14:	90000014 	adrp	x20, 50 <memcpy+0x50>	cd14: R_AARCH64_ADR_PREL_PG_HI21	.data+0x48
    cd18:	91000294 	add	x20, x20, #0x0	cd18: R_AARCH64_ADD_ABS_LO12_NC	.data+0x48
    cd1c:	b9400295 	ldr	w21, [x20]
    cd20:	5ac002a1 	rbit	w1, w21
    cd24:	710002bf 	cmp	w21, #0x0
    cd28:	5ac01021 	clz	w1, w1
    cd2c:	1a8107e1 	csinc	w1, wzr, w1, eq	// eq = none
    cd30:	51000433 	sub	w19, w1, #0x1
    cd34:	7100067f 	cmp	w19, #0x1
    cd38:	54000208 	b.hi	cd78 <lib_get_tempbuffer+0x7c>  // b.pmore
    cd3c:	52800021 	mov	w1, #0x1                   	// #1
    cd40:	aa1403e2 	mov	x2, x20
    cd44:	1ad32021 	lsl	w1, w1, w19
    cd48:	2a1503e0 	mov	w0, w21
    cd4c:	0a2102a1 	bic	w1, w21, w1
    cd50:	94000000 	bl	d60 <__aarch64_cas4_acq_rel>	cd50: R_AARCH64_CALL26	__aarch64_cas4_acq_rel
    cd54:	6b15001f 	cmp	w0, w21
    cd58:	54fffe21 	b.ne	cd1c <lib_get_tempbuffer+0x20>  // b.any
    cd5c:	d3787e61 	ubfiz	x1, x19, #8, #32
    cd60:	91001021 	add	x1, x1, #0x4
    cd64:	f94013f6 	ldr	x22, [sp, #32]
    cd68:	8b140020 	add	x0, x1, x20
    cd6c:	a94157f4 	ldp	x20, x21, [sp, #16]
    cd70:	a8c34ffe 	ldp	x30, x19, [sp], #48
    cd74:	d65f03c0 	ret
    cd78:	a94157f4 	ldp	x20, x21, [sp, #16]
    cd7c:	aa1603e0 	mov	x0, x22
    cd80:	f94013f6 	ldr	x22, [sp, #32]
    cd84:	a8c34ffe 	ldp	x30, x19, [sp], #48
    cd88:	14000000 	b	b5a8 <malloc>	cd88: R_AARCH64_JUMP26	malloc

000000000000cd8c <lib_put_tempbuffer>:
lib_put_tempbuffer():
    cd8c:	90000001 	adrp	x1, 50 <memcpy+0x50>	cd8c: R_AARCH64_ADR_PREL_PG_HI21	.data+0x4c
    cd90:	91000021 	add	x1, x1, #0x0	cd90: R_AARCH64_ADD_ABS_LO12_NC	.data+0x4c
    cd94:	cb010002 	sub	x2, x0, x1
    cd98:	d2802001 	mov	x1, #0x100                 	// #256
    cd9c:	9ac10c42 	sdiv	x2, x2, x1
    cda0:	7100045f 	cmp	w2, #0x1
    cda4:	54000248 	b.hi	cdec <lib_put_tempbuffer+0x60>  // b.pmore
    cda8:	f81f0ffe 	str	x30, [sp, #-16]!
    cdac:	90000001 	adrp	x1, 50 <memcpy+0x50>	cdac: R_AARCH64_ADR_PREL_PG_HI21	.data+0x48
    cdb0:	91000021 	add	x1, x1, #0x0	cdb0: R_AARCH64_ADD_ABS_LO12_NC	.data+0x48
    cdb4:	b9400020 	ldr	w0, [x1]
    cdb8:	1ac22400 	lsr	w0, w0, w2
    cdbc:	360000e0 	tbz	w0, #0, cdd8 <lib_put_tempbuffer+0x4c>
    cdc0:	90000002 	adrp	x2, ebb8 <_srodata>	cdc0: R_AARCH64_ADR_PREL_PG_HI21	.rodata+0x1c760
    cdc4:	90000000 	adrp	x0, ebb8 <_srodata>	cdc4: R_AARCH64_ADR_PREL_PG_HI21	.rodata+0x1c853
    cdc8:	91000042 	add	x2, x2, #0x0	cdc8: R_AARCH64_ADD_ABS_LO12_NC	.rodata+0x1c760
    cdcc:	91000000 	add	x0, x0, #0x0	cdcc: R_AARCH64_ADD_ABS_LO12_NC	.rodata+0x1c853
    cdd0:	528011a1 	mov	w1, #0x8d                  	// #141
    cdd4:	94000000 	bl	2444 <__assert>	cdd4: R_AARCH64_CALL26	__assert
    cdd8:	52800020 	mov	w0, #0x1                   	// #1
    cddc:	1ac22000 	lsl	w0, w0, w2
    cde0:	94000000 	bl	d90 <__aarch64_ldset4_acq>	cde0: R_AARCH64_CALL26	__aarch64_ldset4_acq
    cde4:	f84107fe 	ldr	x30, [sp], #16
    cde8:	d65f03c0 	ret
    cdec:	14000000 	b	b598 <free>	cdec: R_AARCH64_JUMP26	free

000000000000cdf0 <posix_spawn_file_actions_addopen>:
posix_spawn_file_actions_addopen():
    cdf0:	a9bc4ffe 	stp	x30, x19, [sp, #-64]!
    cdf4:	f100001f 	cmp	x0, #0x0
    cdf8:	fa401844 	ccmp	x2, #0x0, #0x4, ne	// ne = any
    cdfc:	a90157f4 	stp	x20, x21, [sp, #16]
    ce00:	a9025ff6 	stp	x22, x23, [sp, #32]
    ce04:	a90367f8 	stp	x24, x25, [sp, #48]
    ce08:	54000060 	b.eq	ce14 <posix_spawn_file_actions_addopen+0x24>  // b.none
    ce0c:	2a0103f7 	mov	w23, w1
    ce10:	36f800e1 	tbz	w1, #31, ce2c <posix_spawn_file_actions_addopen+0x3c>
    ce14:	90000002 	adrp	x2, ebb8 <_srodata>	ce14: R_AARCH64_ADR_PREL_PG_HI21	.rodata+0x1c869
    ce18:	90000000 	adrp	x0, ebb8 <_srodata>	ce18: R_AARCH64_ADR_PREL_PG_HI21	.rodata+0x1c889
    ce1c:	91000042 	add	x2, x2, #0x0	ce1c: R_AARCH64_ADD_ABS_LO12_NC	.rodata+0x1c869
    ce20:	91000000 	add	x0, x0, #0x0	ce20: R_AARCH64_ADD_ABS_LO12_NC	.rodata+0x1c889
    ce24:	528009c1 	mov	w1, #0x4e                  	// #78
    ce28:	94000000 	bl	2444 <__assert>	ce28: R_AARCH64_CALL26	__assert
    ce2c:	aa0203f4 	mov	x20, x2
    ce30:	2a0303f8 	mov	w24, w3
    ce34:	2a0403f9 	mov	w25, w4
    ce38:	aa0003f5 	mov	x21, x0
    ce3c:	aa0203e0 	mov	x0, x2
    ce40:	94000000 	bl	940 <strlen>	ce40: R_AARCH64_CALL26	strlen
    ce44:	aa0003f6 	mov	x22, x0
    ce48:	91008000 	add	x0, x0, #0x20
    ce4c:	94000000 	bl	b66c <zalloc>	ce4c: R_AARCH64_CALL26	zalloc
    ce50:	aa0003f3 	mov	x19, x0
    ce54:	b4000220 	cbz	x0, ce98 <posix_spawn_file_actions_addopen+0xa8>
    ce58:	910006c2 	add	x2, x22, #0x1
    ce5c:	52800060 	mov	w0, #0x3                   	// #3
    ce60:	29015e60 	stp	w0, w23, [x19, #8]
    ce64:	aa1403e1 	mov	x1, x20
    ce68:	29026678 	stp	w24, w25, [x19, #16]
    ce6c:	91006260 	add	x0, x19, #0x18
    ce70:	94000000 	bl	dc70 <strlcpy>	ce70: R_AARCH64_CALL26	strlcpy
    ce74:	aa1503e0 	mov	x0, x21
    ce78:	aa1303e1 	mov	x1, x19
    ce7c:	94000000 	bl	e2fc <add_file_action>	ce7c: R_AARCH64_CALL26	add_file_action
    ce80:	52800000 	mov	w0, #0x0                   	// #0
    ce84:	a94157f4 	ldp	x20, x21, [sp, #16]
    ce88:	a9425ff6 	ldp	x22, x23, [sp, #32]
    ce8c:	a94367f8 	ldp	x24, x25, [sp, #48]
    ce90:	a8c44ffe 	ldp	x30, x19, [sp], #64
    ce94:	d65f03c0 	ret
    ce98:	52800180 	mov	w0, #0xc                   	// #12
    ce9c:	17fffffa 	b	ce84 <posix_spawn_file_actions_addopen+0x94>

000000000000cea0 <posix_spawn_file_actions_destroy>:
posix_spawn_file_actions_destroy():
    cea0:	a9be4ffe 	stp	x30, x19, [sp, #-32]!
    cea4:	f9000bf4 	str	x20, [sp, #16]
    cea8:	b50000e0 	cbnz	x0, cec4 <posix_spawn_file_actions_destroy+0x24>
    ceac:	90000002 	adrp	x2, ebb8 <_srodata>	ceac: R_AARCH64_ADR_PREL_PG_HI21	.rodata+0x1c8a2
    ceb0:	90000000 	adrp	x0, ebb8 <_srodata>	ceb0: R_AARCH64_ADR_PREL_PG_HI21	.rodata+0x1c8af
    ceb4:	91000042 	add	x2, x2, #0x0	ceb4: R_AARCH64_ADD_ABS_LO12_NC	.rodata+0x1c8a2
    ceb8:	91000000 	add	x0, x0, #0x0	ceb8: R_AARCH64_ADD_ABS_LO12_NC	.rodata+0x1c8af
    cebc:	52800881 	mov	w1, #0x44                  	// #68
    cec0:	94000000 	bl	2444 <__assert>	cec0: R_AARCH64_CALL26	__assert
    cec4:	aa0003f3 	mov	x19, x0
    cec8:	f9400000 	ldr	x0, [x0]
    cecc:	b50000a0 	cbnz	x0, cee0 <posix_spawn_file_actions_destroy+0x40>
    ced0:	f900027f 	str	xzr, [x19]
    ced4:	f9400bf4 	ldr	x20, [sp, #16]
    ced8:	a8c24ffe 	ldp	x30, x19, [sp], #32
    cedc:	d65f03c0 	ret
    cee0:	f9400014 	ldr	x20, [x0]
    cee4:	94000000 	bl	b598 <free>	cee4: R_AARCH64_CALL26	free
    cee8:	aa1403e0 	mov	x0, x20
    ceec:	17fffff8 	b	cecc <posix_spawn_file_actions_destroy+0x2c>

000000000000cef0 <posix_spawn_file_actions_init>:
posix_spawn_file_actions_init():
    cef0:	f900001f 	str	xzr, [x0]
    cef4:	52800000 	mov	w0, #0x0                   	// #0
    cef8:	d65f03c0 	ret

000000000000cefc <posix_spawnattr_init>:
posix_spawnattr_init():
    cefc:	a9be4ffe 	stp	x30, x19, [sp, #-32]!
    cf00:	b50000e0 	cbnz	x0, cf1c <posix_spawnattr_init+0x20>
    cf04:	90000002 	adrp	x2, ebb8 <_srodata>	cf04: R_AARCH64_ADR_PREL_PG_HI21	.rodata+0x1c8c8
    cf08:	90000000 	adrp	x0, ebb8 <_srodata>	cf08: R_AARCH64_ADR_PREL_PG_HI21	.rodata+0x1c8cd
    cf0c:	91000042 	add	x2, x2, #0x0	cf0c: R_AARCH64_ADD_ABS_LO12_NC	.rodata+0x1c8c8
    cf10:	91000000 	add	x0, x0, #0x0	cf10: R_AARCH64_ADD_ABS_LO12_NC	.rodata+0x1c8cd
    cf14:	528007c1 	mov	w1, #0x3e                  	// #62
    cf18:	94000000 	bl	2444 <__assert>	cf18: R_AARCH64_CALL26	__assert
    cf1c:	3900001f 	strb	wzr, [x0]
    cf20:	aa0003f3 	mov	x19, x0
    cf24:	910063e1 	add	x1, sp, #0x18
    cf28:	52800000 	mov	w0, #0x0                   	// #0
    cf2c:	94000000 	bl	2fa0 <sched_getparam>	cf2c: R_AARCH64_CALL26	sched_getparam
    cf30:	36f800a0 	tbz	w0, #31, cf44 <posix_spawnattr_init+0x48>
    cf34:	94000000 	bl	2454 <__errno>	cf34: R_AARCH64_CALL26	__errno
    cf38:	b9400000 	ldr	w0, [x0]
    cf3c:	a8c24ffe 	ldp	x30, x19, [sp], #32
    cf40:	d65f03c0 	ret
    cf44:	b9401be0 	ldr	w0, [sp, #24]
    cf48:	39000660 	strb	w0, [x19, #1]
    cf4c:	52800000 	mov	w0, #0x0                   	// #0
    cf50:	94000000 	bl	eacc <sched_getscheduler>	cf50: R_AARCH64_CALL26	sched_getscheduler
    cf54:	37ffff00 	tbnz	w0, #31, cf34 <posix_spawnattr_init+0x38>
    cf58:	39000a60 	strb	w0, [x19, #2]
    cf5c:	91001260 	add	x0, x19, #0x4
    cf60:	94000000 	bl	e2f0 <sigemptyset>	cf60: R_AARCH64_CALL26	sigemptyset
    cf64:	d2840000 	mov	x0, #0x2000                	// #8192
    cf68:	f9000a60 	str	x0, [x19, #16]
    cf6c:	52800000 	mov	w0, #0x0                   	// #0
    cf70:	17fffff3 	b	cf3c <posix_spawnattr_init+0x40>

000000000000cf74 <posix_spawnattr_destroy>:
posix_spawnattr_destroy():
    cf74:	52800000 	mov	w0, #0x0                   	// #0
    cf78:	d65f03c0 	ret

000000000000cf7c <nx_asprintf>:
nx_asprintf():
    cf7c:	d10403ff 	sub	sp, sp, #0x100
    cf80:	a90d0fe2 	stp	x2, x3, [sp, #208]
    cf84:	910403e2 	add	x2, sp, #0x100
    cf88:	a9030be2 	stp	x2, x2, [sp, #48]
    cf8c:	910343e2 	add	x2, sp, #0xd0
    cf90:	3dc00fff 	ldr	q31, [sp, #48]
    cf94:	f90023e2 	str	x2, [sp, #64]
    cf98:	128005e2 	mov	w2, #0xffffffd0            	// #-48
    cf9c:	b9004be2 	str	w2, [sp, #72]
    cfa0:	12800fe2 	mov	w2, #0xffffff80            	// #-128
    cfa4:	b9004fe2 	str	w2, [sp, #76]
    cfa8:	3d8007ff 	str	q31, [sp, #16]
    cfac:	910043e2 	add	x2, sp, #0x10
    cfb0:	3dc013ff 	ldr	q31, [sp, #64]
    cfb4:	f90003fe 	str	x30, [sp]
    cfb8:	ad0287e0 	stp	q0, q1, [sp, #80]
    cfbc:	3d800bff 	str	q31, [sp, #32]
    cfc0:	ad038fe2 	stp	q2, q3, [sp, #112]
    cfc4:	ad0497e4 	stp	q4, q5, [sp, #144]
    cfc8:	ad059fe6 	stp	q6, q7, [sp, #176]
    cfcc:	a90e17e4 	stp	x4, x5, [sp, #224]
    cfd0:	a90f1fe6 	stp	x6, x7, [sp, #240]
    cfd4:	94000000 	bl	d0d8 <nx_vasprintf>	cfd4: R_AARCH64_CALL26	nx_vasprintf
    cfd8:	f94003fe 	ldr	x30, [sp]
    cfdc:	910403ff 	add	sp, sp, #0x100
    cfe0:	d65f03c0 	ret

000000000000cfe4 <asprintf>:
asprintf():
    cfe4:	d10403ff 	sub	sp, sp, #0x100
    cfe8:	a90d0fe2 	stp	x2, x3, [sp, #208]
    cfec:	910403e2 	add	x2, sp, #0x100
    cff0:	a9030be2 	stp	x2, x2, [sp, #48]
    cff4:	910343e2 	add	x2, sp, #0xd0
    cff8:	3dc00fff 	ldr	q31, [sp, #48]
    cffc:	f90023e2 	str	x2, [sp, #64]
    d000:	128005e2 	mov	w2, #0xffffffd0            	// #-48
    d004:	b9004be2 	str	w2, [sp, #72]
    d008:	12800fe2 	mov	w2, #0xffffff80            	// #-128
    d00c:	b9004fe2 	str	w2, [sp, #76]
    d010:	3d8007ff 	str	q31, [sp, #16]
    d014:	910043e2 	add	x2, sp, #0x10
    d018:	3dc013ff 	ldr	q31, [sp, #64]
    d01c:	f90003fe 	str	x30, [sp]
    d020:	ad0287e0 	stp	q0, q1, [sp, #80]
    d024:	3d800bff 	str	q31, [sp, #32]
    d028:	ad038fe2 	stp	q2, q3, [sp, #112]
    d02c:	ad0497e4 	stp	q4, q5, [sp, #144]
    d030:	ad059fe6 	stp	q6, q7, [sp, #176]
    d034:	a90e17e4 	stp	x4, x5, [sp, #224]
    d038:	a90f1fe6 	stp	x6, x7, [sp, #240]
    d03c:	94000000 	bl	d1d4 <vasprintf>	d03c: R_AARCH64_CALL26	vasprintf
    d040:	f94003fe 	ldr	x30, [sp]
    d044:	910403ff 	add	sp, sp, #0x100
    d048:	d65f03c0 	ret

000000000000d04c <snprintf>:
snprintf():
    d04c:	a9ad4ffe 	stp	x30, x19, [sp, #-304]!
    d050:	aa0203f3 	mov	x19, x2
    d054:	a91093e3 	stp	x3, x4, [sp, #264]
    d058:	a9119be5 	stp	x5, x6, [sp, #280]
    d05c:	f90097e7 	str	x7, [sp, #296]
    d060:	ad0407e0 	stp	q0, q1, [sp, #128]
    d064:	ad050fe2 	stp	q2, q3, [sp, #160]
    d068:	ad0617e4 	stp	q4, q5, [sp, #192]
    d06c:	ad071fe6 	stp	q6, q7, [sp, #224]
    d070:	b40002e1 	cbz	x1, d0cc <snprintf+0x80>
    d074:	aa0103e2 	mov	x2, x1
    d078:	aa0003e1 	mov	x1, x0
    d07c:	910143e0 	add	x0, sp, #0x50
    d080:	94000000 	bl	d930 <lib_memoutstream>	d080: R_AARCH64_CALL26	lib_memoutstream
    d084:	9104c3e0 	add	x0, sp, #0x130
    d088:	a90303e0 	stp	x0, x0, [sp, #48]
    d08c:	910403e0 	add	x0, sp, #0x100
    d090:	3dc00fff 	ldr	q31, [sp, #48]
    d094:	f90023e0 	str	x0, [sp, #64]
    d098:	128004e0 	mov	w0, #0xffffffd8            	// #-40
    d09c:	b9004be0 	str	w0, [sp, #72]
    d0a0:	12800fe0 	mov	w0, #0xffffff80            	// #-128
    d0a4:	b9004fe0 	str	w0, [sp, #76]
    d0a8:	3d8007ff 	str	q31, [sp, #16]
    d0ac:	910043e2 	add	x2, sp, #0x10
    d0b0:	aa1303e1 	mov	x1, x19
    d0b4:	3dc013ff 	ldr	q31, [sp, #64]
    d0b8:	910143e0 	add	x0, sp, #0x50
    d0bc:	3d800bff 	str	q31, [sp, #32]
    d0c0:	94000000 	bl	1e58 <lib_vsprintf>	d0c0: R_AARCH64_CALL26	lib_vsprintf
    d0c4:	a8d34ffe 	ldp	x30, x19, [sp], #304
    d0c8:	d65f03c0 	ret
    d0cc:	910143e0 	add	x0, sp, #0x50
    d0d0:	94000000 	bl	d9cc <lib_nulloutstream>	d0d0: R_AARCH64_CALL26	lib_nulloutstream
    d0d4:	17ffffec 	b	d084 <snprintf+0x38>

000000000000d0d8 <nx_vasprintf>:
nx_vasprintf():
    d0d8:	a9b34ffe 	stp	x30, x19, [sp, #-208]!
    d0dc:	f100001f 	cmp	x0, #0x0
    d0e0:	fa401824 	ccmp	x1, #0x0, #0x4, ne	// ne = any
    d0e4:	a90157f4 	stp	x20, x21, [sp, #16]
    d0e8:	a9025ff6 	stp	x22, x23, [sp, #32]
    d0ec:	f9001bf8 	str	x24, [sp, #48]
    d0f0:	540000e1 	b.ne	d10c <nx_vasprintf+0x34>  // b.any
    d0f4:	90000002 	adrp	x2, ebb8 <_srodata>	d0f4: R_AARCH64_ADR_PREL_PG_HI21	.rodata+0x1c8e2
    d0f8:	91000042 	add	x2, x2, #0x0	d0f8: R_AARCH64_ADD_ABS_LO12_NC	.rodata+0x1c8e2
    d0fc:	52800921 	mov	w1, #0x49                  	// #73
    d100:	90000000 	adrp	x0, ebb8 <_srodata>	d100: R_AARCH64_ADR_PREL_PG_HI21	.rodata+0x1c909
    d104:	91000000 	add	x0, x0, #0x0	d104: R_AARCH64_ADD_ABS_LO12_NC	.rodata+0x1c909
    d108:	94000000 	bl	2444 <__assert>	d108: R_AARCH64_CALL26	__assert
    d10c:	ad40785f 	ldp	q31, q30, [x2]
    d110:	aa0203f3 	mov	x19, x2
    d114:	aa0103f6 	mov	x22, x1
    d118:	aa0003f5 	mov	x21, x0
    d11c:	910183e0 	add	x0, sp, #0x60
    d120:	910103f7 	add	x23, sp, #0x40
    d124:	ad047bff 	stp	q31, q30, [sp, #128]
    d128:	94000000 	bl	d9cc <lib_nulloutstream>	d128: R_AARCH64_CALL26	lib_nulloutstream
    d12c:	aa1703e2 	mov	x2, x23
    d130:	ad407e7e 	ldp	q30, q31, [x19]
    d134:	aa1603e1 	mov	x1, x22
    d138:	910183e0 	add	x0, sp, #0x60
    d13c:	910203f8 	add	x24, sp, #0x80
    d140:	ad027ffe 	stp	q30, q31, [sp, #64]
    d144:	94000000 	bl	1e58 <lib_vsprintf>	d144: R_AARCH64_CALL26	lib_vsprintf
    d148:	b94063f4 	ldr	w20, [sp, #96]
    d14c:	11000694 	add	w20, w20, #0x1
    d150:	93407e94 	sxtw	x20, w20
    d154:	aa1403e0 	mov	x0, x20
    d158:	94000000 	bl	b5a8 <malloc>	d158: R_AARCH64_CALL26	malloc
    d15c:	aa0003f3 	mov	x19, x0
    d160:	b40002a0 	cbz	x0, d1b4 <nx_vasprintf+0xdc>
    d164:	aa0003e1 	mov	x1, x0
    d168:	aa1403e2 	mov	x2, x20
    d16c:	910283e0 	add	x0, sp, #0xa0
    d170:	94000000 	bl	d930 <lib_memoutstream>	d170: R_AARCH64_CALL26	lib_memoutstream
    d174:	ad407f1e 	ldp	q30, q31, [x24]
    d178:	aa1703e2 	mov	x2, x23
    d17c:	aa1603e1 	mov	x1, x22
    d180:	910283e0 	add	x0, sp, #0xa0
    d184:	ad027ffe 	stp	q30, q31, [sp, #64]
    d188:	94000000 	bl	1e58 <lib_vsprintf>	d188: R_AARCH64_CALL26	lib_vsprintf
    d18c:	37f80100 	tbnz	w0, #31, d1ac <nx_vasprintf+0xd4>
    d190:	b94063e1 	ldr	w1, [sp, #96]
    d194:	6b00003f 	cmp	w1, w0
    d198:	540001a0 	b.eq	d1cc <nx_vasprintf+0xf4>  // b.none
    d19c:	90000002 	adrp	x2, ebb8 <_srodata>	d19c: R_AARCH64_ADR_PREL_PG_HI21	.rodata+0x1c91f
    d1a0:	52800f01 	mov	w1, #0x78                  	// #120
    d1a4:	91000042 	add	x2, x2, #0x0	d1a4: R_AARCH64_ADD_ABS_LO12_NC	.rodata+0x1c91f
    d1a8:	17ffffd6 	b	d100 <nx_vasprintf+0x28>
    d1ac:	aa1303e0 	mov	x0, x19
    d1b0:	94000000 	bl	b598 <free>	d1b0: R_AARCH64_CALL26	free
    d1b4:	12800000 	mov	w0, #0xffffffff            	// #-1
    d1b8:	f9401bf8 	ldr	x24, [sp, #48]
    d1bc:	a94157f4 	ldp	x20, x21, [sp, #16]
    d1c0:	a9425ff6 	ldp	x22, x23, [sp, #32]
    d1c4:	a8cd4ffe 	ldp	x30, x19, [sp], #208
    d1c8:	d65f03c0 	ret
    d1cc:	f90002b3 	str	x19, [x21]
    d1d0:	17fffffa 	b	d1b8 <nx_vasprintf+0xe0>

000000000000d1d4 <vasprintf>:
vasprintf():
    d1d4:	a9b34ffe 	stp	x30, x19, [sp, #-208]!
    d1d8:	f100001f 	cmp	x0, #0x0
    d1dc:	fa401824 	ccmp	x1, #0x0, #0x4, ne	// ne = any
    d1e0:	a90157f4 	stp	x20, x21, [sp, #16]
    d1e4:	a9025ff6 	stp	x22, x23, [sp, #32]
    d1e8:	f9001bf8 	str	x24, [sp, #48]
    d1ec:	540000e1 	b.ne	d208 <vasprintf+0x34>  // b.any
    d1f0:	90000002 	adrp	x2, ebb8 <_srodata>	d1f0: R_AARCH64_ADR_PREL_PG_HI21	.rodata+0x1c94a
    d1f4:	91000042 	add	x2, x2, #0x0	d1f4: R_AARCH64_ADD_ABS_LO12_NC	.rodata+0x1c94a
    d1f8:	52801521 	mov	w1, #0xa9                  	// #169
    d1fc:	90000000 	adrp	x0, ebb8 <_srodata>	d1fc: R_AARCH64_ADR_PREL_PG_HI21	.rodata+0x1c909
    d200:	91000000 	add	x0, x0, #0x0	d200: R_AARCH64_ADD_ABS_LO12_NC	.rodata+0x1c909
    d204:	94000000 	bl	2444 <__assert>	d204: R_AARCH64_CALL26	__assert
    d208:	ad40785f 	ldp	q31, q30, [x2]
    d20c:	aa0203f3 	mov	x19, x2
    d210:	aa0103f6 	mov	x22, x1
    d214:	aa0003f5 	mov	x21, x0
    d218:	910183e0 	add	x0, sp, #0x60
    d21c:	910103f7 	add	x23, sp, #0x40
    d220:	ad047bff 	stp	q31, q30, [sp, #128]
    d224:	94000000 	bl	d9cc <lib_nulloutstream>	d224: R_AARCH64_CALL26	lib_nulloutstream
    d228:	aa1703e2 	mov	x2, x23
    d22c:	ad407e7e 	ldp	q30, q31, [x19]
    d230:	aa1603e1 	mov	x1, x22
    d234:	910183e0 	add	x0, sp, #0x60
    d238:	910203f8 	add	x24, sp, #0x80
    d23c:	ad027ffe 	stp	q30, q31, [sp, #64]
    d240:	94000000 	bl	1e58 <lib_vsprintf>	d240: R_AARCH64_CALL26	lib_vsprintf
    d244:	b94063f4 	ldr	w20, [sp, #96]
    d248:	11000694 	add	w20, w20, #0x1
    d24c:	93407e94 	sxtw	x20, w20
    d250:	aa1403e0 	mov	x0, x20
    d254:	94000000 	bl	b5a8 <malloc>	d254: R_AARCH64_CALL26	malloc
    d258:	aa0003f3 	mov	x19, x0
    d25c:	b40002a0 	cbz	x0, d2b0 <vasprintf+0xdc>
    d260:	aa0003e1 	mov	x1, x0
    d264:	aa1403e2 	mov	x2, x20
    d268:	910283e0 	add	x0, sp, #0xa0
    d26c:	94000000 	bl	d930 <lib_memoutstream>	d26c: R_AARCH64_CALL26	lib_memoutstream
    d270:	ad407f1e 	ldp	q30, q31, [x24]
    d274:	aa1703e2 	mov	x2, x23
    d278:	aa1603e1 	mov	x1, x22
    d27c:	910283e0 	add	x0, sp, #0xa0
    d280:	ad027ffe 	stp	q30, q31, [sp, #64]
    d284:	94000000 	bl	1e58 <lib_vsprintf>	d284: R_AARCH64_CALL26	lib_vsprintf
    d288:	37f80100 	tbnz	w0, #31, d2a8 <vasprintf+0xd4>
    d28c:	b94063e1 	ldr	w1, [sp, #96]
    d290:	6b00003f 	cmp	w1, w0
    d294:	540001a0 	b.eq	d2c8 <vasprintf+0xf4>  // b.none
    d298:	90000002 	adrp	x2, ebb8 <_srodata>	d298: R_AARCH64_ADR_PREL_PG_HI21	.rodata+0x1c91f
    d29c:	52801b01 	mov	w1, #0xd8                  	// #216
    d2a0:	91000042 	add	x2, x2, #0x0	d2a0: R_AARCH64_ADD_ABS_LO12_NC	.rodata+0x1c91f
    d2a4:	17ffffd6 	b	d1fc <vasprintf+0x28>
    d2a8:	aa1303e0 	mov	x0, x19
    d2ac:	94000000 	bl	b598 <free>	d2ac: R_AARCH64_CALL26	free
    d2b0:	12800000 	mov	w0, #0xffffffff            	// #-1
    d2b4:	f9401bf8 	ldr	x24, [sp, #48]
    d2b8:	a94157f4 	ldp	x20, x21, [sp, #16]
    d2bc:	a9425ff6 	ldp	x22, x23, [sp, #32]
    d2c0:	a8cd4ffe 	ldp	x30, x19, [sp], #208
    d2c4:	d65f03c0 	ret
    d2c8:	f90002b3 	str	x19, [x21]
    d2cc:	17fffffa 	b	d2b4 <vasprintf+0xe0>

000000000000d2d0 <atoi>:
atoi():
    d2d0:	f81f0ffe 	str	x30, [sp, #-16]!
    d2d4:	52800142 	mov	w2, #0xa                   	// #10
    d2d8:	d2800001 	mov	x1, #0x0                   	// #0
    d2dc:	94000000 	bl	d574 <strtol>	d2dc: R_AARCH64_CALL26	strtol
    d2e0:	f84107fe 	ldr	x30, [sp], #16
    d2e4:	d65f03c0 	ret

000000000000d2e8 <itoa>:
itoa():
    d2e8:	2a0003e3 	mov	w3, w0
    d2ec:	aa0103e0 	mov	x0, x1
    d2f0:	51000841 	sub	w1, w2, #0x2
    d2f4:	7100883f 	cmp	w1, #0x22
    d2f8:	54000428 	b.hi	d37c <itoa+0x94>  // b.pmore
    d2fc:	7100007f 	cmp	w3, #0x0
    d300:	90000005 	adrp	x5, ebb8 <_srodata>	d300: R_AARCH64_ADR_PREL_PG_HI21	.rodata+0x1c955
    d304:	5a83a464 	cneg	w4, w3, lt	// lt = tstop
    d308:	aa0003e1 	mov	x1, x0
    d30c:	910000a5 	add	x5, x5, #0x0	d30c: R_AARCH64_ADD_ABS_LO12_NC	.rodata+0x1c955
    d310:	1ac20c86 	sdiv	w6, w4, w2
    d314:	1b0290c7 	msub	w7, w6, w2, w4
    d318:	2a0603e4 	mov	w4, w6
    d31c:	aa0103e6 	mov	x6, x1
    d320:	3867c8a7 	ldrb	w7, [x5, w7, sxtw]
    d324:	38001427 	strb	w7, [x1], #1
    d328:	35ffff44 	cbnz	w4, d310 <itoa+0x28>
    d32c:	36f80083 	tbz	w3, #31, d33c <itoa+0x54>
    d330:	528005a2 	mov	w2, #0x2d                  	// #45
    d334:	39000022 	strb	w2, [x1]
    d338:	910008c1 	add	x1, x6, #0x2
    d33c:	cb000022 	sub	x2, x1, x0
    d340:	52800044 	mov	w4, #0x2                   	// #2
    d344:	d2800003 	mov	x3, #0x0                   	// #0
    d348:	1ac40c44 	sdiv	w4, w2, w4
    d34c:	8b22c002 	add	x2, x0, w2, sxtw
    d350:	d1000442 	sub	x2, x2, #0x1
    d354:	6b03009f 	cmp	w4, w3
    d358:	5400006c 	b.gt	d364 <itoa+0x7c>
    d35c:	3900003f 	strb	wzr, [x1]
    d360:	d65f03c0 	ret
    d364:	38636806 	ldrb	w6, [x0, x3]
    d368:	39400045 	ldrb	w5, [x2]
    d36c:	39000046 	strb	w6, [x2]
    d370:	38236805 	strb	w5, [x0, x3]
    d374:	91000463 	add	x3, x3, #0x1
    d378:	17fffff6 	b	d350 <itoa+0x68>
    d37c:	aa0003e1 	mov	x1, x0
    d380:	17fffff7 	b	d35c <itoa+0x74>

000000000000d384 <lib_realpath>:
lib_realpath():
    d384:	a9b54ffe 	stp	x30, x19, [sp, #-176]!
    d388:	a90157f4 	stp	x20, x21, [sp, #16]
    d38c:	a9025ff6 	stp	x22, x23, [sp, #32]
    d390:	a90367f8 	stp	x24, x25, [sp, #48]
    d394:	f90023fa 	str	x26, [sp, #64]
    d398:	b5000160 	cbnz	x0, d3c4 <lib_realpath+0x40>
    d39c:	94000000 	bl	2454 <__errno>	d39c: R_AARCH64_CALL26	__errno
    d3a0:	528002c1 	mov	w1, #0x16                  	// #22
    d3a4:	b9000001 	str	w1, [x0]
    d3a8:	d2800000 	mov	x0, #0x0                   	// #0
    d3ac:	f94023fa 	ldr	x26, [sp, #64]
    d3b0:	a94157f4 	ldp	x20, x21, [sp, #16]
    d3b4:	a9425ff6 	ldp	x22, x23, [sp, #32]
    d3b8:	a94367f8 	ldp	x24, x25, [sp, #48]
    d3bc:	a8cb4ffe 	ldp	x30, x19, [sp], #176
    d3c0:	d65f03c0 	ret
    d3c4:	39400013 	ldrb	w19, [x0]
    d3c8:	aa0003f4 	mov	x20, x0
    d3cc:	35000093 	cbnz	w19, d3dc <lib_realpath+0x58>
    d3d0:	94000000 	bl	2454 <__errno>	d3d0: R_AARCH64_CALL26	__errno
    d3d4:	52800041 	mov	w1, #0x2                   	// #2
    d3d8:	17fffff3 	b	d3a4 <lib_realpath+0x20>
    d3dc:	aa0103fa 	mov	x26, x1
    d3e0:	12001c57 	and	w23, w2, #0xff
    d3e4:	b5000121 	cbnz	x1, d408 <lib_realpath+0x84>
    d3e8:	d2802000 	mov	x0, #0x100                 	// #256
    d3ec:	94000000 	bl	b5a8 <malloc>	d3ec: R_AARCH64_CALL26	malloc
    d3f0:	aa0003f6 	mov	x22, x0
    d3f4:	aa0003fa 	mov	x26, x0
    d3f8:	b50000a0 	cbnz	x0, d40c <lib_realpath+0x88>
    d3fc:	94000000 	bl	2454 <__errno>	d3fc: R_AARCH64_CALL26	__errno
    d400:	52800181 	mov	w1, #0xc                   	// #12
    d404:	17ffffe8 	b	d3a4 <lib_realpath+0x20>
    d408:	d2800016 	mov	x22, #0x0                   	// #0
    d40c:	7100be7f 	cmp	w19, #0x2f
    d410:	54000120 	b.eq	d434 <lib_realpath+0xb0>  // b.none
    d414:	aa1a03e0 	mov	x0, x26
    d418:	d2802001 	mov	x1, #0x100                 	// #256
    d41c:	94000000 	bl	dffc <getcwd>	d41c: R_AARCH64_CALL26	getcwd
    d420:	b40006e0 	cbz	x0, d4fc <lib_realpath+0x178>
    d424:	aa1a03e0 	mov	x0, x26
    d428:	94000000 	bl	940 <strlen>	d428: R_AARCH64_CALL26	strlen
    d42c:	f100041f 	cmp	x0, #0x1
    d430:	54000208 	b.hi	d470 <lib_realpath+0xec>  // b.pmore
    d434:	aa1a03f3 	mov	x19, x26
    d438:	120002f7 	and	w23, w23, #0x1
    d43c:	528005f8 	mov	w24, #0x2f                  	// #47
    d440:	39400282 	ldrb	w2, [x20]
    d444:	7100bc5f 	cmp	w2, #0x2f
    d448:	54000180 	b.eq	d478 <lib_realpath+0xf4>  // b.none
    d44c:	350001c2 	cbnz	w2, d484 <lib_realpath+0x100>
    d450:	eb13035f 	cmp	x26, x19
    d454:	54000081 	b.ne	d464 <lib_realpath+0xe0>  // b.any
    d458:	aa1a03f3 	mov	x19, x26
    d45c:	528005e0 	mov	w0, #0x2f                  	// #47
    d460:	38001660 	strb	w0, [x19], #1
    d464:	aa1a03e0 	mov	x0, x26
    d468:	3900027f 	strb	wzr, [x19]
    d46c:	17ffffd0 	b	d3ac <lib_realpath+0x28>
    d470:	8b000353 	add	x19, x26, x0
    d474:	17fffff1 	b	d438 <lib_realpath+0xb4>
    d478:	91000695 	add	x21, x20, #0x1
    d47c:	aa1503f4 	mov	x20, x21
    d480:	17fffff0 	b	d440 <lib_realpath+0xbc>
    d484:	aa1403f5 	mov	x21, x20
    d488:	aa1503f9 	mov	x25, x21
    d48c:	38401ea0 	ldrb	w0, [x21, #1]!
    d490:	7100bc1f 	cmp	w0, #0x2f
    d494:	7a401804 	ccmp	w0, #0x0, #0x4, ne	// ne = any
    d498:	54ffff81 	b.ne	d488 <lib_realpath+0x104>  // b.any
    d49c:	7100b85f 	cmp	w2, #0x2e
    d4a0:	540001c1 	b.ne	d4d8 <lib_realpath+0x154>  // b.any
    d4a4:	cb1402a0 	sub	x0, x21, x20
    d4a8:	f100041f 	cmp	x0, #0x1
    d4ac:	54fffe80 	b.eq	d47c <lib_realpath+0xf8>  // b.none
    d4b0:	39400681 	ldrb	w1, [x20, #1]
    d4b4:	7100b83f 	cmp	w1, #0x2e
    d4b8:	54000101 	b.ne	d4d8 <lib_realpath+0x154>  // b.any
    d4bc:	f100081f 	cmp	x0, #0x2
    d4c0:	540000c1 	b.ne	d4d8 <lib_realpath+0x154>  // b.any
    d4c4:	eb13035f 	cmp	x26, x19
    d4c8:	54fffda0 	b.eq	d47c <lib_realpath+0xf8>  // b.none
    d4cc:	385ffe60 	ldrb	w0, [x19, #-1]!
    d4d0:	7100bc1f 	cmp	w0, #0x2f
    d4d4:	17fffffd 	b	d4c8 <lib_realpath+0x144>
    d4d8:	cb1a0263 	sub	x3, x19, x26
    d4dc:	91000463 	add	x3, x3, #0x1
    d4e0:	8b0302a3 	add	x3, x21, x3
    d4e4:	cb140063 	sub	x3, x3, x20
    d4e8:	f103fc7f 	cmp	x3, #0xff
    d4ec:	540000ed 	b.le	d508 <lib_realpath+0x184>
    d4f0:	94000000 	bl	2454 <__errno>	d4f0: R_AARCH64_CALL26	__errno
    d4f4:	52800481 	mov	w1, #0x24                  	// #36
    d4f8:	b9000001 	str	w1, [x0]
    d4fc:	aa1603e0 	mov	x0, x22
    d500:	94000000 	bl	b598 <free>	d500: R_AARCH64_CALL26	free
    d504:	17ffffa9 	b	d3a8 <lib_realpath+0x24>
    d508:	aa1303e0 	mov	x0, x19
    d50c:	91000b39 	add	x25, x25, #0x2
    d510:	cb140339 	sub	x25, x25, x20
    d514:	cb1402a2 	sub	x2, x21, x20
    d518:	8b190273 	add	x19, x19, x25
    d51c:	aa1403e1 	mov	x1, x20
    d520:	38001418 	strb	w24, [x0], #1
    d524:	94000000 	bl	0 <memcpy>	d524: R_AARCH64_CALL26	memcpy
    d528:	3900027f 	strb	wzr, [x19]
    d52c:	35fffa97 	cbnz	w23, d47c <lib_realpath+0xf8>
    d530:	910163e1 	add	x1, sp, #0x58
    d534:	aa1a03e0 	mov	x0, x26
    d538:	94000000 	bl	e930 <lstat>	d538: R_AARCH64_CALL26	lstat
    d53c:	3100041f 	cmn	w0, #0x1
    d540:	54fffde0 	b.eq	d4fc <lib_realpath+0x178>  // b.none
    d544:	394002a0 	ldrb	w0, [x21]
    d548:	7100bc1f 	cmp	w0, #0x2f
    d54c:	54fff981 	b.ne	d47c <lib_realpath+0xf8>  // b.any
    d550:	b94063e2 	ldr	w2, [sp, #96]
    d554:	12140c42 	and	w2, w2, #0xf000
    d558:	7140105f 	cmp	w2, #0x4, lsl #12
    d55c:	54fff900 	b.eq	d47c <lib_realpath+0xf8>  // b.none
    d560:	94000000 	bl	2454 <__errno>	d560: R_AARCH64_CALL26	__errno
    d564:	52800281 	mov	w1, #0x14                  	// #20
    d568:	17ffffe4 	b	d4f8 <lib_realpath+0x174>

000000000000d56c <realpath>:
realpath():
    d56c:	52800002 	mov	w2, #0x0                   	// #0
    d570:	14000000 	b	d384 <lib_realpath>	d570: R_AARCH64_JUMP26	lib_realpath

000000000000d574 <strtol>:
strtol():
    d574:	a9bd4ffe 	stp	x30, x19, [sp, #-48]!
    d578:	a90157f4 	stp	x20, x21, [sp, #16]
    d57c:	f90017e0 	str	x0, [sp, #40]
    d580:	b4000600 	cbz	x0, d640 <strtol+0xcc>
    d584:	aa0103f3 	mov	x19, x1
    d588:	9100a3e0 	add	x0, sp, #0x28
    d58c:	2a0203f5 	mov	w21, w2
    d590:	94000000 	bl	da84 <lib_skipspace>	d590: R_AARCH64_CALL26	lib_skipspace
    d594:	f94017e0 	ldr	x0, [sp, #40]
    d598:	52800561 	mov	w1, #0x2b                  	// #43
    d59c:	39400014 	ldrb	w20, [x0]
    d5a0:	7100b69f 	cmp	w20, #0x2d
    d5a4:	7a411284 	ccmp	w20, w1, #0x4, ne	// ne = any
    d5a8:	54000201 	b.ne	d5e8 <strtol+0x74>  // b.any
    d5ac:	91000400 	add	x0, x0, #0x1
    d5b0:	f90017e0 	str	x0, [sp, #40]
    d5b4:	2a1503e2 	mov	w2, w21
    d5b8:	aa1303e1 	mov	x1, x19
    d5bc:	94000000 	bl	d648 <strtoul>	d5bc: R_AARCH64_CALL26	strtoul
    d5c0:	7100b69f 	cmp	w20, #0x2d
    d5c4:	540001e1 	b.ne	d600 <strtol+0x8c>  // b.any
    d5c8:	d2f00001 	mov	x1, #0x8000000000000000    	// #-9223372036854775808
    d5cc:	eb01001f 	cmp	x0, x1
    d5d0:	54000109 	b.ls	d5f0 <strtol+0x7c>  // b.plast
    d5d4:	94000000 	bl	2454 <__errno>	d5d4: R_AARCH64_CALL26	__errno
    d5d8:	52800441 	mov	w1, #0x22                  	// #34
    d5dc:	b9000001 	str	w1, [x0]
    d5e0:	d2f00000 	mov	x0, #0x8000000000000000    	// #-9223372036854775808
    d5e4:	14000005 	b	d5f8 <strtol+0x84>
    d5e8:	52800014 	mov	w20, #0x0                   	// #0
    d5ec:	17fffff2 	b	d5b4 <strtol+0x40>
    d5f0:	54ffff80 	b.eq	d5e0 <strtol+0x6c>  // b.none
    d5f4:	cb0003e0 	neg	x0, x0
    d5f8:	b5000133 	cbnz	x19, d61c <strtol+0xa8>
    d5fc:	1400000e 	b	d634 <strtol+0xc0>
    d600:	b6f800a0 	tbz	x0, #63, d614 <strtol+0xa0>
    d604:	94000000 	bl	2454 <__errno>	d604: R_AARCH64_CALL26	__errno
    d608:	52800441 	mov	w1, #0x22                  	// #34
    d60c:	b9000001 	str	w1, [x0]
    d610:	92f00000 	mov	x0, #0x7fffffffffffffff    	// #9223372036854775807
    d614:	b4000113 	cbz	x19, d634 <strtol+0xc0>
    d618:	340000f4 	cbz	w20, d634 <strtol+0xc0>
    d61c:	f9400261 	ldr	x1, [x19]
    d620:	385ff022 	ldurb	w2, [x1, #-1]
    d624:	6b14005f 	cmp	w2, w20
    d628:	54000061 	b.ne	d634 <strtol+0xc0>  // b.any
    d62c:	d1000421 	sub	x1, x1, #0x1
    d630:	f9000261 	str	x1, [x19]
    d634:	a94157f4 	ldp	x20, x21, [sp, #16]
    d638:	a8c34ffe 	ldp	x30, x19, [sp], #48
    d63c:	d65f03c0 	ret
    d640:	d2800000 	mov	x0, #0x0                   	// #0
    d644:	17fffffc 	b	d634 <strtol+0xc0>

000000000000d648 <strtoul>:
strtoul():
    d648:	a9b94ffe 	stp	x30, x19, [sp, #-112]!
    d64c:	a90157f4 	stp	x20, x21, [sp, #16]
    d650:	aa0103f4 	mov	x20, x1
    d654:	a9025ff6 	stp	x22, x23, [sp, #32]
    d658:	aa0003f7 	mov	x23, x0
    d65c:	a90367f8 	stp	x24, x25, [sp, #48]
    d660:	f90023fa 	str	x26, [sp, #64]
    d664:	f9002fe0 	str	x0, [sp, #88]
    d668:	12800000 	mov	w0, #0xffffffff            	// #-1
    d66c:	b9006fe0 	str	w0, [sp, #108]
    d670:	b4000ad7 	cbz	x23, d7c8 <strtoul+0x180>
    d674:	910163e0 	add	x0, sp, #0x58
    d678:	2a0203f3 	mov	w19, w2
    d67c:	94000000 	bl	da84 <lib_skipspace>	d67c: R_AARCH64_CALL26	lib_skipspace
    d680:	f9402fe1 	ldr	x1, [sp, #88]
    d684:	52800560 	mov	w0, #0x2b                  	// #43
    d688:	39400035 	ldrb	w21, [x1]
    d68c:	7100b6bf 	cmp	w21, #0x2d
    d690:	7a4012a4 	ccmp	w21, w0, #0x4, ne	// ne = any
    d694:	54000341 	b.ne	d6fc <strtoul+0xb4>  // b.any
    d698:	91000421 	add	x1, x1, #0x1
    d69c:	f9002fe1 	str	x1, [sp, #88]
    d6a0:	910163e1 	add	x1, sp, #0x58
    d6a4:	2a1303e0 	mov	w0, w19
    d6a8:	94000000 	bl	d7d4 <lib_checkbase>	d6a8: R_AARCH64_CALL26	lib_checkbase
    d6ac:	2a0003f6 	mov	w22, w0
    d6b0:	36f802a0 	tbz	w0, #31, d704 <strtoul+0xbc>
    d6b4:	94000000 	bl	2454 <__errno>	d6b4: R_AARCH64_CALL26	__errno
    d6b8:	d2800013 	mov	x19, #0x0                   	// #0
    d6bc:	528002c1 	mov	w1, #0x16                  	// #22
    d6c0:	b9000001 	str	w1, [x0]
    d6c4:	b4000614 	cbz	x20, d784 <strtoul+0x13c>
    d6c8:	340000f5 	cbz	w21, d6e4 <strtoul+0x9c>
    d6cc:	f9402fe0 	ldr	x0, [sp, #88]
    d6d0:	385ff001 	ldurb	w1, [x0, #-1]
    d6d4:	6b15003f 	cmp	w1, w21
    d6d8:	54000061 	b.ne	d6e4 <strtoul+0x9c>  // b.any
    d6dc:	d1000400 	sub	x0, x0, #0x1
    d6e0:	f9002fe0 	str	x0, [sp, #88]
    d6e4:	b9406fe0 	ldr	w0, [sp, #108]
    d6e8:	3100041f 	cmn	w0, #0x1
    d6ec:	54000040 	b.eq	d6f4 <strtoul+0xac>  // b.none
    d6f0:	f9402ff7 	ldr	x23, [sp, #88]
    d6f4:	f9000297 	str	x23, [x20]
    d6f8:	14000023 	b	d784 <strtoul+0x13c>
    d6fc:	52800015 	mov	w21, #0x0                   	// #0
    d700:	17ffffe8 	b	d6a0 <strtoul+0x58>
    d704:	93407c19 	sxtw	x25, w0
    d708:	92800018 	mov	x24, #0xffffffffffffffff    	// #-1
    d70c:	d2800013 	mov	x19, #0x0                   	// #0
    d710:	9ad90b18 	udiv	x24, x24, x25
    d714:	9b197f1a 	mul	x26, x24, x25
    d718:	2a3a03fa 	mvn	w26, w26
    d71c:	f9402fe0 	ldr	x0, [sp, #88]
    d720:	9101b3e2 	add	x2, sp, #0x6c
    d724:	2a1603e1 	mov	w1, w22
    d728:	39400000 	ldrb	w0, [x0]
    d72c:	94000000 	bl	d9f4 <lib_isbasedigit>	d72c: R_AARCH64_CALL26	lib_isbasedigit
    d730:	36000160 	tbz	w0, #0, d75c <strtoul+0x114>
    d734:	eb18027f 	cmp	x19, x24
    d738:	540000a8 	b.hi	d74c <strtoul+0x104>  // b.pmore
    d73c:	54000321 	b.ne	d7a0 <strtoul+0x158>  // b.any
    d740:	b9406fe0 	ldr	w0, [sp, #108]
    d744:	6b00035f 	cmp	w26, w0
    d748:	540002ca 	b.ge	d7a0 <strtoul+0x158>  // b.tcont
    d74c:	94000000 	bl	2454 <__errno>	d74c: R_AARCH64_CALL26	__errno
    d750:	92800013 	mov	x19, #0xffffffffffffffff    	// #-1
    d754:	52800441 	mov	w1, #0x22                  	// #34
    d758:	b9000001 	str	w1, [x0]
    d75c:	f9402fe0 	ldr	x0, [sp, #88]
    d760:	9101b3e2 	add	x2, sp, #0x6c
    d764:	2a1603e1 	mov	w1, w22
    d768:	39400000 	ldrb	w0, [x0]
    d76c:	94000000 	bl	d9f4 <lib_isbasedigit>	d76c: R_AARCH64_CALL26	lib_isbasedigit
    d770:	37000240 	tbnz	w0, #0, d7b8 <strtoul+0x170>
    d774:	7100b6bf 	cmp	w21, #0x2d
    d778:	54fffa61 	b.ne	d6c4 <strtoul+0x7c>  // b.any
    d77c:	cb1303f3 	neg	x19, x19
    d780:	b5fffa74 	cbnz	x20, d6cc <strtoul+0x84>
    d784:	f94023fa 	ldr	x26, [sp, #64]
    d788:	aa1303e0 	mov	x0, x19
    d78c:	a94157f4 	ldp	x20, x21, [sp, #16]
    d790:	a9425ff6 	ldp	x22, x23, [sp, #32]
    d794:	a94367f8 	ldp	x24, x25, [sp, #48]
    d798:	a8c74ffe 	ldp	x30, x19, [sp], #112
    d79c:	d65f03c0 	ret
    d7a0:	b9806fe0 	ldrsw	x0, [sp, #108]
    d7a4:	9b130333 	madd	x19, x25, x19, x0
    d7a8:	f9402fe0 	ldr	x0, [sp, #88]
    d7ac:	91000400 	add	x0, x0, #0x1
    d7b0:	f9002fe0 	str	x0, [sp, #88]
    d7b4:	17ffffda 	b	d71c <strtoul+0xd4>
    d7b8:	f9402fe0 	ldr	x0, [sp, #88]
    d7bc:	91000400 	add	x0, x0, #0x1
    d7c0:	f9002fe0 	str	x0, [sp, #88]
    d7c4:	17ffffe6 	b	d75c <strtoul+0x114>
    d7c8:	d2800013 	mov	x19, #0x0                   	// #0
    d7cc:	b5fff8c1 	cbnz	x1, d6e4 <strtoul+0x9c>
    d7d0:	17ffffed 	b	d784 <strtoul+0x13c>

000000000000d7d4 <lib_checkbase>:
lib_checkbase():
    d7d4:	a9be4ffe 	stp	x30, x19, [sp, #-32]!
    d7d8:	f9000bf4 	str	x20, [sp, #16]
    d7dc:	aa0103f4 	mov	x20, x1
    d7e0:	f9400033 	ldr	x19, [x1]
    d7e4:	350003c0 	cbnz	w0, d85c <lib_checkbase+0x88>
    d7e8:	39400260 	ldrb	w0, [x19]
    d7ec:	7100c01f 	cmp	w0, #0x30
    d7f0:	540002c1 	b.ne	d848 <lib_checkbase+0x74>  // b.any
    d7f4:	39400660 	ldrb	w0, [x19, #1]
    d7f8:	d2800002 	mov	x2, #0x0                   	// #0
    d7fc:	52800101 	mov	w1, #0x8                   	// #8
    d800:	94000000 	bl	d9f4 <lib_isbasedigit>	d800: R_AARCH64_CALL26	lib_isbasedigit
    d804:	360000e0 	tbz	w0, #0, d820 <lib_checkbase+0x4c>
    d808:	91000673 	add	x19, x19, #0x1
    d80c:	52800100 	mov	w0, #0x8                   	// #8
    d810:	f9000293 	str	x19, [x20]
    d814:	f9400bf4 	ldr	x20, [sp, #16]
    d818:	a8c24ffe 	ldp	x30, x19, [sp], #32
    d81c:	d65f03c0 	ret
    d820:	39400660 	ldrb	w0, [x19, #1]
    d824:	121a7800 	and	w0, w0, #0xffffffdf
    d828:	12001c00 	and	w0, w0, #0xff
    d82c:	7101601f 	cmp	w0, #0x58
    d830:	540000c1 	b.ne	d848 <lib_checkbase+0x74>  // b.any
    d834:	39400a60 	ldrb	w0, [x19, #2]
    d838:	d2800002 	mov	x2, #0x0                   	// #0
    d83c:	52800201 	mov	w1, #0x10                  	// #16
    d840:	94000000 	bl	d9f4 <lib_isbasedigit>	d840: R_AARCH64_CALL26	lib_isbasedigit
    d844:	37000060 	tbnz	w0, #0, d850 <lib_checkbase+0x7c>
    d848:	52800140 	mov	w0, #0xa                   	// #10
    d84c:	17fffff1 	b	d810 <lib_checkbase+0x3c>
    d850:	91000a73 	add	x19, x19, #0x2
    d854:	52800200 	mov	w0, #0x10                  	// #16
    d858:	17ffffee 	b	d810 <lib_checkbase+0x3c>
    d85c:	7100401f 	cmp	w0, #0x10
    d860:	54000161 	b.ne	d88c <lib_checkbase+0xb8>  // b.any
    d864:	39400261 	ldrb	w1, [x19]
    d868:	7100c03f 	cmp	w1, #0x30
    d86c:	54fffd21 	b.ne	d810 <lib_checkbase+0x3c>  // b.any
    d870:	39400662 	ldrb	w2, [x19, #1]
    d874:	121a7842 	and	w2, w2, #0xffffffdf
    d878:	12001c42 	and	w2, w2, #0xff
    d87c:	7101605f 	cmp	w2, #0x58
    d880:	54fffc81 	b.ne	d810 <lib_checkbase+0x3c>  // b.any
    d884:	91000a73 	add	x19, x19, #0x2
    d888:	17ffffe2 	b	d810 <lib_checkbase+0x3c>
    d88c:	51000801 	sub	w1, w0, #0x2
    d890:	7100603f 	cmp	w1, #0x18
    d894:	54fffbe9 	b.ls	d810 <lib_checkbase+0x3c>  // b.plast
    d898:	12800000 	mov	w0, #0xffffffff            	// #-1
    d89c:	17ffffde 	b	d814 <lib_checkbase+0x40>
    d8a0:	a9be4ffe 	stp	x30, x19, [sp, #-32]!
    d8a4:	f9000bf4 	str	x20, [sp, #16]
    d8a8:	b50000e0 	cbnz	x0, d8c4 <lib_checkbase+0xf0>
    d8ac:	90000002 	adrp	x2, ebb8 <_srodata>	d8ac: R_AARCH64_ADR_PREL_PG_HI21	.rodata+0x1c97a
    d8b0:	90000000 	adrp	x0, ebb8 <_srodata>	d8b0: R_AARCH64_ADR_PREL_PG_HI21	.rodata+0x1c97f
    d8b4:	91000042 	add	x2, x2, #0x0	d8b4: R_AARCH64_ADD_ABS_LO12_NC	.rodata+0x1c97a
    d8b8:	91000000 	add	x0, x0, #0x0	d8b8: R_AARCH64_ADD_ABS_LO12_NC	.rodata+0x1c97f
    d8bc:	528005c1 	mov	w1, #0x2e                  	// #46
    d8c0:	94000000 	bl	2444 <__assert>	d8c0: R_AARCH64_CALL26	__assert
    d8c4:	aa0003f4 	mov	x20, x0
    d8c8:	b9800000 	ldrsw	x0, [x0]
    d8cc:	f9401693 	ldr	x19, [x20, #40]
    d8d0:	cb000273 	sub	x19, x19, x0
    d8d4:	eb02027f 	cmp	x19, x2
    d8d8:	9a829273 	csel	x19, x19, x2, ls	// ls = plast
    d8dc:	b4000153 	cbz	x19, d904 <lib_checkbase+0x130>
    d8e0:	f9401283 	ldr	x3, [x20, #32]
    d8e4:	aa1303e2 	mov	x2, x19
    d8e8:	8b000060 	add	x0, x3, x0
    d8ec:	94000000 	bl	0 <memcpy>	d8ec: R_AARCH64_CALL26	memcpy
    d8f0:	b9400280 	ldr	w0, [x20]
    d8f4:	f9401281 	ldr	x1, [x20, #32]
    d8f8:	0b130000 	add	w0, w0, w19
    d8fc:	b9000280 	str	w0, [x20]
    d900:	3820c83f 	strb	wzr, [x1, w0, sxtw]
    d904:	f9400bf4 	ldr	x20, [sp, #16]
    d908:	aa1303e0 	mov	x0, x19
    d90c:	a8c24ffe 	ldp	x30, x19, [sp], #32
    d910:	d65f03c0 	ret
    d914:	f81e0ffe 	str	x30, [sp, #-32]!
    d918:	d2800022 	mov	x2, #0x1                   	// #1
    d91c:	39007fe1 	strb	w1, [sp, #31]
    d920:	91007fe1 	add	x1, sp, #0x1f
    d924:	94000000 	bl	0 <memcpy>	d924: R_AARCH64_CALL26	.text+0xd8a0
    d928:	f84207fe 	ldr	x30, [sp], #32
    d92c:	d65f03c0 	ret

000000000000d930 <lib_memoutstream>:
lib_memoutstream():
    d930:	90000003 	adrp	x3, 0 <memcpy>	d930: R_AARCH64_ADR_PREL_PG_HI21	.text+0xd914
    d934:	91000063 	add	x3, x3, #0x0	d934: R_AARCH64_ADD_ABS_LO12_NC	.text+0xd914
    d938:	d1000442 	sub	x2, x2, #0x1
    d93c:	90000004 	adrp	x4, 0 <memcpy>	d93c: R_AARCH64_ADR_PREL_PG_HI21	.text+0xd8a0
    d940:	91000084 	add	x4, x4, #0x0	d940: R_AARCH64_ADD_ABS_LO12_NC	.text+0xd8a0
    d944:	b900001f 	str	wzr, [x0]
    d948:	a9009003 	stp	x3, x4, [x0, #8]
    d94c:	90000003 	adrp	x3, 2340 <lib_noflush>	d94c: R_AARCH64_ADR_PREL_PG_HI21	lib_noflush
    d950:	91000063 	add	x3, x3, #0x0	d950: R_AARCH64_ADD_ABS_LO12_NC	lib_noflush
    d954:	a9018403 	stp	x3, x1, [x0, #24]
    d958:	f9001402 	str	x2, [x0, #40]
    d95c:	3900003f 	strb	wzr, [x1]
    d960:	d65f03c0 	ret
    d964:	aa0003e1 	mov	x1, x0
    d968:	b5000100 	cbnz	x0, d988 <lib_memoutstream+0x58>
    d96c:	f81f0ffe 	str	x30, [sp, #-16]!
    d970:	90000002 	adrp	x2, ebb8 <_srodata>	d970: R_AARCH64_ADR_PREL_PG_HI21	.rodata+0x1c999
    d974:	90000000 	adrp	x0, ebb8 <_srodata>	d974: R_AARCH64_ADR_PREL_PG_HI21	.rodata+0x1c99e
    d978:	91000042 	add	x2, x2, #0x0	d978: R_AARCH64_ADD_ABS_LO12_NC	.rodata+0x1c999
    d97c:	91000000 	add	x0, x0, #0x0	d97c: R_AARCH64_ADD_ABS_LO12_NC	.rodata+0x1c99e
    d980:	52800621 	mov	w1, #0x31                  	// #49
    d984:	94000000 	bl	2444 <__assert>	d984: R_AARCH64_CALL26	__assert
    d988:	aa0203e0 	mov	x0, x2
    d98c:	b9400022 	ldr	w2, [x1]
    d990:	0b000042 	add	w2, w2, w0
    d994:	b9000022 	str	w2, [x1]
    d998:	d65f03c0 	ret
    d99c:	b5000100 	cbnz	x0, d9bc <lib_memoutstream+0x8c>
    d9a0:	f81f0ffe 	str	x30, [sp, #-16]!
    d9a4:	90000002 	adrp	x2, ebb8 <_srodata>	d9a4: R_AARCH64_ADR_PREL_PG_HI21	.rodata+0x1c999
    d9a8:	90000000 	adrp	x0, ebb8 <_srodata>	d9a8: R_AARCH64_ADR_PREL_PG_HI21	.rodata+0x1c99e
    d9ac:	91000042 	add	x2, x2, #0x0	d9ac: R_AARCH64_ADD_ABS_LO12_NC	.rodata+0x1c999
    d9b0:	91000000 	add	x0, x0, #0x0	d9b0: R_AARCH64_ADD_ABS_LO12_NC	.rodata+0x1c99e
    d9b4:	52800501 	mov	w1, #0x28                  	// #40
    d9b8:	94000000 	bl	2444 <__assert>	d9b8: R_AARCH64_CALL26	__assert
    d9bc:	b9400001 	ldr	w1, [x0]
    d9c0:	11000421 	add	w1, w1, #0x1
    d9c4:	b9000001 	str	w1, [x0]
    d9c8:	d65f03c0 	ret

000000000000d9cc <lib_nulloutstream>:
lib_nulloutstream():
    d9cc:	90000001 	adrp	x1, 0 <memcpy>	d9cc: R_AARCH64_ADR_PREL_PG_HI21	.text+0xd99c
    d9d0:	91000021 	add	x1, x1, #0x0	d9d0: R_AARCH64_ADD_ABS_LO12_NC	.text+0xd99c
    d9d4:	90000002 	adrp	x2, 0 <memcpy>	d9d4: R_AARCH64_ADR_PREL_PG_HI21	.text+0xd964
    d9d8:	91000042 	add	x2, x2, #0x0	d9d8: R_AARCH64_ADD_ABS_LO12_NC	.text+0xd964
    d9dc:	b900001f 	str	wzr, [x0]
    d9e0:	a9008801 	stp	x1, x2, [x0, #8]
    d9e4:	90000001 	adrp	x1, 2340 <lib_noflush>	d9e4: R_AARCH64_ADR_PREL_PG_HI21	lib_noflush
    d9e8:	91000021 	add	x1, x1, #0x0	d9e8: R_AARCH64_ADD_ABS_LO12_NC	lib_noflush
    d9ec:	f9000c01 	str	x1, [x0, #24]
    d9f0:	d65f03c0 	ret

000000000000d9f4 <lib_isbasedigit>:
lib_isbasedigit():
    d9f4:	7100283f 	cmp	w1, #0xa
    d9f8:	540001ac 	b.gt	da2c <lib_isbasedigit+0x38>
    d9fc:	7100bc1f 	cmp	w0, #0x2f
    da00:	540003cd 	b.le	da78 <lib_isbasedigit+0x84>
    da04:	1100bc21 	add	w1, w1, #0x2f
    da08:	6b00003f 	cmp	w1, w0
    da0c:	5400036b 	b.lt	da78 <lib_isbasedigit+0x84>  // b.tstop
    da10:	5100c001 	sub	w1, w0, #0x30
    da14:	52800020 	mov	w0, #0x1                   	// #1
    da18:	f100005f 	cmp	x2, #0x0
    da1c:	7a401804 	ccmp	w0, #0x0, #0x4, ne	// ne = any
    da20:	54000040 	b.eq	da28 <lib_isbasedigit+0x34>  // b.none
    da24:	b9000041 	str	w1, [x2]
    da28:	d65f03c0 	ret
    da2c:	7100903f 	cmp	w1, #0x24
    da30:	5400024c 	b.gt	da78 <lib_isbasedigit+0x84>
    da34:	5100c003 	sub	w3, w0, #0x30
    da38:	7100247f 	cmp	w3, #0x9
    da3c:	54fffea9 	b.ls	da10 <lib_isbasedigit+0x1c>  // b.plast
    da40:	7101801f 	cmp	w0, #0x60
    da44:	540000cd 	b.le	da5c <lib_isbasedigit+0x68>
    da48:	11015821 	add	w1, w1, #0x56
    da4c:	6b00003f 	cmp	w1, w0
    da50:	5400014b 	b.lt	da78 <lib_isbasedigit+0x84>  // b.tstop
    da54:	51015c01 	sub	w1, w0, #0x57
    da58:	17ffffef 	b	da14 <lib_isbasedigit+0x20>
    da5c:	7101001f 	cmp	w0, #0x40
    da60:	540000cd 	b.le	da78 <lib_isbasedigit+0x84>
    da64:	1100d821 	add	w1, w1, #0x36
    da68:	6b00003f 	cmp	w1, w0
    da6c:	5400006b 	b.lt	da78 <lib_isbasedigit+0x84>  // b.tstop
    da70:	5100dc01 	sub	w1, w0, #0x37
    da74:	17ffffe8 	b	da14 <lib_isbasedigit+0x20>
    da78:	52800001 	mov	w1, #0x0                   	// #0
    da7c:	52800000 	mov	w0, #0x0                   	// #0
    da80:	17ffffe6 	b	da18 <lib_isbasedigit+0x24>

000000000000da84 <lib_skipspace>:
lib_skipspace():
    da84:	a9be4ffe 	stp	x30, x19, [sp, #-32]!
    da88:	aa0003f3 	mov	x19, x0
    da8c:	f9000bf4 	str	x20, [sp, #16]
    da90:	f9400014 	ldr	x20, [x0]
    da94:	39400280 	ldrb	w0, [x20]
    da98:	94000000 	bl	ca48 <isspace>	da98: R_AARCH64_CALL26	isspace
    da9c:	350000a0 	cbnz	w0, dab0 <lib_skipspace+0x2c>
    daa0:	f9000274 	str	x20, [x19]
    daa4:	f9400bf4 	ldr	x20, [sp, #16]
    daa8:	a8c24ffe 	ldp	x30, x19, [sp], #32
    daac:	d65f03c0 	ret
    dab0:	91000694 	add	x20, x20, #0x1
    dab4:	17fffff8 	b	da94 <lib_skipspace+0x10>

000000000000dab8 <strcspn>:
strcspn():
    dab8:	a9be4ffe 	stp	x30, x19, [sp, #-32]!
    dabc:	d2800013 	mov	x19, #0x0                   	// #0
    dac0:	a90157f4 	stp	x20, x21, [sp, #16]
    dac4:	aa0003f5 	mov	x21, x0
    dac8:	aa0103f4 	mov	x20, x1
    dacc:	38736aa1 	ldrb	w1, [x21, x19]
    dad0:	34000081 	cbz	w1, dae0 <strcspn+0x28>
    dad4:	aa1403e0 	mov	x0, x20
    dad8:	94000000 	bl	59c <strchr>	dad8: R_AARCH64_CALL26	strchr
    dadc:	b40000a0 	cbz	x0, daf0 <strcspn+0x38>
    dae0:	aa1303e0 	mov	x0, x19
    dae4:	a94157f4 	ldp	x20, x21, [sp, #16]
    dae8:	a8c24ffe 	ldp	x30, x19, [sp], #32
    daec:	d65f03c0 	ret
    daf0:	91000673 	add	x19, x19, #0x1
    daf4:	17fffff6 	b	dacc <strcspn+0x14>

000000000000daf8 <strdup>:
strdup():
    daf8:	a9be4ffe 	stp	x30, x19, [sp, #-32]!
    dafc:	a90157f4 	stp	x20, x21, [sp, #16]
    db00:	aa0003f5 	mov	x21, x0
    db04:	94000000 	bl	940 <strlen>	db04: R_AARCH64_CALL26	strlen
    db08:	91000414 	add	x20, x0, #0x1
    db0c:	aa1403e0 	mov	x0, x20
    db10:	94000000 	bl	b5a8 <malloc>	db10: R_AARCH64_CALL26	malloc
    db14:	aa0003f3 	mov	x19, x0
    db18:	b4000080 	cbz	x0, db28 <strdup+0x30>
    db1c:	aa1403e2 	mov	x2, x20
    db20:	aa1503e1 	mov	x1, x21
    db24:	94000000 	bl	0 <memcpy>	db24: R_AARCH64_CALL26	memcpy
    db28:	aa1303e0 	mov	x0, x19
    db2c:	a94157f4 	ldp	x20, x21, [sp, #16]
    db30:	a8c24ffe 	ldp	x30, x19, [sp], #32
    db34:	d65f03c0 	ret

000000000000db38 <nx_strdup>:
nx_strdup():
    db38:	a9be4ffe 	stp	x30, x19, [sp, #-32]!
    db3c:	a90157f4 	stp	x20, x21, [sp, #16]
    db40:	aa0003f5 	mov	x21, x0
    db44:	94000000 	bl	940 <strlen>	db44: R_AARCH64_CALL26	strlen
    db48:	91000414 	add	x20, x0, #0x1
    db4c:	aa1403e0 	mov	x0, x20
    db50:	94000000 	bl	b5a8 <malloc>	db50: R_AARCH64_CALL26	malloc
    db54:	aa0003f3 	mov	x19, x0
    db58:	b4000080 	cbz	x0, db68 <nx_strdup+0x30>
    db5c:	aa1403e2 	mov	x2, x20
    db60:	aa1503e1 	mov	x1, x21
    db64:	94000000 	bl	dc70 <strlcpy>	db64: R_AARCH64_CALL26	strlcpy
    db68:	aa1303e0 	mov	x0, x19
    db6c:	a94157f4 	ldp	x20, x21, [sp, #16]
    db70:	a8c24ffe 	ldp	x30, x19, [sp], #32
    db74:	d65f03c0 	ret

000000000000db78 <strstr>:
strstr():
    db78:	a9bd4ffe 	stp	x30, x19, [sp, #-48]!
    db7c:	aa0003f3 	mov	x19, x0
    db80:	a90157f4 	stp	x20, x21, [sp, #16]
    db84:	f90013f6 	str	x22, [sp, #32]
    db88:	39400036 	ldrb	w22, [x1]
    db8c:	340002b6 	cbz	w22, dbe0 <strstr+0x68>
    db90:	aa0103f4 	mov	x20, x1
    db94:	aa0103e0 	mov	x0, x1
    db98:	94000000 	bl	940 <strlen>	db98: R_AARCH64_CALL26	strlen
    db9c:	aa0003f5 	mov	x21, x0
    dba0:	aa1303e0 	mov	x0, x19
    dba4:	2a1603e1 	mov	w1, w22
    dba8:	94000000 	bl	59c <strchr>	dba8: R_AARCH64_CALL26	strchr
    dbac:	aa0003f3 	mov	x19, x0
    dbb0:	b4000180 	cbz	x0, dbe0 <strstr+0x68>
    dbb4:	94000000 	bl	940 <strlen>	dbb4: R_AARCH64_CALL26	strlen
    dbb8:	eb15001f 	cmp	x0, x21
    dbbc:	54000103 	b.cc	dbdc <strstr+0x64>  // b.lo, b.ul, b.last
    dbc0:	aa1503e2 	mov	x2, x21
    dbc4:	aa1403e1 	mov	x1, x20
    dbc8:	aa1303e0 	mov	x0, x19
    dbcc:	94000000 	bl	a9c <strncmp>	dbcc: R_AARCH64_CALL26	strncmp
    dbd0:	34000080 	cbz	w0, dbe0 <strstr+0x68>
    dbd4:	91000673 	add	x19, x19, #0x1
    dbd8:	17fffff2 	b	dba0 <strstr+0x28>
    dbdc:	d2800013 	mov	x19, #0x0                   	// #0
    dbe0:	f94013f6 	ldr	x22, [sp, #32]
    dbe4:	aa1303e0 	mov	x0, x19
    dbe8:	a94157f4 	ldp	x20, x21, [sp, #16]
    dbec:	a8c34ffe 	ldp	x30, x19, [sp], #48
    dbf0:	d65f03c0 	ret

000000000000dbf4 <strlcat>:
strlcat():
    dbf4:	a9bf4ffe 	stp	x30, x19, [sp, #-16]!
    dbf8:	aa0003f3 	mov	x19, x0
    dbfc:	8b020264 	add	x4, x19, x2
    dc00:	aa0103e0 	mov	x0, x1
    dc04:	aa1303e3 	mov	x3, x19
    dc08:	eb04007f 	cmp	x3, x4
    dc0c:	54000101 	b.ne	dc2c <strlcat+0x38>  // b.any
    dc10:	cb130073 	sub	x19, x3, x19
    dc14:	eb130042 	subs	x2, x2, x19
    dc18:	54000121 	b.ne	dc3c <strlcat+0x48>  // b.any
    dc1c:	94000000 	bl	940 <strlen>	dc1c: R_AARCH64_CALL26	strlen
    dc20:	8b130000 	add	x0, x0, x19
    dc24:	a8c14ffe 	ldp	x30, x19, [sp], #16
    dc28:	d65f03c0 	ret
    dc2c:	39400061 	ldrb	w1, [x3]
    dc30:	34ffff01 	cbz	w1, dc10 <strlcat+0x1c>
    dc34:	91000463 	add	x3, x3, #0x1
    dc38:	17fffff4 	b	dc08 <strlcat+0x14>
    dc3c:	d1000442 	sub	x2, x2, #0x1
    dc40:	aa0003e4 	mov	x4, x0
    dc44:	39400081 	ldrb	w1, [x4]
    dc48:	350000a1 	cbnz	w1, dc5c <strlcat+0x68>
    dc4c:	cb000084 	sub	x4, x4, x0
    dc50:	3900007f 	strb	wzr, [x3]
    dc54:	8b130080 	add	x0, x4, x19
    dc58:	17fffff3 	b	dc24 <strlcat+0x30>
    dc5c:	b4000062 	cbz	x2, dc68 <strlcat+0x74>
    dc60:	d1000442 	sub	x2, x2, #0x1
    dc64:	38001461 	strb	w1, [x3], #1
    dc68:	91000484 	add	x4, x4, #0x1
    dc6c:	17fffff6 	b	dc44 <strlcat+0x50>

000000000000dc70 <strlcpy>:
strlcpy():
    dc70:	aa0103e3 	mov	x3, x1
    dc74:	b5000142 	cbnz	x2, dc9c <strlcpy+0x2c>
    dc78:	38401460 	ldrb	w0, [x3], #1
    dc7c:	35ffffe0 	cbnz	w0, dc78 <strlcpy+0x8>
    dc80:	14000004 	b	dc90 <strlcpy+0x20>
    dc84:	38401464 	ldrb	w4, [x3], #1
    dc88:	38001404 	strb	w4, [x0], #1
    dc8c:	35000084 	cbnz	w4, dc9c <strlcpy+0x2c>
    dc90:	cb010060 	sub	x0, x3, x1
    dc94:	d1000400 	sub	x0, x0, #0x1
    dc98:	d65f03c0 	ret
    dc9c:	f1000442 	subs	x2, x2, #0x1
    dca0:	54ffff21 	b.ne	dc84 <strlcpy+0x14>  // b.any
    dca4:	3900001f 	strb	wzr, [x0]
    dca8:	17fffff4 	b	dc78 <strlcpy+0x8>

000000000000dcac <strcat>:
strcat():
    dcac:	a9be4ffe 	stp	x30, x19, [sp, #-32]!
    dcb0:	aa0003f3 	mov	x19, x0
    dcb4:	f9000bf4 	str	x20, [sp, #16]
    dcb8:	aa0103f4 	mov	x20, x1
    dcbc:	94000000 	bl	940 <strlen>	dcbc: R_AARCH64_CALL26	strlen
    dcc0:	8b000260 	add	x0, x19, x0
    dcc4:	d2800002 	mov	x2, #0x0                   	// #0
    dcc8:	38626a81 	ldrb	w1, [x20, x2]
    dccc:	350000c1 	cbnz	w1, dce4 <strcat+0x38>
    dcd0:	3822681f 	strb	wzr, [x0, x2]
    dcd4:	aa1303e0 	mov	x0, x19
    dcd8:	f9400bf4 	ldr	x20, [sp, #16]
    dcdc:	a8c24ffe 	ldp	x30, x19, [sp], #32
    dce0:	d65f03c0 	ret
    dce4:	38226801 	strb	w1, [x0, x2]
    dce8:	91000442 	add	x2, x2, #0x1
    dcec:	17fffff7 	b	dcc8 <strcat+0x1c>

000000000000dcf0 <vsyslog>:
vsyslog():
    dcf0:	aa0203e3 	mov	x3, x2
    dcf4:	90000002 	adrp	x2, 29c <memcmp+0x1c>	dcf4: R_AARCH64_ADR_PREL_PG_HI21	g_syslog_mask
    dcf8:	39400042 	ldrb	w2, [x2]	dcf8: R_AARCH64_LDST8_ABS_LO12_NC	g_syslog_mask
    dcfc:	1ac02842 	asr	w2, w2, w0
    dd00:	36000102 	tbz	w2, #0, dd20 <vsyslog+0x30>
    dd04:	f81d0ffe 	str	x30, [sp, #-48]!
    dd08:	ad40787f 	ldp	q31, q30, [x3]
    dd0c:	910043e2 	add	x2, sp, #0x10
    dd10:	ad00785f 	stp	q31, q30, [x2]
    dd14:	94000000 	bl	e99c <nx_vsyslog>	dd14: R_AARCH64_CALL26	nx_vsyslog
    dd18:	f84307fe 	ldr	x30, [sp], #48
    dd1c:	d65f03c0 	ret
    dd20:	d65f03c0 	ret

000000000000dd24 <syslog>:
syslog():
    dd24:	d10403ff 	sub	sp, sp, #0x100
    dd28:	a90d0fe2 	stp	x2, x3, [sp, #208]
    dd2c:	910403e2 	add	x2, sp, #0x100
    dd30:	a9030be2 	stp	x2, x2, [sp, #48]
    dd34:	910343e2 	add	x2, sp, #0xd0
    dd38:	3dc00fff 	ldr	q31, [sp, #48]
    dd3c:	f90023e2 	str	x2, [sp, #64]
    dd40:	128005e2 	mov	w2, #0xffffffd0            	// #-48
    dd44:	b9004be2 	str	w2, [sp, #72]
    dd48:	12800fe2 	mov	w2, #0xffffff80            	// #-128
    dd4c:	b9004fe2 	str	w2, [sp, #76]
    dd50:	3d8007ff 	str	q31, [sp, #16]
    dd54:	910043e2 	add	x2, sp, #0x10
    dd58:	3dc013ff 	ldr	q31, [sp, #64]
    dd5c:	f90003fe 	str	x30, [sp]
    dd60:	ad0287e0 	stp	q0, q1, [sp, #80]
    dd64:	3d800bff 	str	q31, [sp, #32]
    dd68:	ad038fe2 	stp	q2, q3, [sp, #112]
    dd6c:	ad0497e4 	stp	q4, q5, [sp, #144]
    dd70:	ad059fe6 	stp	q6, q7, [sp, #176]
    dd74:	a90e17e4 	stp	x4, x5, [sp, #224]
    dd78:	a90f1fe6 	stp	x6, x7, [sp, #240]
    dd7c:	94000000 	bl	dcf0 <vsyslog>	dd7c: R_AARCH64_CALL26	vsyslog
    dd80:	f94003fe 	ldr	x30, [sp]
    dd84:	910403ff 	add	sp, sp, #0x100
    dd88:	d65f03c0 	ret

000000000000dd8c <setlogmask>:
setlogmask():
    dd8c:	90000001 	adrp	x1, 29c <memcmp+0x1c>	dd8c: R_AARCH64_ADR_PREL_PG_HI21	g_syslog_mask
    dd90:	2a0003e2 	mov	w2, w0
    dd94:	39400020 	ldrb	w0, [x1]	dd94: R_AARCH64_LDST8_ABS_LO12_NC	g_syslog_mask
    dd98:	39000022 	strb	w2, [x1]	dd98: R_AARCH64_LDST8_ABS_LO12_NC	g_syslog_mask
    dd9c:	d65f03c0 	ret

000000000000dda0 <isatty>:
isatty():
    dda0:	f81c0ffe 	str	x30, [sp, #-64]!
    dda4:	910063e1 	add	x1, sp, #0x18
    dda8:	94000000 	bl	ddbc <tcgetattr>	dda8: R_AARCH64_CALL26	tcgetattr
    ddac:	2a2003e0 	mvn	w0, w0
    ddb0:	f84407fe 	ldr	x30, [sp], #64
    ddb4:	531f7c00 	lsr	w0, w0, #31
    ddb8:	d65f03c0 	ret

000000000000ddbc <tcgetattr>:
tcgetattr():
    ddbc:	aa0103e2 	mov	x2, x1
    ddc0:	52802021 	mov	w1, #0x101                 	// #257
    ddc4:	14000000 	b	e8ac <ioctl>	ddc4: R_AARCH64_JUMP26	ioctl

000000000000ddc8 <tcsetattr>:
tcsetattr():
    ddc8:	a9be4ffe 	stp	x30, x19, [sp, #-32]!
    ddcc:	2a0003f3 	mov	w19, w0
    ddd0:	a90157f4 	stp	x20, x21, [sp, #16]
    ddd4:	aa0203f5 	mov	x21, x2
    ddd8:	34000101 	cbz	w1, ddf8 <tcsetattr+0x30>
    dddc:	2a0103f4 	mov	w20, w1
    dde0:	94000000 	bl	e338 <tcdrain>	dde0: R_AARCH64_CALL26	tcdrain
    dde4:	71000a9f 	cmp	w20, #0x2
    dde8:	54000081 	b.ne	ddf8 <tcsetattr+0x30>  // b.any
    ddec:	2a1303e0 	mov	w0, w19
    ddf0:	52800001 	mov	w1, #0x0                   	// #0
    ddf4:	94000000 	bl	e32c <tcflush>	ddf4: R_AARCH64_CALL26	tcflush
    ddf8:	aa1503e2 	mov	x2, x21
    ddfc:	2a1303e0 	mov	w0, w19
    de00:	a94157f4 	ldp	x20, x21, [sp, #16]
    de04:	52802041 	mov	w1, #0x102                 	// #258
    de08:	a8c24ffe 	ldp	x30, x19, [sp], #32
    de0c:	14000000 	b	e8ac <ioctl>	de0c: R_AARCH64_JUMP26	ioctl

000000000000de10 <time>:
time():
    de10:	a9be4ffe 	stp	x30, x19, [sp, #-32]!
    de14:	aa0003f3 	mov	x19, x0
    de18:	52800000 	mov	w0, #0x0                   	// #0
    de1c:	910043e1 	add	x1, sp, #0x10
    de20:	94000000 	bl	2ed4 <clock_gettime>	de20: R_AARCH64_CALL26	clock_gettime
    de24:	350000c0 	cbnz	w0, de3c <time+0x2c>
    de28:	f9400be0 	ldr	x0, [sp, #16]
    de2c:	b4000053 	cbz	x19, de34 <time+0x24>
    de30:	f9000260 	str	x0, [x19]
    de34:	a8c24ffe 	ldp	x30, x19, [sp], #32
    de38:	d65f03c0 	ret
    de3c:	92800000 	mov	x0, #0xffffffffffffffff    	// #-1
    de40:	17fffffd 	b	de34 <time+0x24>

000000000000de44 <gmtime>:
gmtime():
    de44:	90000001 	adrp	x1, 2c8 <memcmp+0x48>	de44: R_AARCH64_ADR_PREL_PG_HI21	.bss+0x510
    de48:	91000021 	add	x1, x1, #0x0	de48: R_AARCH64_ADD_ABS_LO12_NC	.bss+0x510
    de4c:	14000000 	b	de54 <gmtime_r>	de4c: R_AARCH64_JUMP26	gmtime_r

000000000000de50 <localtime>:
localtime():
    de50:	14000000 	b	de44 <gmtime>	de50: R_AARCH64_JUMP26	gmtime

000000000000de54 <gmtime_r>:
gmtime_r():
    de54:	a9b94ffe 	stp	x30, x19, [sp, #-112]!
    de58:	a90157f4 	stp	x20, x21, [sp, #16]
    de5c:	aa0103f5 	mov	x21, x1
    de60:	a9025ff6 	stp	x22, x23, [sp, #32]
    de64:	d281c216 	mov	x22, #0xe10                 	// #3600
    de68:	a90367f8 	stp	x24, x25, [sp, #48]
    de6c:	a9046ffa 	stp	x26, x27, [sp, #64]
    de70:	f9002bfc 	str	x28, [sp, #80]
    de74:	f9400013 	ldr	x19, [x0]
    de78:	d28a3000 	mov	x0, #0x5180                	// #20864
    de7c:	f2a00020 	movk	x0, #0x1, lsl #16
    de80:	9ac00a74 	udiv	x20, x19, x0
    de84:	9b00ce80 	msub	x0, x20, x0, x19
    de88:	9ad60818 	udiv	x24, x0, x22
    de8c:	9b368316 	smsubl	x22, w24, w22, x0
    de90:	d2800780 	mov	x0, #0x3c                  	// #60
    de94:	9ac00ad7 	udiv	x23, x22, x0
    de98:	1b177c00 	mul	w0, w0, w23
    de9c:	cb20c2d6 	sub	x22, x22, w0, sxtw
    dea0:	d283f000 	mov	x0, #0x1f80                	// #8064
    dea4:	f2a0f0c0 	movk	x0, #0x786, lsl #16
    dea8:	9ac00a73 	udiv	x19, x19, x0
    deac:	5280b6a0 	mov	w0, #0x5b5                 	// #1461
    deb0:	1b137c00 	mul	w0, w0, w19
    deb4:	531e7673 	lsl	w19, w19, #2
    deb8:	cb20c294 	sub	x20, x20, w0, sxtw
    debc:	111eca60 	add	w0, w19, #0x7b2
    dec0:	94000000 	bl	e360 <clock_isleapyear>	dec0: R_AARCH64_CALL26	clock_isleapyear
    dec4:	34000740 	cbz	w0, dfac <gmtime_r+0x158>
    dec8:	5280003b 	mov	w27, #0x1                   	// #1
    decc:	52802dc0 	mov	w0, #0x16e                 	// #366
    ded0:	93407c01 	sxtw	x1, w0
    ded4:	eb20429f 	cmp	x20, w0, uxtw
    ded8:	54000702 	b.cs	dfb8 <gmtime_r+0x164>  // b.hs, b.nlast
    dedc:	111eca7a 	add	w26, w19, #0x7b2
    dee0:	52800162 	mov	w2, #0xb                   	// #11
    dee4:	52800019 	mov	w25, #0x0                   	// #0
    dee8:	0b02033c 	add	w28, w25, w2
    deec:	2a1b03e1 	mov	w1, w27
    def0:	13017f9c 	asr	w28, w28, #1
    def4:	11000783 	add	w3, w28, #0x1
    def8:	290d0be3 	stp	w3, w2, [sp, #104]
    defc:	2a0303e0 	mov	w0, w3
    df00:	94000000 	bl	e344 <clock_daysbeforemonth>	df00: R_AARCH64_CALL26	clock_daysbeforemonth
    df04:	eb20c29f 	cmp	x20, w0, sxtw
    df08:	294d0be3 	ldp	w3, w2, [sp, #104]
    df0c:	540006e2 	b.cs	dfe8 <gmtime_r+0x194>  // b.hs, b.nlast
    df10:	2a1b03e1 	mov	w1, w27
    df14:	2a1c03e0 	mov	w0, w28
    df18:	94000000 	bl	e344 <clock_daysbeforemonth>	df18: R_AARCH64_CALL26	clock_daysbeforemonth
    df1c:	eb20c29f 	cmp	x20, w0, sxtw
    df20:	54000682 	b.cs	dff0 <gmtime_r+0x19c>  // b.hs, b.nlast
    df24:	51000782 	sub	w2, w28, #0x1
    df28:	6b02033f 	cmp	w25, w2
    df2c:	54fffdeb 	b.lt	dee8 <gmtime_r+0x94>  // b.tstop
    df30:	2a1b03e1 	mov	w1, w27
    df34:	2a1903e0 	mov	w0, w25
    df38:	94000000 	bl	e344 <clock_daysbeforemonth>	df38: R_AARCH64_CALL26	clock_daysbeforemonth
    df3c:	cb20c294 	sub	x20, x20, w0, sxtw
    df40:	11000680 	add	w0, w20, #0x1
    df44:	11011a73 	add	w19, w19, #0x46
    df48:	29005eb6 	stp	w22, w23, [x21]
    df4c:	2a1a03e2 	mov	w2, w26
    df50:	290102b8 	stp	w24, w0, [x21, #8]
    df54:	11000721 	add	w1, w25, #0x1
    df58:	29024eb9 	stp	w25, w19, [x21, #16]
    df5c:	94000000 	bl	e398 <clock_dayoftheweek>	df5c: R_AARCH64_CALL26	clock_dayoftheweek
    df60:	b9001aa0 	str	w0, [x21, #24]
    df64:	b94012b3 	ldr	w19, [x21, #16]
    df68:	2a1a03e0 	mov	w0, w26
    df6c:	94000000 	bl	e360 <clock_isleapyear>	df6c: R_AARCH64_CALL26	clock_isleapyear
    df70:	7100001f 	cmp	w0, #0x0
    df74:	1a9f07e1 	cset	w1, ne	// ne = any
    df78:	2a1303e0 	mov	w0, w19
    df7c:	94000000 	bl	e344 <clock_daysbeforemonth>	df7c: R_AARCH64_CALL26	clock_daysbeforemonth
    df80:	0b140000 	add	w0, w0, w20
    df84:	2903fea0 	stp	w0, wzr, [x21, #28]
    df88:	aa1503e0 	mov	x0, x21
    df8c:	a902febf 	stp	xzr, xzr, [x21, #40]
    df90:	f9402bfc 	ldr	x28, [sp, #80]
    df94:	a94157f4 	ldp	x20, x21, [sp, #16]
    df98:	a9425ff6 	ldp	x22, x23, [sp, #32]
    df9c:	a94367f8 	ldp	x24, x25, [sp, #48]
    dfa0:	a9446ffa 	ldp	x26, x27, [sp, #64]
    dfa4:	a8c74ffe 	ldp	x30, x19, [sp], #112
    dfa8:	d65f03c0 	ret
    dfac:	5280001b 	mov	w27, #0x0                   	// #0
    dfb0:	52802da0 	mov	w0, #0x16d                 	// #365
    dfb4:	17ffffc7 	b	ded0 <gmtime_r+0x7c>
    dfb8:	11000679 	add	w25, w19, #0x1
    dfbc:	cb010294 	sub	x20, x20, x1
    dfc0:	111ece60 	add	w0, w19, #0x7b3
    dfc4:	94000000 	bl	e360 <clock_isleapyear>	dfc4: R_AARCH64_CALL26	clock_isleapyear
    dfc8:	340000a0 	cbz	w0, dfdc <gmtime_r+0x188>
    dfcc:	5280003b 	mov	w27, #0x1                   	// #1
    dfd0:	52802dc0 	mov	w0, #0x16e                 	// #366
    dfd4:	2a1903f3 	mov	w19, w25
    dfd8:	17ffffbe 	b	ded0 <gmtime_r+0x7c>
    dfdc:	5280001b 	mov	w27, #0x0                   	// #0
    dfe0:	52802da0 	mov	w0, #0x16d                 	// #365
    dfe4:	17fffffc 	b	dfd4 <gmtime_r+0x180>
    dfe8:	2a0303f9 	mov	w25, w3
    dfec:	17ffffcf 	b	df28 <gmtime_r+0xd4>
    dff0:	2a1c03f9 	mov	w25, w28
    dff4:	17ffffcf 	b	df30 <gmtime_r+0xdc>

000000000000dff8 <localtime_r>:
localtime_r():
    dff8:	14000000 	b	de54 <gmtime_r>	dff8: R_AARCH64_JUMP26	gmtime_r

000000000000dffc <getcwd>:
getcwd():
    dffc:	a9be4ffe 	stp	x30, x19, [sp, #-32]!
    e000:	f100001f 	cmp	x0, #0x0
    e004:	fa401820 	ccmp	x1, #0x0, #0x0, ne	// ne = any
    e008:	a90157f4 	stp	x20, x21, [sp, #16]
    e00c:	54000121 	b.ne	e030 <getcwd+0x34>  // b.any
    e010:	94000000 	bl	2454 <__errno>	e010: R_AARCH64_CALL26	__errno
    e014:	528002c1 	mov	w1, #0x16                  	// #22
    e018:	d2800013 	mov	x19, #0x0                   	// #0
    e01c:	b9000001 	str	w1, [x0]
    e020:	aa1303e0 	mov	x0, x19
    e024:	a94157f4 	ldp	x20, x21, [sp, #16]
    e028:	a8c24ffe 	ldp	x30, x19, [sp], #32
    e02c:	d65f03c0 	ret
    e030:	f100003f 	cmp	x1, #0x0
    e034:	aa0003f3 	mov	x19, x0
    e038:	d2802020 	mov	x0, #0x101                 	// #257
    e03c:	9a801034 	csel	x20, x1, x0, ne	// ne = any
    e040:	90000000 	adrp	x0, ebb8 <_srodata>	e040: R_AARCH64_ADR_PREL_PG_HI21	.rodata+0x1c9bb
    e044:	91000000 	add	x0, x0, #0x0	e044: R_AARCH64_ADD_ABS_LO12_NC	.rodata+0x1c9bb
    e048:	94000000 	bl	e860 <getenv>	e048: R_AARCH64_CALL26	getenv
    e04c:	aa0003f5 	mov	x21, x0
    e050:	b5000060 	cbnz	x0, e05c <getcwd+0x60>
    e054:	90000015 	adrp	x21, ebb8 <_srodata>	e054: R_AARCH64_ADR_PREL_PG_HI21	.rodata+0x1c9b9
    e058:	910002b5 	add	x21, x21, #0x0	e058: R_AARCH64_ADD_ABS_LO12_NC	.rodata+0x1c9b9
    e05c:	aa1503e0 	mov	x0, x21
    e060:	94000000 	bl	940 <strlen>	e060: R_AARCH64_CALL26	strlen
    e064:	91000400 	add	x0, x0, #0x1
    e068:	eb14001f 	cmp	x0, x20
    e06c:	54000089 	b.ls	e07c <getcwd+0x80>  // b.plast
    e070:	94000000 	bl	2454 <__errno>	e070: R_AARCH64_CALL26	__errno
    e074:	52800441 	mov	w1, #0x22                  	// #34
    e078:	17ffffe8 	b	e018 <getcwd+0x1c>
    e07c:	b5000113 	cbnz	x19, e09c <getcwd+0xa0>
    e080:	aa1403e0 	mov	x0, x20
    e084:	94000000 	bl	b5a8 <malloc>	e084: R_AARCH64_CALL26	malloc
    e088:	aa0003f3 	mov	x19, x0
    e08c:	b5000080 	cbnz	x0, e09c <getcwd+0xa0>
    e090:	94000000 	bl	2454 <__errno>	e090: R_AARCH64_CALL26	__errno
    e094:	52800181 	mov	w1, #0xc                   	// #12
    e098:	17ffffe0 	b	e018 <getcwd+0x1c>
    e09c:	aa1403e2 	mov	x2, x20
    e0a0:	aa1503e1 	mov	x1, x21
    e0a4:	aa1303e0 	mov	x0, x19
    e0a8:	94000000 	bl	dc70 <strlcpy>	e0a8: R_AARCH64_CALL26	strlcpy
    e0ac:	17ffffdd 	b	e020 <getcwd+0x24>

000000000000e0b0 <get_current_dir_name>:
get_current_dir_name():
    e0b0:	d2800001 	mov	x1, #0x0                   	// #0
    e0b4:	d2800000 	mov	x0, #0x0                   	// #0
    e0b8:	14000000 	b	dffc <getcwd>	e0b8: R_AARCH64_JUMP26	getcwd

000000000000e0bc <getopt>:
getopt():
    e0bc:	52800005 	mov	w5, #0x0                   	// #0
    e0c0:	d2800004 	mov	x4, #0x0                   	// #0
    e0c4:	d2800003 	mov	x3, #0x0                   	// #0
    e0c8:	14000000 	b	e554 <getopt_common>	e0c8: R_AARCH64_JUMP26	getopt_common

000000000000e0cc <getoptargp>:
getoptargp():
    e0cc:	f81f0ffe 	str	x30, [sp, #-16]!
    e0d0:	94000000 	bl	e7c0 <getoptvars>	e0d0: R_AARCH64_CALL26	getoptvars
    e0d4:	f84107fe 	ldr	x30, [sp], #16
    e0d8:	d65f03c0 	ret

000000000000e0dc <getoptindp>:
getoptindp():
    e0dc:	f81f0ffe 	str	x30, [sp, #-16]!
    e0e0:	94000000 	bl	e7c0 <getoptvars>	e0e0: R_AARCH64_CALL26	getoptvars
    e0e4:	91003000 	add	x0, x0, #0xc
    e0e8:	f84107fe 	ldr	x30, [sp], #16
    e0ec:	d65f03c0 	ret

000000000000e0f0 <getoptoptp>:
getoptoptp():
    e0f0:	f81f0ffe 	str	x30, [sp, #-16]!
    e0f4:	94000000 	bl	e7c0 <getoptvars>	e0f4: R_AARCH64_CALL26	getoptvars
    e0f8:	91004000 	add	x0, x0, #0x10
    e0fc:	f84107fe 	ldr	x30, [sp], #16
    e100:	d65f03c0 	ret

000000000000e104 <sleep>:
sleep():
    e104:	350000c0 	cbnz	w0, e11c <sleep+0x18>
    e108:	52800000 	mov	w0, #0x0                   	// #0
    e10c:	d65f03c0 	ret
    e110:	52800000 	mov	w0, #0x0                   	// #0
    e114:	a8c34ffe 	ldp	x30, x19, [sp], #48
    e118:	d65f03c0 	ret
    e11c:	a9bd4ffe 	stp	x30, x19, [sp, #-48]!
    e120:	2a0003f3 	mov	w19, w0
    e124:	2a0003e0 	mov	w0, w0
    e128:	910083e3 	add	x3, sp, #0x20
    e12c:	910043e2 	add	x2, sp, #0x10
    e130:	52800001 	mov	w1, #0x0                   	// #0
    e134:	a9017fe0 	stp	x0, xzr, [sp, #16]
    e138:	52800000 	mov	w0, #0x0                   	// #0
    e13c:	94000000 	bl	e7ec <clock_nanosleep>	e13c: R_AARCH64_CALL26	clock_nanosleep
    e140:	36fffe80 	tbz	w0, #31, e110 <sleep+0xc>
    e144:	f94013e1 	ldr	x1, [sp, #32]
    e148:	2a0103e0 	mov	w0, w1
    e14c:	6b01027f 	cmp	w19, w1
    e150:	54fffe29 	b.ls	e114 <sleep+0x10>  // b.plast
    e154:	f94017e3 	ldr	x3, [sp, #40]
    e158:	d28c9fe2 	mov	x2, #0x64ff                	// #25855
    e15c:	f2a3b9a2 	movk	x2, #0x1dcd, lsl #16
    e160:	eb02007f 	cmp	x3, x2
    e164:	54fffd8d 	b.le	e114 <sleep+0x10>
    e168:	11000420 	add	w0, w1, #0x1
    e16c:	17ffffea 	b	e114 <sleep+0x10>

000000000000e170 <usleep>:
usleep():
    e170:	34000220 	cbz	w0, e1b4 <usleep+0x44>
    e174:	52884802 	mov	w2, #0x4240                	// #16960
    e178:	f81e0ffe 	str	x30, [sp, #-32]!
    e17c:	72a001e2 	movk	w2, #0xf, lsl #16
    e180:	1ac20803 	udiv	w3, w0, w2
    e184:	2a0003e0 	mov	w0, w0
    e188:	9ba28061 	umsubl	x1, w3, w2, x0
    e18c:	d2807d00 	mov	x0, #0x3e8                 	// #1000
    e190:	910043e2 	add	x2, sp, #0x10
    e194:	9b007c21 	mul	x1, x1, x0
    e198:	52800000 	mov	w0, #0x0                   	// #0
    e19c:	a90107e3 	stp	x3, x1, [sp, #16]
    e1a0:	d2800003 	mov	x3, #0x0                   	// #0
    e1a4:	52800001 	mov	w1, #0x0                   	// #0
    e1a8:	94000000 	bl	e7ec <clock_nanosleep>	e1a8: R_AARCH64_CALL26	clock_nanosleep
    e1ac:	f84207fe 	ldr	x30, [sp], #32
    e1b0:	d65f03c0 	ret
    e1b4:	52800000 	mov	w0, #0x0                   	// #0
    e1b8:	d65f03c0 	ret

000000000000e1bc <chdir>:
chdir():
    e1bc:	a9b84ffe 	stp	x30, x19, [sp, #-128]!
    e1c0:	9100a3e1 	add	x1, sp, #0x28
    e1c4:	a90157f4 	stp	x20, x21, [sp, #16]
    e1c8:	aa0003f5 	mov	x21, x0
    e1cc:	94000000 	bl	eb08 <stat>	e1cc: R_AARCH64_CALL26	stat
    e1d0:	2a0003f3 	mov	w19, w0
    e1d4:	37f80120 	tbnz	w0, #31, e1f8 <chdir+0x3c>
    e1d8:	b94033e0 	ldr	w0, [sp, #48]
    e1dc:	12140c00 	and	w0, w0, #0xf000
    e1e0:	7140101f 	cmp	w0, #0x4, lsl #12
    e1e4:	54000120 	b.eq	e208 <chdir+0x4c>  // b.none
    e1e8:	94000000 	bl	2454 <__errno>	e1e8: R_AARCH64_CALL26	__errno
    e1ec:	52800281 	mov	w1, #0x14                  	// #20
    e1f0:	b9000001 	str	w1, [x0]
    e1f4:	12800013 	mov	w19, #0xffffffff            	// #-1
    e1f8:	a94157f4 	ldp	x20, x21, [sp, #16]
    e1fc:	2a1303e0 	mov	w0, w19
    e200:	a8c84ffe 	ldp	x30, x19, [sp], #128
    e204:	d65f03c0 	ret
    e208:	d2802000 	mov	x0, #0x100                 	// #256
    e20c:	94000000 	bl	ccfc <lib_get_tempbuffer>	e20c: R_AARCH64_CALL26	lib_get_tempbuffer
    e210:	aa0003f4 	mov	x20, x0
    e214:	b5000080 	cbnz	x0, e224 <chdir+0x68>
    e218:	aa1403e0 	mov	x0, x20
    e21c:	94000000 	bl	cd8c <lib_put_tempbuffer>	e21c: R_AARCH64_CALL26	lib_put_tempbuffer
    e220:	17fffff5 	b	e1f4 <chdir+0x38>
    e224:	aa0003e1 	mov	x1, x0
    e228:	aa1503e0 	mov	x0, x21
    e22c:	94000000 	bl	d56c <realpath>	e22c: R_AARCH64_CALL26	realpath
    e230:	b4ffff40 	cbz	x0, e218 <chdir+0x5c>
    e234:	90000013 	adrp	x19, ebb8 <_srodata>	e234: R_AARCH64_ADR_PREL_PG_HI21	.rodata+0x1c9c1
    e238:	91000273 	add	x19, x19, #0x0	e238: R_AARCH64_ADD_ABS_LO12_NC	.rodata+0x1c9c1
    e23c:	aa1303e0 	mov	x0, x19
    e240:	94000000 	bl	e860 <getenv>	e240: R_AARCH64_CALL26	getenv
    e244:	aa0003e1 	mov	x1, x0
    e248:	b5000060 	cbnz	x0, e254 <chdir+0x98>
    e24c:	90000001 	adrp	x1, ebb8 <_srodata>	e24c: R_AARCH64_ADR_PREL_PG_HI21	.rodata+0x1c9bf
    e250:	91000021 	add	x1, x1, #0x0	e250: R_AARCH64_ADD_ABS_LO12_NC	.rodata+0x1c9bf
    e254:	52800022 	mov	w2, #0x1                   	// #1
    e258:	90000000 	adrp	x0, ebb8 <_srodata>	e258: R_AARCH64_ADR_PREL_PG_HI21	.rodata+0x1c9c5
    e25c:	91000000 	add	x0, x0, #0x0	e25c: R_AARCH64_ADD_ABS_LO12_NC	.rodata+0x1c9c5
    e260:	94000000 	bl	eae4 <setenv>	e260: R_AARCH64_CALL26	setenv
    e264:	aa1403e1 	mov	x1, x20
    e268:	52800022 	mov	w2, #0x1                   	// #1
    e26c:	aa1303e0 	mov	x0, x19
    e270:	94000000 	bl	eae4 <setenv>	e270: R_AARCH64_CALL26	setenv
    e274:	2a0003f3 	mov	w19, w0
    e278:	aa1403e0 	mov	x0, x20
    e27c:	94000000 	bl	cd8c <lib_put_tempbuffer>	e27c: R_AARCH64_CALL26	lib_put_tempbuffer
    e280:	17ffffde 	b	e1f8 <chdir+0x3c>

000000000000e284 <truncate>:
truncate():
    e284:	a9be4ffe 	stp	x30, x19, [sp, #-32]!
    e288:	f100001f 	cmp	x0, #0x0
    e28c:	7a401821 	ccmp	w1, #0x0, #0x1, ne	// ne = any
    e290:	f9000bf4 	str	x20, [sp, #16]
    e294:	540000ea 	b.ge	e2b0 <truncate+0x2c>  // b.tcont
    e298:	90000002 	adrp	x2, ebb8 <_srodata>	e298: R_AARCH64_ADR_PREL_PG_HI21	.rodata+0x1c9cc
    e29c:	90000000 	adrp	x0, ebb8 <_srodata>	e29c: R_AARCH64_ADR_PREL_PG_HI21	.rodata+0x1c9ee
    e2a0:	91000042 	add	x2, x2, #0x0	e2a0: R_AARCH64_ADD_ABS_LO12_NC	.rodata+0x1c9cc
    e2a4:	91000000 	add	x0, x0, #0x0	e2a4: R_AARCH64_ADD_ABS_LO12_NC	.rodata+0x1c9ee
    e2a8:	52800ce1 	mov	w1, #0x67                  	// #103
    e2ac:	94000000 	bl	2444 <__assert>	e2ac: R_AARCH64_CALL26	__assert
    e2b0:	2a0103f3 	mov	w19, w1
    e2b4:	52800041 	mov	w1, #0x2                   	// #2
    e2b8:	94000000 	bl	e9c0 <open>	e2b8: R_AARCH64_CALL26	open
    e2bc:	2a0003f4 	mov	w20, w0
    e2c0:	37f80140 	tbnz	w0, #31, e2e8 <truncate+0x64>
    e2c4:	2a1303e1 	mov	w1, w19
    e2c8:	94000000 	bl	e82c <ftruncate>	e2c8: R_AARCH64_CALL26	ftruncate
    e2cc:	2a0003f3 	mov	w19, w0
    e2d0:	2a1403e0 	mov	w0, w20
    e2d4:	94000000 	bl	e814 <close>	e2d4: R_AARCH64_CALL26	close
    e2d8:	f9400bf4 	ldr	x20, [sp, #16]
    e2dc:	2a1303e0 	mov	w0, w19
    e2e0:	a8c24ffe 	ldp	x30, x19, [sp], #32
    e2e4:	d65f03c0 	ret
    e2e8:	12800013 	mov	w19, #0xffffffff            	// #-1
    e2ec:	17fffffb 	b	e2d8 <truncate+0x54>

000000000000e2f0 <sigemptyset>:
sigemptyset():
    e2f0:	f900001f 	str	xzr, [x0]
    e2f4:	52800000 	mov	w0, #0x0                   	// #0
    e2f8:	d65f03c0 	ret

000000000000e2fc <add_file_action>:
add_file_action():
    e2fc:	f9400002 	ldr	x2, [x0]
    e300:	d2800003 	mov	x3, #0x0                   	// #0
    e304:	b50000a2 	cbnz	x2, e318 <add_file_action+0x1c>
    e308:	b40000e3 	cbz	x3, e324 <add_file_action+0x28>
    e30c:	f9000061 	str	x1, [x3]
    e310:	f900003f 	str	xzr, [x1]
    e314:	d65f03c0 	ret
    e318:	aa0203e3 	mov	x3, x2
    e31c:	f9400042 	ldr	x2, [x2]
    e320:	17fffff9 	b	e304 <add_file_action+0x8>
    e324:	f9000001 	str	x1, [x0]
    e328:	17fffffa 	b	e310 <add_file_action+0x14>

000000000000e32c <tcflush>:
tcflush():
    e32c:	93407c22 	sxtw	x2, w1
    e330:	52802281 	mov	w1, #0x114                 	// #276
    e334:	14000000 	b	e8ac <ioctl>	e334: R_AARCH64_JUMP26	ioctl

000000000000e338 <tcdrain>:
tcdrain():
    e338:	d2800002 	mov	x2, #0x0                   	// #0
    e33c:	528022a1 	mov	w1, #0x115                 	// #277
    e340:	14000000 	b	e8ac <ioctl>	e340: R_AARCH64_JUMP26	ioctl

000000000000e344 <clock_daysbeforemonth>:
clock_daysbeforemonth():
    e344:	72001c3f 	tst	w1, #0xff
    e348:	90000001 	adrp	x1, ebb8 <_srodata>	e348: R_AARCH64_ADR_PREL_PG_HI21	.rodata+0x1ca04
    e34c:	91000021 	add	x1, x1, #0x0	e34c: R_AARCH64_ADD_ABS_LO12_NC	.rodata+0x1ca04
    e350:	7a411804 	ccmp	w0, #0x1, #0x4, ne	// ne = any
    e354:	7860d820 	ldrh	w0, [x1, w0, sxtw #1]
    e358:	1a80d400 	cinc	w0, w0, gt
    e35c:	d65f03c0 	ret

000000000000e360 <clock_isleapyear>:
clock_isleapyear():
    e360:	52803202 	mov	w2, #0x190                 	// #400
    e364:	2a0003e1 	mov	w1, w0
    e368:	1ac20c00 	sdiv	w0, w0, w2
    e36c:	1b028400 	msub	w0, w0, w2, w1
    e370:	34000100 	cbz	w0, e390 <clock_isleapyear+0x30>
    e374:	52800c82 	mov	w2, #0x64                  	// #100
    e378:	1ac20c20 	sdiv	w0, w1, w2
    e37c:	1b028400 	msub	w0, w0, w2, w1
    e380:	34000060 	cbz	w0, e38c <clock_isleapyear+0x2c>
    e384:	f240043f 	tst	x1, #0x3
    e388:	1a9f17e0 	cset	w0, eq	// eq = none
    e38c:	d65f03c0 	ret
    e390:	52800020 	mov	w0, #0x1                   	// #1
    e394:	17fffffe 	b	e38c <clock_isleapyear+0x2c>

000000000000e398 <clock_dayoftheweek>:
clock_dayoftheweek():
    e398:	7100083f 	cmp	w1, #0x2
    e39c:	5400006c 	b.gt	e3a8 <clock_dayoftheweek+0x10>
    e3a0:	51000442 	sub	w2, w2, #0x1
    e3a4:	11003021 	add	w1, w1, #0xc
    e3a8:	52800083 	mov	w3, #0x4                   	// #4
    e3ac:	0b000040 	add	w0, w2, w0
    e3b0:	51000821 	sub	w1, w1, #0x2
    e3b4:	1ac30c43 	sdiv	w3, w2, w3
    e3b8:	0b030000 	add	w0, w0, w3
    e3bc:	12800c63 	mov	w3, #0xffffff9c            	// #-100
    e3c0:	1ac30c43 	sdiv	w3, w2, w3
    e3c4:	0b030000 	add	w0, w0, w3
    e3c8:	52803203 	mov	w3, #0x190                 	// #400
    e3cc:	1ac30c42 	sdiv	w2, w2, w3
    e3d0:	0b020000 	add	w0, w0, w2
    e3d4:	528003e2 	mov	w2, #0x1f                  	// #31
    e3d8:	1b027c21 	mul	w1, w1, w2
    e3dc:	52800182 	mov	w2, #0xc                   	// #12
    e3e0:	1ac20c21 	sdiv	w1, w1, w2
    e3e4:	0b010001 	add	w1, w0, w1
    e3e8:	528000e0 	mov	w0, #0x7                   	// #7
    e3ec:	1ac00c22 	sdiv	w2, w1, w0
    e3f0:	1b008440 	msub	w0, w2, w0, w1
    e3f4:	d65f03c0 	ret
    e3f8:	b4000a82 	cbz	x2, e548 <clock_dayoftheweek+0x1b0>
    e3fc:	f9400c0b 	ldr	x11, [x0, #24]
    e400:	52800008 	mov	w8, #0x0                   	// #0
    e404:	f9400047 	ldr	x7, [x2]
    e408:	aa0203e5 	mov	x5, x2
    e40c:	b5000087 	cbnz	x7, e41c <clock_dayoftheweek+0x84>
    e410:	39400161 	ldrb	w1, [x11]
    e414:	b9001001 	str	w1, [x0, #16]
    e418:	14000021 	b	e49c <clock_dayoftheweek+0x104>
    e41c:	aa0b03e4 	mov	x4, x11
    e420:	38401489 	ldrb	w9, [x4], #1
    e424:	384014e6 	ldrb	w6, [x7], #1
    e428:	7100f53f 	cmp	w9, #0x3d
    e42c:	1a9f112a 	csel	w10, w9, wzr, ne	// ne = any
    e430:	6b060146 	subs	w6, w10, w6
    e434:	7a400944 	ccmp	w10, #0x0, #0x4, eq	// eq = none
    e438:	54ffff41 	b.ne	e420 <clock_dayoftheweek+0x88>  // b.any
    e43c:	7100f53f 	cmp	w9, #0x3d
    e440:	91008042 	add	x2, x2, #0x20
    e444:	9a9f0084 	csel	x4, x4, xzr, eq	// eq = none
    e448:	350007c6 	cbnz	w6, e540 <clock_dayoftheweek+0x1a8>
    e44c:	b40002c4 	cbz	x4, e4a4 <clock_dayoftheweek+0x10c>
    e450:	b9400c01 	ldr	w1, [x0, #12]
    e454:	f9000c1f 	str	xzr, [x0, #24]
    e458:	11000421 	add	w1, w1, #0x1
    e45c:	b9000c01 	str	w1, [x0, #12]
    e460:	b94008a1 	ldr	w1, [x5, #8]
    e464:	340001a1 	cbz	w1, e498 <clock_dayoftheweek+0x100>
    e468:	51000421 	sub	w1, w1, #0x1
    e46c:	7100043f 	cmp	w1, #0x1
    e470:	540006c8 	b.hi	e548 <clock_dayoftheweek+0x1b0>  // b.pmore
    e474:	f9000004 	str	x4, [x0]
    e478:	f94008a1 	ldr	x1, [x5, #16]
    e47c:	b94018a0 	ldr	w0, [x5, #24]
    e480:	b4000061 	cbz	x1, e48c <clock_dayoftheweek+0xf4>
    e484:	b9000020 	str	w0, [x1]
    e488:	52800000 	mov	w0, #0x0                   	// #0
    e48c:	b4000043 	cbz	x3, e494 <clock_dayoftheweek+0xfc>
    e490:	b9000068 	str	w8, [x3]
    e494:	d65f03c0 	ret
    e498:	f900001f 	str	xzr, [x0]
    e49c:	528007e0 	mov	w0, #0x3f                  	// #63
    e4a0:	17fffffd 	b	e494 <clock_dayoftheweek+0xfc>
    e4a4:	b94008a2 	ldr	w2, [x5, #8]
    e4a8:	7100045f 	cmp	w2, #0x1
    e4ac:	540002a0 	b.eq	e500 <clock_dayoftheweek+0x168>  // b.none
    e4b0:	7100085f 	cmp	w2, #0x2
    e4b4:	540000e0 	b.eq	e4d0 <clock_dayoftheweek+0x138>  // b.none
    e4b8:	35000482 	cbnz	w2, e548 <clock_dayoftheweek+0x1b0>
    e4bc:	b9400c01 	ldr	w1, [x0, #12]
    e4c0:	f9000c1f 	str	xzr, [x0, #24]
    e4c4:	11000421 	add	w1, w1, #0x1
    e4c8:	b9000c01 	str	w1, [x0, #12]
    e4cc:	17ffffeb 	b	e478 <clock_dayoftheweek+0xe0>
    e4d0:	b9400c02 	ldr	w2, [x0, #12]
    e4d4:	8b22cc24 	add	x4, x1, w2, sxtw #3
    e4d8:	f9400484 	ldr	x4, [x4, #8]
    e4dc:	b4000084 	cbz	x4, e4ec <clock_dayoftheweek+0x154>
    e4e0:	39400084 	ldrb	w4, [x4]
    e4e4:	7100b49f 	cmp	w4, #0x2d
    e4e8:	540000c1 	b.ne	e500 <clock_dayoftheweek+0x168>  // b.any
    e4ec:	11000442 	add	w2, w2, #0x1
    e4f0:	f900001f 	str	xzr, [x0]
    e4f4:	f9000c1f 	str	xzr, [x0, #24]
    e4f8:	b9000c02 	str	w2, [x0, #12]
    e4fc:	17ffffdf 	b	e478 <clock_dayoftheweek+0xe0>
    e500:	b9400c02 	ldr	w2, [x0, #12]
    e504:	8b22cc21 	add	x1, x1, w2, sxtw #3
    e508:	f9400421 	ldr	x1, [x1, #8]
    e50c:	b4000081 	cbz	x1, e51c <clock_dayoftheweek+0x184>
    e510:	39400024 	ldrb	w4, [x1]
    e514:	7100b49f 	cmp	w4, #0x2d
    e518:	540000c1 	b.ne	e530 <clock_dayoftheweek+0x198>  // b.any
    e51c:	11000442 	add	w2, w2, #0x1
    e520:	f900001f 	str	xzr, [x0]
    e524:	b9000c02 	str	w2, [x0, #12]
    e528:	f9000c1f 	str	xzr, [x0, #24]
    e52c:	17ffffdc 	b	e49c <clock_dayoftheweek+0x104>
    e530:	11000842 	add	w2, w2, #0x2
    e534:	f9000001 	str	x1, [x0]
    e538:	f9000c1f 	str	xzr, [x0, #24]
    e53c:	17ffffef 	b	e4f8 <clock_dayoftheweek+0x160>
    e540:	11000508 	add	w8, w8, #0x1
    e544:	17ffffb0 	b	e404 <clock_dayoftheweek+0x6c>
    e548:	3900801f 	strb	wzr, [x0, #32]
    e54c:	12800000 	mov	w0, #0xffffffff            	// #-1
    e550:	17ffffd1 	b	e494 <clock_dayoftheweek+0xfc>

000000000000e554 <getopt_common>:
getopt_common():
    e554:	a9bb4ffe 	stp	x30, x19, [sp, #-80]!
    e558:	a90157f4 	stp	x20, x21, [sp, #16]
    e55c:	aa0303f5 	mov	x21, x3
    e560:	a9025ff6 	stp	x22, x23, [sp, #32]
    e564:	aa0103f6 	mov	x22, x1
    e568:	aa0203f7 	mov	x23, x2
    e56c:	a90367f8 	stp	x24, x25, [sp, #48]
    e570:	aa0403f8 	mov	x24, x4
    e574:	2a0503f9 	mov	w25, w5
    e578:	f90023fa 	str	x26, [sp, #64]
    e57c:	2a0003fa 	mov	w26, w0
    e580:	94000000 	bl	e7c0 <getoptvars>	e580: R_AARCH64_CALL26	getoptvars
    e584:	b4000aa0 	cbz	x0, e6d8 <getopt_common+0x184>
    e588:	aa0003f3 	mov	x19, x0
    e58c:	b40003d6 	cbz	x22, e604 <getopt_common+0xb0>
    e590:	b9400c00 	ldr	w0, [x0, #12]
    e594:	7100001f 	cmp	w0, #0x0
    e598:	5400006d 	b.le	e5a4 <getopt_common+0x50>
    e59c:	39408260 	ldrb	w0, [x19, #32]
    e5a0:	37000100 	tbnz	w0, #0, e5c0 <getopt_common+0x6c>
    e5a4:	d2800020 	mov	x0, #0x1                   	// #1
    e5a8:	f900027f 	str	xzr, [x19]
    e5ac:	f2c007e0 	movk	x0, #0x3f, lsl #32
    e5b0:	f800c260 	stur	x0, [x19, #12]
    e5b4:	52800020 	mov	w0, #0x1                   	// #1
    e5b8:	f9000e7f 	str	xzr, [x19, #24]
    e5bc:	39008260 	strb	w0, [x19, #32]
    e5c0:	f9400e74 	ldr	x20, [x19, #24]
    e5c4:	b4000194 	cbz	x20, e5f4 <getopt_common+0xa0>
    e5c8:	39400281 	ldrb	w1, [x20]
    e5cc:	340000e1 	cbz	w1, e5e8 <getopt_common+0x94>
    e5d0:	7100e83f 	cmp	w1, #0x3a
    e5d4:	540003c1 	b.ne	e64c <getopt_common+0xf8>  // b.any
    e5d8:	b9001261 	str	w1, [x19, #16]
    e5dc:	91000694 	add	x20, x20, #0x1
    e5e0:	f9000e74 	str	x20, [x19, #24]
    e5e4:	1400003d 	b	e6d8 <getopt_common+0x184>
    e5e8:	b9400e60 	ldr	w0, [x19, #12]
    e5ec:	11000400 	add	w0, w0, #0x1
    e5f0:	b9000e60 	str	w0, [x19, #12]
    e5f4:	b9400e60 	ldr	w0, [x19, #12]
    e5f8:	6b1a001f 	cmp	w0, w26
    e5fc:	5400016b 	b.lt	e628 <getopt_common+0xd4>  // b.tstop
    e600:	f9000e7f 	str	xzr, [x19, #24]
    e604:	12800015 	mov	w21, #0xffffffff            	// #-1
    e608:	3900827f 	strb	wzr, [x19, #32]
    e60c:	f94023fa 	ldr	x26, [sp, #64]
    e610:	2a1503e0 	mov	w0, w21
    e614:	a94157f4 	ldp	x20, x21, [sp, #16]
    e618:	a9425ff6 	ldp	x22, x23, [sp, #32]
    e61c:	a94367f8 	ldp	x24, x25, [sp, #48]
    e620:	a8c54ffe 	ldp	x30, x19, [sp], #80
    e624:	d65f03c0 	ret
    e628:	f860dac1 	ldr	x1, [x22, w0, sxtw #3]
    e62c:	f9000e61 	str	x1, [x19, #24]
    e630:	b4fffea1 	cbz	x1, e604 <getopt_common+0xb0>
    e634:	39400020 	ldrb	w0, [x1]
    e638:	7100b41f 	cmp	w0, #0x2d
    e63c:	54fffe41 	b.ne	e604 <getopt_common+0xb0>  // b.any
    e640:	91000421 	add	x1, x1, #0x1
    e644:	f9000e61 	str	x1, [x19, #24]
    e648:	17ffffde 	b	e5c0 <getopt_common+0x6c>
    e64c:	36000b79 	tbz	w25, #0, e7b8 <getopt_common+0x264>
    e650:	7100b43f 	cmp	w1, #0x2d
    e654:	54000201 	b.ne	e694 <getopt_common+0x140>  // b.any
    e658:	91000694 	add	x20, x20, #0x1
    e65c:	f9000e74 	str	x20, [x19, #24]
    e660:	aa1503e2 	mov	x2, x21
    e664:	aa1803e3 	mov	x3, x24
    e668:	aa1603e1 	mov	x1, x22
    e66c:	aa1303e0 	mov	x0, x19
    e670:	94000000 	bl	0 <memcpy>	e670: R_AARCH64_CALL26	.text+0xe3f8
    e674:	2a0003f5 	mov	w21, w0
    e678:	7100fc1f 	cmp	w0, #0x3f
    e67c:	54fffc81 	b.ne	e60c <getopt_common+0xb8>  // b.any
    e680:	b9400e60 	ldr	w0, [x19, #12]
    e684:	f9000e7f 	str	xzr, [x19, #24]
    e688:	11000400 	add	w0, w0, #0x1
    e68c:	b9000e60 	str	w0, [x19, #12]
    e690:	17ffffdf 	b	e60c <getopt_common+0xb8>
    e694:	360807b9 	tbz	w25, #1, e788 <getopt_common+0x234>
    e698:	aa1503e2 	mov	x2, x21
    e69c:	aa1803e3 	mov	x3, x24
    e6a0:	aa1603e1 	mov	x1, x22
    e6a4:	aa1303e0 	mov	x0, x19
    e6a8:	94000000 	bl	0 <memcpy>	e6a8: R_AARCH64_CALL26	.text+0xe3f8
    e6ac:	2a0003f5 	mov	w21, w0
    e6b0:	7100fc1f 	cmp	w0, #0x3f
    e6b4:	54fffac1 	b.ne	e60c <getopt_common+0xb8>  // b.any
    e6b8:	f9400e74 	ldr	x20, [x19, #24]
    e6bc:	b4000074 	cbz	x20, e6c8 <getopt_common+0x174>
    e6c0:	39400680 	ldrb	w0, [x20, #1]
    e6c4:	34000620 	cbz	w0, e788 <getopt_common+0x234>
    e6c8:	b9400e60 	ldr	w0, [x19, #12]
    e6cc:	f9000e7f 	str	xzr, [x19, #24]
    e6d0:	11000400 	add	w0, w0, #0x1
    e6d4:	b9000e60 	str	w0, [x19, #12]
    e6d8:	528007f5 	mov	w21, #0x3f                  	// #63
    e6dc:	17ffffcc 	b	e60c <getopt_common+0xb8>
    e6e0:	b9400e60 	ldr	w0, [x19, #12]
    e6e4:	39400281 	ldrb	w1, [x20]
    e6e8:	11000400 	add	w0, w0, #0x1
    e6ec:	29018660 	stp	w0, w1, [x19, #12]
    e6f0:	f9000e7f 	str	xzr, [x19, #24]
    e6f4:	17fffff9 	b	e6d8 <getopt_common+0x184>
    e6f8:	528007f5 	mov	w21, #0x3f                  	// #63
    e6fc:	14000028 	b	e79c <getopt_common+0x248>
    e700:	39400401 	ldrb	w1, [x0, #1]
    e704:	7100e83f 	cmp	w1, #0x3a
    e708:	540000a0 	b.eq	e71c <getopt_common+0x1c8>  // b.none
    e70c:	91000694 	add	x20, x20, #0x1
    e710:	f9000e74 	str	x20, [x19, #24]
    e714:	39400015 	ldrb	w21, [x0]
    e718:	17ffffbd 	b	e60c <getopt_common+0xb8>
    e71c:	39400681 	ldrb	w1, [x20, #1]
    e720:	b9400e62 	ldr	w2, [x19, #12]
    e724:	340000e1 	cbz	w1, e740 <getopt_common+0x1ec>
    e728:	11000442 	add	w2, w2, #0x1
    e72c:	91000694 	add	x20, x20, #0x1
    e730:	f9000274 	str	x20, [x19]
    e734:	b9000e62 	str	w2, [x19, #12]
    e738:	f9000e7f 	str	xzr, [x19, #24]
    e73c:	17fffff6 	b	e714 <getopt_common+0x1c0>
    e740:	8b22ced6 	add	x22, x22, w2, sxtw #3
    e744:	f94006c1 	ldr	x1, [x22, #8]
    e748:	b40000e1 	cbz	x1, e764 <getopt_common+0x210>
    e74c:	39400023 	ldrb	w3, [x1]
    e750:	7100b47f 	cmp	w3, #0x2d
    e754:	54000080 	b.eq	e764 <getopt_common+0x210>  // b.none
    e758:	11000842 	add	w2, w2, #0x2
    e75c:	f9000261 	str	x1, [x19]
    e760:	17fffff5 	b	e734 <getopt_common+0x1e0>
    e764:	f900027f 	str	xzr, [x19]
    e768:	11000442 	add	w2, w2, #0x1
    e76c:	f9000e7f 	str	xzr, [x19, #24]
    e770:	39400001 	ldrb	w1, [x0]
    e774:	29018662 	stp	w2, w1, [x19, #12]
    e778:	39400801 	ldrb	w1, [x0, #2]
    e77c:	7100e83f 	cmp	w1, #0x3a
    e780:	54fff461 	b.ne	e60c <getopt_common+0xb8>  // b.any
    e784:	17ffffe4 	b	e714 <getopt_common+0x1c0>
    e788:	b4fffad7 	cbz	x23, e6e0 <getopt_common+0x18c>
    e78c:	394002f5 	ldrb	w21, [x23]
    e790:	7100eabf 	cmp	w21, #0x3a
    e794:	54fffb21 	b.ne	e6f8 <getopt_common+0x1a4>  // b.any
    e798:	910006f7 	add	x23, x23, #0x1
    e79c:	39400298 	ldrb	w24, [x20]
    e7a0:	aa1703e0 	mov	x0, x23
    e7a4:	2a1803e1 	mov	w1, w24
    e7a8:	94000000 	bl	59c <strchr>	e7a8: R_AARCH64_CALL26	strchr
    e7ac:	b5fffaa0 	cbnz	x0, e700 <getopt_common+0x1ac>
    e7b0:	b9001278 	str	w24, [x19, #16]
    e7b4:	17ffff8a 	b	e5dc <getopt_common+0x88>
    e7b8:	b5fffeb7 	cbnz	x23, e78c <getopt_common+0x238>
    e7bc:	17ffff92 	b	e604 <getopt_common+0xb0>

000000000000e7c0 <getoptvars>:
getoptvars():
    e7c0:	90000000 	adrp	x0, 2a0 <memcmp+0x20>	e7c0: R_AARCH64_ADR_PREL_PG_HI21	g_getopt_vars
    e7c4:	91000000 	add	x0, x0, #0x0	e7c4: R_AARCH64_ADD_ABS_LO12_NC	g_getopt_vars
    e7c8:	d65f03c0 	ret

000000000000e7cc <boardctl>:
boardctl():
    e7cc:	2a0003e3 	mov	w3, w0
    e7d0:	aa0103e2 	mov	x2, x1
    e7d4:	d28008e0 	mov	x0, #0x47                  	// #71
    e7d8:	2a0303e1 	mov	w1, w3
    e7dc:	f81f0ffe 	str	x30, [sp, #-16]!
    e7e0:	d4000001 	svc	#0x0
    e7e4:	f84107fe 	ldr	x30, [sp], #16
    e7e8:	d65f03c0 	ret

000000000000e7ec <clock_nanosleep>:
clock_nanosleep():
    e7ec:	2a0003e5 	mov	w5, w0
    e7f0:	aa0303e4 	mov	x4, x3
    e7f4:	d28005e0 	mov	x0, #0x2f                  	// #47
    e7f8:	aa0203e3 	mov	x3, x2
    e7fc:	93407c22 	sxtw	x2, w1
    e800:	93407ca1 	sxtw	x1, w5
    e804:	f81f0ffe 	str	x30, [sp, #-16]!
    e808:	d4000001 	svc	#0x0
    e80c:	f84107fe 	ldr	x30, [sp], #16
    e810:	d65f03c0 	ret

000000000000e814 <close>:
close():
    e814:	93407c01 	sxtw	x1, w0
    e818:	d2800760 	mov	x0, #0x3b                  	// #59
    e81c:	f81f0ffe 	str	x30, [sp, #-16]!
    e820:	d4000001 	svc	#0x0
    e824:	f84107fe 	ldr	x30, [sp], #16
    e828:	d65f03c0 	ret

000000000000e82c <ftruncate>:
ftruncate():
    e82c:	2a0003e3 	mov	w3, w0
    e830:	93407c22 	sxtw	x2, w1
    e834:	d2800960 	mov	x0, #0x4b                  	// #75
    e838:	f81f0ffe 	str	x30, [sp, #-16]!
    e83c:	93407c61 	sxtw	x1, w3
    e840:	d4000001 	svc	#0x0
    e844:	f84107fe 	ldr	x30, [sp], #16
    e848:	d65f03c0 	ret

000000000000e84c <get_environ_ptr>:
get_environ_ptr():
    e84c:	d28010e0 	mov	x0, #0x87                  	// #135
    e850:	f81f0ffe 	str	x30, [sp, #-16]!
    e854:	d4000001 	svc	#0x0
    e858:	f84107fe 	ldr	x30, [sp], #16
    e85c:	d65f03c0 	ret

000000000000e860 <getenv>:
getenv():
    e860:	aa0003e1 	mov	x1, x0
    e864:	d2801120 	mov	x0, #0x89                  	// #137
    e868:	f81f0ffe 	str	x30, [sp, #-16]!
    e86c:	d4000001 	svc	#0x0
    e870:	f84107fe 	ldr	x30, [sp], #16
    e874:	d65f03c0 	ret

000000000000e878 <gethostname>:
gethostname():
    e878:	aa0003e3 	mov	x3, x0
    e87c:	aa0103e2 	mov	x2, x1
    e880:	d2800300 	mov	x0, #0x18                  	// #24
    e884:	aa0303e1 	mov	x1, x3
    e888:	f81f0ffe 	str	x30, [sp, #-16]!
    e88c:	d4000001 	svc	#0x0
    e890:	f84107fe 	ldr	x30, [sp], #16
    e894:	d65f03c0 	ret

000000000000e898 <getpid>:
getpid():
    e898:	d2800100 	mov	x0, #0x8                   	// #8
    e89c:	f81f0ffe 	str	x30, [sp, #-16]!
    e8a0:	d4000001 	svc	#0x0
    e8a4:	f84107fe 	ldr	x30, [sp], #16
    e8a8:	d65f03c0 	ret

000000000000e8ac <ioctl>:
ioctl():
    e8ac:	f81c0ffe 	str	x30, [sp, #-64]!
    e8b0:	2a0003e4 	mov	w4, w0
    e8b4:	aa0203e3 	mov	x3, x2
    e8b8:	910103e0 	add	x0, sp, #0x40
    e8bc:	a90103e0 	stp	x0, x0, [sp, #16]
    e8c0:	9100c3e0 	add	x0, sp, #0x30
    e8c4:	f90013e0 	str	x0, [sp, #32]
    e8c8:	128000e0 	mov	w0, #0xfffffff8            	// #-8
    e8cc:	29057fe0 	stp	w0, wzr, [sp, #40]
    e8d0:	d2800780 	mov	x0, #0x3c                  	// #60
    e8d4:	f9001fe2 	str	x2, [sp, #56]
    e8d8:	93407c22 	sxtw	x2, w1
    e8dc:	93407c81 	sxtw	x1, w4
    e8e0:	d4000001 	svc	#0x0
    e8e4:	f84407fe 	ldr	x30, [sp], #64
    e8e8:	d65f03c0 	ret

000000000000e8ec <kill>:
kill():
    e8ec:	2a0003e3 	mov	w3, w0
    e8f0:	93407c22 	sxtw	x2, w1
    e8f4:	d28004c0 	mov	x0, #0x26                  	// #38
    e8f8:	f81f0ffe 	str	x30, [sp, #-16]!
    e8fc:	93407c61 	sxtw	x1, w3
    e900:	d4000001 	svc	#0x0
    e904:	f84107fe 	ldr	x30, [sp], #16
    e908:	d65f03c0 	ret

000000000000e90c <lseek>:
lseek():
    e90c:	2a0003e4 	mov	w4, w0
    e910:	93407c43 	sxtw	x3, w2
    e914:	d2800980 	mov	x0, #0x4c                  	// #76
    e918:	93407c22 	sxtw	x2, w1
    e91c:	93407c81 	sxtw	x1, w4
    e920:	f81f0ffe 	str	x30, [sp, #-16]!
    e924:	d4000001 	svc	#0x0
    e928:	f84107fe 	ldr	x30, [sp], #16
    e92c:	d65f03c0 	ret

000000000000e930 <lstat>:
lstat():
    e930:	aa0003e3 	mov	x3, x0
    e934:	aa0103e2 	mov	x2, x1
    e938:	d2800a20 	mov	x0, #0x51                  	// #81
    e93c:	aa0303e1 	mov	x1, x3
    e940:	f81f0ffe 	str	x30, [sp, #-16]!
    e944:	d4000001 	svc	#0x0
    e948:	f84107fe 	ldr	x30, [sp], #16
    e94c:	d65f03c0 	ret

000000000000e950 <mkdir>:
mkdir():
    e950:	aa0003e3 	mov	x3, x0
    e954:	2a0103e2 	mov	w2, w1
    e958:	d2800c80 	mov	x0, #0x64                  	// #100
    e95c:	aa0303e1 	mov	x1, x3
    e960:	f81f0ffe 	str	x30, [sp, #-16]!
    e964:	d4000001 	svc	#0x0
    e968:	f84107fe 	ldr	x30, [sp], #16
    e96c:	d65f03c0 	ret

000000000000e970 <mount>:
mount():
    e970:	aa0003e6 	mov	x6, x0
    e974:	aa0403e5 	mov	x5, x4
    e978:	d2800c60 	mov	x0, #0x63                  	// #99
    e97c:	aa0303e4 	mov	x4, x3
    e980:	aa0203e3 	mov	x3, x2
    e984:	aa0103e2 	mov	x2, x1
    e988:	aa0603e1 	mov	x1, x6
    e98c:	f81f0ffe 	str	x30, [sp, #-16]!
    e990:	d4000001 	svc	#0x0
    e994:	f84107fe 	ldr	x30, [sp], #16
    e998:	d65f03c0 	ret

000000000000e99c <nx_vsyslog>:
nx_vsyslog():
    e99c:	2a0003e4 	mov	w4, w0
    e9a0:	aa0203e3 	mov	x3, x2
    e9a4:	d2800740 	mov	x0, #0x3a                  	// #58
    e9a8:	aa0103e2 	mov	x2, x1
    e9ac:	93407c81 	sxtw	x1, w4
    e9b0:	f81f0ffe 	str	x30, [sp, #-16]!
    e9b4:	d4000001 	svc	#0x0
    e9b8:	f84107fe 	ldr	x30, [sp], #16
    e9bc:	d65f03c0 	ret

000000000000e9c0 <open>:
open():
    e9c0:	f81c0ffe 	str	x30, [sp, #-64]!
    e9c4:	aa0003e4 	mov	x4, x0
    e9c8:	2a0203e3 	mov	w3, w2
    e9cc:	910103e0 	add	x0, sp, #0x40
    e9d0:	a90103e0 	stp	x0, x0, [sp, #16]
    e9d4:	9100c3e0 	add	x0, sp, #0x30
    e9d8:	f90013e0 	str	x0, [sp, #32]
    e9dc:	128000e0 	mov	w0, #0xfffffff8            	// #-8
    e9e0:	29057fe0 	stp	w0, wzr, [sp, #40]
    e9e4:	d28009c0 	mov	x0, #0x4e                  	// #78
    e9e8:	f9001fe2 	str	x2, [sp, #56]
    e9ec:	93407c22 	sxtw	x2, w1
    e9f0:	aa0403e1 	mov	x1, x4
    e9f4:	d4000001 	svc	#0x0
    e9f8:	f84407fe 	ldr	x30, [sp], #64
    e9fc:	d65f03c0 	ret

000000000000ea00 <pgalloc>:
pgalloc():
    ea00:	aa0003e3 	mov	x3, x0
    ea04:	2a0103e2 	mov	w2, w1
    ea08:	d2800400 	mov	x0, #0x20                  	// #32
    ea0c:	aa0303e1 	mov	x1, x3
    ea10:	f81f0ffe 	str	x30, [sp, #-16]!
    ea14:	d4000001 	svc	#0x0
    ea18:	f84107fe 	ldr	x30, [sp], #16
    ea1c:	d65f03c0 	ret

000000000000ea20 <posix_spawn>:
posix_spawn():
    ea20:	aa0003e7 	mov	x7, x0
    ea24:	aa0503e6 	mov	x6, x5
    ea28:	d2800480 	mov	x0, #0x24                  	// #36
    ea2c:	aa0403e5 	mov	x5, x4
    ea30:	aa0303e4 	mov	x4, x3
    ea34:	aa0203e3 	mov	x3, x2
    ea38:	aa0103e2 	mov	x2, x1
    ea3c:	aa0703e1 	mov	x1, x7
    ea40:	f81f0ffe 	str	x30, [sp, #-16]!
    ea44:	d4000001 	svc	#0x0
    ea48:	f84107fe 	ldr	x30, [sp], #16
    ea4c:	d65f03c0 	ret

000000000000ea50 <pthread_join>:
pthread_join():
    ea50:	2a0003e3 	mov	w3, w0
    ea54:	aa0103e2 	mov	x2, x1
    ea58:	d2800e40 	mov	x0, #0x72                  	// #114
    ea5c:	f81f0ffe 	str	x30, [sp, #-16]!
    ea60:	93407c61 	sxtw	x1, w3
    ea64:	d4000001 	svc	#0x0
    ea68:	f84107fe 	ldr	x30, [sp], #16
    ea6c:	d65f03c0 	ret

000000000000ea70 <read>:
read():
    ea70:	2a0003e4 	mov	w4, w0
    ea74:	aa0203e3 	mov	x3, x2
    ea78:	d28007a0 	mov	x0, #0x3d                  	// #61
    ea7c:	aa0103e2 	mov	x2, x1
    ea80:	93407c81 	sxtw	x1, w4
    ea84:	f81f0ffe 	str	x30, [sp, #-16]!
    ea88:	d4000001 	svc	#0x0
    ea8c:	f84107fe 	ldr	x30, [sp], #16
    ea90:	d65f03c0 	ret

000000000000ea94 <rename>:
rename():
    ea94:	aa0003e3 	mov	x3, x0
    ea98:	aa0103e2 	mov	x2, x1
    ea9c:	d28009e0 	mov	x0, #0x4f                  	// #79
    eaa0:	aa0303e1 	mov	x1, x3
    eaa4:	f81f0ffe 	str	x30, [sp, #-16]!
    eaa8:	d4000001 	svc	#0x0
    eaac:	f84107fe 	ldr	x30, [sp], #16
    eab0:	d65f03c0 	ret

000000000000eab4 <rmdir>:
rmdir():
    eab4:	aa0003e1 	mov	x1, x0
    eab8:	d2800ca0 	mov	x0, #0x65                  	// #101
    eabc:	f81f0ffe 	str	x30, [sp, #-16]!
    eac0:	d4000001 	svc	#0x0
    eac4:	f84107fe 	ldr	x30, [sp], #16
    eac8:	d65f03c0 	ret

000000000000eacc <sched_getscheduler>:
sched_getscheduler():
    eacc:	93407c01 	sxtw	x1, w0
    ead0:	d28001c0 	mov	x0, #0xe                   	// #14
    ead4:	f81f0ffe 	str	x30, [sp, #-16]!
    ead8:	d4000001 	svc	#0x0
    eadc:	f84107fe 	ldr	x30, [sp], #16
    eae0:	d65f03c0 	ret

000000000000eae4 <setenv>:
setenv():
    eae4:	aa0003e4 	mov	x4, x0
    eae8:	93407c43 	sxtw	x3, w2
    eaec:	d2801160 	mov	x0, #0x8b                  	// #139
    eaf0:	aa0103e2 	mov	x2, x1
    eaf4:	aa0403e1 	mov	x1, x4
    eaf8:	f81f0ffe 	str	x30, [sp, #-16]!
    eafc:	d4000001 	svc	#0x0
    eb00:	f84107fe 	ldr	x30, [sp], #16
    eb04:	d65f03c0 	ret

000000000000eb08 <stat>:
stat():
    eb08:	aa0003e3 	mov	x3, x0
    eb0c:	aa0103e2 	mov	x2, x1
    eb10:	d2800a00 	mov	x0, #0x50                  	// #80
    eb14:	aa0303e1 	mov	x1, x3
    eb18:	f81f0ffe 	str	x30, [sp, #-16]!
    eb1c:	d4000001 	svc	#0x0
    eb20:	f84107fe 	ldr	x30, [sp], #16
    eb24:	d65f03c0 	ret

000000000000eb28 <sysinfo>:
sysinfo():
    eb28:	aa0003e1 	mov	x1, x0
    eb2c:	d28002e0 	mov	x0, #0x17                  	// #23
    eb30:	f81f0ffe 	str	x30, [sp, #-16]!
    eb34:	d4000001 	svc	#0x0
    eb38:	f84107fe 	ldr	x30, [sp], #16
    eb3c:	d65f03c0 	ret

000000000000eb40 <umount2>:
umount2():
    eb40:	aa0003e3 	mov	x3, x0
    eb44:	2a0103e2 	mov	w2, w1
    eb48:	d2800cc0 	mov	x0, #0x66                  	// #102
    eb4c:	aa0303e1 	mov	x1, x3
    eb50:	f81f0ffe 	str	x30, [sp, #-16]!
    eb54:	d4000001 	svc	#0x0
    eb58:	f84107fe 	ldr	x30, [sp], #16
    eb5c:	d65f03c0 	ret

000000000000eb60 <unlink>:
unlink():
    eb60:	aa0003e1 	mov	x1, x0
    eb64:	d2800ce0 	mov	x0, #0x67                  	// #103
    eb68:	f81f0ffe 	str	x30, [sp, #-16]!
    eb6c:	d4000001 	svc	#0x0
    eb70:	f84107fe 	ldr	x30, [sp], #16
    eb74:	d65f03c0 	ret

000000000000eb78 <unsetenv>:
unsetenv():
    eb78:	aa0003e1 	mov	x1, x0
    eb7c:	d2801180 	mov	x0, #0x8c                  	// #140
    eb80:	f81f0ffe 	str	x30, [sp, #-16]!
    eb84:	d4000001 	svc	#0x0
    eb88:	f84107fe 	ldr	x30, [sp], #16
    eb8c:	d65f03c0 	ret

000000000000eb90 <waitpid>:
waitpid():
    eb90:	2a0003e4 	mov	w4, w0
    eb94:	93407c43 	sxtw	x3, w2
    eb98:	d2800420 	mov	x0, #0x21                  	// #33
    eb9c:	aa0103e2 	mov	x2, x1
    eba0:	93407c81 	sxtw	x1, w4
    eba4:	f81f0ffe 	str	x30, [sp, #-16]!
    eba8:	d4000001 	svc	#0x0
    ebac:	f84107fe 	ldr	x30, [sp], #16
    ebb0:	d65f03c0 	ret
Contents of the .eh_frame section (loaded from ../apps/bin/init):


00000000 0000000000000010 00000000 CIE
  Version:               1
  Augmentation:          "zR"
  Code alignment factor: 4
  Data alignment factor: -8
  Return address column: 30
  Augmentation data:     1b
  DW_CFA_def_cfa: r31 (sp) ofs 0

00000014 0000000000000010 00000018 FDE cie=00000000 pc=0000000000000d60..0000000000000d90
  DW_CFA_nop
  DW_CFA_nop
  DW_CFA_nop

00000028 0000000000000010 00000000 CIE
  Version:               1
  Augmentation:          "zR"
  Code alignment factor: 4
  Data alignment factor: -8
  Return address column: 30
  Augmentation data:     1b
  DW_CFA_def_cfa: r31 (sp) ofs 0

0000003c 0000000000000010 00000018 FDE cie=00000028 pc=0000000000000d90..0000000000000dbc
  DW_CFA_nop
  DW_CFA_nop
  DW_CFA_nop

